 zmq

 Timestamp is 5bcc82d6 (Sun Oct 21 08:44:54 2018)

 Preferred load address is 0000000180000000

 Start         Length     Name                   Class
 0001:00000000 00000370H .text$di                CODE
 0001:00000370 0007a7d0H .text$mn                CODE
 0001:0007ab40 00000020H .text$mn$00             CODE
 0001:0007ab60 00002f40H .text$x                 CODE
 0001:0007daa0 000002ecH .text$yd                CODE
 0002:00000000 000006d8H .idata$5                DATA
 0002:000006d8 00000010H .00cfg                  DATA
 0002:000006e8 00000008H .CRT$XCA                DATA
 0002:000006f0 00000018H .CRT$XCC                DATA
 0002:00000708 00000010H .CRT$XCL                DATA
 0002:00000718 00000068H .CRT$XCU                DATA
 0002:00000780 00000008H .CRT$XCZ                DATA
 0002:00000788 00000008H .CRT$XIA                DATA
 0002:00000790 00000030H .CRT$XIC                DATA
 0002:000007c0 00000008H .CRT$XIZ                DATA
 0002:000007c8 00000008H .CRT$XLA                DATA
 0002:000007d0 00000008H .CRT$XLZ                DATA
 0002:000007d8 00000008H .CRT$XPA                DATA
 0002:000007e0 00000010H .CRT$XPX                DATA
 0002:000007f0 00000008H .CRT$XPXA               DATA
 0002:000007f8 00000008H .CRT$XPZ                DATA
 0002:00000800 00000008H .CRT$XTA                DATA
 0002:00000808 00000008H .CRT$XTZ                DATA
 0002:00000810 0001a448H .rdata                  DATA
 0002:0001ac58 00000028H .rdata$T                DATA
 0002:0001ac80 00004a2cH .rdata$r                DATA
 0002:0001f6ac 00000414H .rdata$zzzdbg           DATA
 0002:0001fac0 00000008H .rtc$IAA                DATA
 0002:0001fac8 00000008H .rtc$IZZ                DATA
 0002:0001fad0 00000008H .rtc$TAA                DATA
 0002:0001fad8 00000008H .rtc$TZZ                DATA
 0002:0001fae0 0000b6e0H .xdata                  DATA
 0002:0002b1c0 000003d0H .xdata$x                DATA
 0002:0002b590 0000004cH .edata                  DATA
 0002:0002b5dc 00000064H .idata$2                DATA
 0002:0002b640 00000018H .idata$3                DATA
 0002:0002b658 000006d8H .idata$4                DATA
 0002:0002bd30 00001d44H .idata$6                DATA
 0003:00000000 00000c10H .data                   DATA
 0003:00000c10 000014c0H .data$r                 DATA
 0003:000020d0 00001934H .bss                    DATA
 0004:00000000 000070d4H .pdata                  DATA
 0005:00000000 0000015cH .gfids$y                DATA
 0006:00000000 00000004H .tls                    DATA
 0006:00000004 00000004H .tls$                   DATA
 0006:00000008 00000001H .tls$ZZZ                DATA
 0007:00000000 00000060H .rsrc$01                DATA
 0007:00000060 00000180H .rsrc$02                DATA

  Address         Publics by Value              Rva+Base               Lib:Object

 0000:00000000       __dynamic_value_reloc_table 0000000000000000     <absolute>
 0000:00000000       __guard_iat_count          0000000000000000     <absolute>
 0000:00000000       __guard_iat_table          0000000000000000     <absolute>
 0000:00000000       __guard_fids_count         0000000000000000     <absolute>
 0000:00000000       __guard_longjmp_table      0000000000000000     <absolute>
 0000:00000000       ___safe_se_handler_table   0000000000000000     <absolute>
 0000:00000000       __guard_longjmp_count      0000000000000000     <absolute>
 0000:00000000       ___safe_se_handler_count   0000000000000000     <absolute>
 0000:00000000       __guard_fids_table         0000000000000000     <absolute>
 0000:00000100       __guard_flags              0000000000000100     <absolute>
 0000:00000000       __ImageBase                0000000180000000     <linker-defined>
 0001:00000370       __local_stdio_printf_options 0000000180001370 f i binding.obj
 0001:00000380       sprintf                    0000000180001380 f i binding.obj
 0001:000003e0       ?_Deallocate@std@@YAXPEAX_K1@Z 00000001800013e0 f i binding.obj
 0001:000006e0       ?New@?$Factory@VFunctionTemplate@v8@@@imp@Nan@@SA?AV?$Local@VFunctionTemplate@v8@@@v8@@P6AXAEBV?$FunctionCallbackInfo@VValue@v8@@@3@@ZV?$Local@VValue@v8@@@5@V?$Local@VSignature@v8@@@5@@Z 00000001800016e0 f i binding.obj
 0001:000008c0       ?ThrowError@Nan@@YAXPEBD@Z 00000001800018c0 f i binding.obj
 0001:00000950       ?ThrowRangeError@Nan@@YAXPEBD@Z 0000000180001950 f i binding.obj
 0001:000009e0       ?ThrowTypeError@Nan@@YAXPEBD@Z 00000001800019e0 f i binding.obj
 0001:00000a70       ?MakeCallback@Nan@@YA?AV?$Local@VValue@v8@@@v8@@V?$Local@VObject@v8@@@3@V?$Local@VFunction@v8@@@3@HPEAV23@@Z 0000000180001a70 f i binding.obj
 0001:00000bd0       ??0Utf8String@Nan@@QEAA@V?$Local@VValue@v8@@@v8@@@Z 0000000180001bd0 f i binding.obj
 0001:00000ce0       ?SetPrototypeMethod@Nan@@YAXV?$Local@VFunctionTemplate@v8@@@v8@@PEBDP6AXAEBV?$FunctionCallbackInfo@VValue@v8@@@1@@Z@Z 0000000180001ce0 f i binding.obj
 0001:00000dd0       ?SetAccessor@Nan@@YAXV?$Local@VObjectTemplate@v8@@@v8@@V?$Local@VString@v8@@@3@P6AX1AEBV?$PropertyCallbackInfo@VValue@v8@@@1@@ZP6AX1V?$Local@VValue@v8@@@3@AEBV?$PropertyCallbackInfo@X@1@@Z4W4AccessControl@3@W4PropertyAttribute@3@V?$Local@VAccessorSignature@v8@@@3@@Z 0000000180001dd0 f i binding.obj
 0001:00000f80       ?Wrap@ObjectWrap@Nan@@IEAAXV?$Local@VObject@v8@@@v8@@@Z 0000000180001f80 f i binding.obj
 0001:00001050       ?Ref@ObjectWrap@Nan@@MEAAXXZ 0000000180002050 f i binding.obj
 0001:00001090       ?Unref@ObjectWrap@Nan@@MEAAXXZ 0000000180002090 f i binding.obj
 0001:00001140       ?WeakCallback@ObjectWrap@Nan@@CAXAEBV?$WeakCallbackInfo@VObjectWrap@Nan@@@v8@@@Z 0000000180002140 f i binding.obj
 0001:000011d0       ??_GObjectWrap@Nan@@UEAAPEAXI@Z 00000001800021d0 f i binding.obj
 0001:000011d0       ??_EObjectWrap@Nan@@UEAAPEAXI@Z 00000001800021d0 f i * CIL library *:* CIL module *
 0001:00001300       ?Initialize@Context@zmq@@SAXV?$Local@VObject@v8@@@v8@@@Z 0000000180002300 f   binding.obj
 0001:00001540       ??1Context@zmq@@UEAA@XZ    0000000180002540 f   binding.obj
 0001:000015f0       ??_EContext@zmq@@UEAAPEAXI@Z 00000001800025f0 f i * CIL library *:* CIL module *
 0001:000015f0       ??_GContext@zmq@@UEAAPEAXI@Z 00000001800025f0 f i binding.obj
 0001:00001630       ?New@Context@zmq@@CAXAEBV?$FunctionCallbackInfo@VValue@v8@@@Nan@@@Z 0000000180002630 f   binding.obj
 0001:00001800       ?Close@Context@zmq@@CAXAEBV?$FunctionCallbackInfo@VValue@v8@@@Nan@@@Z 0000000180002800 f   binding.obj
 0001:00001860       ?SetOpt@Context@zmq@@CAXAEBV?$FunctionCallbackInfo@VValue@v8@@@Nan@@@Z 0000000180002860 f   binding.obj
 0001:00001aa0       ?GetOpt@Context@zmq@@CAXAEBV?$FunctionCallbackInfo@VValue@v8@@@Nan@@@Z 0000000180002aa0 f   binding.obj
 0001:00001cb0       ?Initialize@Socket@zmq@@SAXV?$Local@VObject@v8@@@v8@@@Z 0000000180002cb0 f   binding.obj
 0001:000022d0       ??1Socket@zmq@@UEAA@XZ     00000001800032d0 f   binding.obj
 0001:000023b0       ??_ESocket@zmq@@UEAAPEAXI@Z 00000001800033b0 f i * CIL library *:* CIL module *
 0001:000023b0       ??_GSocket@zmq@@UEAAPEAXI@Z 00000001800033b0 f i binding.obj
 0001:000023f0       ?New@Socket@zmq@@CAXAEBV?$FunctionCallbackInfo@VValue@v8@@@Nan@@@Z 00000001800033f0 f   binding.obj
 0001:00002640       ?PollForEvents@Socket@zmq@@AEAAFXZ 0000000180003640 f   binding.obj
 0001:000026c0       ?NotifyReadReady@Socket@zmq@@QEAAXXZ 00000001800036c0 f   binding.obj
 0001:000027f0       ?NotifySendReady@Socket@zmq@@QEAAXXZ 00000001800037f0 f   binding.obj
 0001:00002920       ?UV_PollCallback@Socket@zmq@@CAXPEAUuv_poll_s@@HH@Z 0000000180003920 f   binding.obj
 0001:00002a00       ?MonitorEvent@Socket@zmq@@QEAAXGHPEAD@Z 0000000180003a00 f   binding.obj
 0001:00002d40       ?MonitorError@Socket@zmq@@QEAAXPEBD@Z 0000000180003d40 f   binding.obj
 0001:00002ee0       ?UV_MonitorCallback@Socket@zmq@@CAXPEAUuv_timer_s@@H@Z 0000000180003ee0 f   binding.obj
 0001:00003150       ??0Socket@zmq@@AEAA@PEAVContext@1@H@Z 0000000180004150 f   binding.obj
 0001:00003290       ?GetState@Socket@zmq@@CAXV?$Local@VString@v8@@@v8@@AEBV?$PropertyCallbackInfo@VValue@v8@@@Nan@@@Z 0000000180004290 f   binding.obj
 0001:00003350       ?GetPending@Socket@zmq@@CAXV?$Local@VString@v8@@@v8@@AEBV?$PropertyCallbackInfo@VValue@v8@@@Nan@@@Z 0000000180004350 f   binding.obj
 0001:000033a0       ?SetPending@Socket@zmq@@CAXV?$Local@VString@v8@@@v8@@V?$Local@VValue@v8@@@4@AEBV?$PropertyCallbackInfo@X@Nan@@@Z 00000001800043a0 f   binding.obj
 0001:000034f0       ??$GetSockOpt@PEAD@Socket@zmq@@AEAA?AV?$Local@VValue@v8@@@v8@@H@Z 00000001800044f0 f   binding.obj
 0001:00003670       ??$SetSockOpt@PEAD@Socket@zmq@@AEAA?AV?$Local@VValue@v8@@@v8@@HV23@@Z 0000000180004670 f   binding.obj
 0001:00003820       ?GetSockOpt@Socket@zmq@@CAXAEBV?$FunctionCallbackInfo@VValue@v8@@@Nan@@@Z 0000000180004820 f   binding.obj
 0001:00003b20       ?SetSockOpt@Socket@zmq@@CAXAEBV?$FunctionCallbackInfo@VValue@v8@@@Nan@@@Z 0000000180004b20 f   binding.obj
 0001:00003e70       ?AttachToEventLoop@Socket@zmq@@CAXAEBV?$FunctionCallbackInfo@VValue@v8@@@Nan@@@Z 0000000180004e70 f   binding.obj
 0001:00003f50       ?DetachFromEventLoop@Socket@zmq@@CAXAEBV?$FunctionCallbackInfo@VValue@v8@@@Nan@@@Z 0000000180004f50 f   binding.obj
 0001:00004030       ??0BindState@Socket@zmq@@QEAA@PEAV12@V?$Local@VFunction@v8@@@v8@@V?$Local@VString@v8@@@4@@Z 0000000180005030 f i binding.obj
 0001:00004110       ?Bind@Socket@zmq@@CAXAEBV?$FunctionCallbackInfo@VValue@v8@@@Nan@@@Z 0000000180005110 f   binding.obj
 0001:00004300       ?UV_BindAsync@Socket@zmq@@CAXPEAUuv_work_s@@@Z 0000000180005300 f   binding.obj
 0001:00004330       ?UV_BindAsyncAfter@Socket@zmq@@CAXPEAUuv_work_s@@@Z 0000000180005330 f   binding.obj
 0001:00004540       ?BindSync@Socket@zmq@@CAXAEBV?$FunctionCallbackInfo@VValue@v8@@@Nan@@@Z 0000000180005540 f   binding.obj
 0001:00004700       ?Unbind@Socket@zmq@@CAXAEBV?$FunctionCallbackInfo@VValue@v8@@@Nan@@@Z 0000000180005700 f   binding.obj
 0001:000048f0       ?UV_UnbindAsync@Socket@zmq@@CAXPEAUuv_work_s@@@Z 00000001800058f0 f   binding.obj
 0001:00004920       ?UV_UnbindAsyncAfter@Socket@zmq@@CAXPEAUuv_work_s@@@Z 0000000180005920 f   binding.obj
 0001:00004b30       ?UnbindSync@Socket@zmq@@CAXAEBV?$FunctionCallbackInfo@VValue@v8@@@Nan@@@Z 0000000180005b30 f   binding.obj
 0001:00004cf0       ?Connect@Socket@zmq@@CAXAEBV?$FunctionCallbackInfo@VValue@v8@@@Nan@@@Z 0000000180005cf0 f   binding.obj
 0001:00004ec0       ?Disconnect@Socket@zmq@@CAXAEBV?$FunctionCallbackInfo@VValue@v8@@@Nan@@@Z 0000000180005ec0 f   binding.obj
 0001:00005090       ?GetBuffer@IncomingMessage@Socket@zmq@@QEAA?AV?$Local@VValue@v8@@@v8@@XZ 0000000180006090 f i binding.obj
 0001:000051a0       ?FreeCallback@IncomingMessage@Socket@zmq@@CAXPEADPEAX@Z 00000001800061a0 f i binding.obj
 0001:000051e0       ?Monitor@Socket@zmq@@CAXAEBV?$FunctionCallbackInfo@VValue@v8@@@Nan@@@Z 00000001800061e0 f   binding.obj
 0001:00005550       ?Unmonitor@Socket@zmq@@AEAAXXZ 0000000180006550 f   binding.obj
 0001:000055c0       ?Unmonitor@Socket@zmq@@CAXAEBV?$FunctionCallbackInfo@VValue@v8@@@Nan@@@Z 00000001800065c0 f   binding.obj
 0001:00005640       ?Readv@Socket@zmq@@CAXAEBV?$FunctionCallbackInfo@VValue@v8@@@Nan@@@Z 0000000180006640 f   binding.obj
 0001:000059b0       ?Recv@Socket@zmq@@CAXAEBV?$FunctionCallbackInfo@VValue@v8@@@Nan@@@Z 00000001800069b0 f   binding.obj
 0001:00005cb0       ?Sendv@Socket@zmq@@CAXAEBV?$FunctionCallbackInfo@VValue@v8@@@Nan@@@Z 0000000180006cb0 f   binding.obj
 0001:00005ff0       ?Send@Socket@zmq@@CAXAEBV?$FunctionCallbackInfo@VValue@v8@@@Nan@@@Z 0000000180006ff0 f   binding.obj
 0001:00006250       ?Close@Socket@zmq@@AEAAXXZ 0000000180007250 f   binding.obj
 0001:000062f0       ?Close@Socket@zmq@@CAXAEBV?$FunctionCallbackInfo@VValue@v8@@@Nan@@@Z 00000001800072f0 f   binding.obj
 0001:00007cd0       init                       0000000180008cd0 f   binding.obj
 0001:00007cf0       ?count@?$_Tree@V?$_Tset_traits@HU?$less@H@std@@V?$allocator@H@2@$0A@@std@@@std@@QEBA_KAEBH@Z 0000000180008cf0 f i binding.obj
 0001:00007dd0       ?erase@?$_Tree@V?$_Tset_traits@HU?$less@H@std@@V?$allocator@H@2@$0A@@std@@@std@@QEAA?AV?$_Tree_const_iterator@V?$_Tree_val@U?$_Tree_simple_types@H@std@@@std@@@2@V32@0@Z 0000000180008dd0 f i binding.obj
 0001:00007eb0       ?clear@?$_Tree@V?$_Tset_traits@HU?$less@H@std@@V?$allocator@H@2@$0A@@std@@@std@@QEAAXXZ 0000000180008eb0 f i binding.obj
 0001:00007f20       ?erase@?$_Tree@V?$_Tset_traits@HU?$less@H@std@@V?$allocator@H@2@$0A@@std@@@std@@QEAA?AV?$_Tree_const_iterator@V?$_Tree_val@U?$_Tree_simple_types@H@std@@@std@@@2@V32@@Z 0000000180008f20 f i binding.obj
 0001:00008410       ?_Erase@?$_Tree@V?$_Tset_traits@HU?$less@H@std@@V?$allocator@H@2@$0A@@std@@@std@@IEAAXPEAU?$_Tree_node@HPEAX@2@@Z 0000000180009410 f i binding.obj
 0001:00008410       ?_Erase@?$_Tree@V?$_Tset_traits@PEAVpipe_t@zmq@@U?$less@PEAVpipe_t@zmq@@@std@@V?$allocator@PEAVpipe_t@zmq@@@4@$0A@@std@@@std@@IEAAXPEAU?$_Tree_node@PEAVpipe_t@zmq@@PEAX@2@@Z 0000000180009410 f i libzmq:session_base.obj
 0001:00008410       ?_Erase@?$_Tree@V?$_Tset_traits@PEAVown_t@zmq@@U?$less@PEAVown_t@zmq@@@std@@V?$allocator@PEAVown_t@zmq@@@4@$0A@@std@@@std@@IEAAXPEAU?$_Tree_node@PEAVown_t@zmq@@PEAX@2@@Z 0000000180009410 f i libzmq:own.obj
 0001:00008410       ?_Erase@?$_Tree@V?$_Tmap_traits@IUoutpipe_t@server_t@zmq@@U?$less@I@std@@V?$allocator@U?$pair@$$CBIUoutpipe_t@server_t@zmq@@@std@@@5@$0A@@std@@@std@@IEAAXPEAU?$_Tree_node@U?$pair@$$CBIUoutpipe_t@server_t@zmq@@@std@@PEAX@2@@Z 0000000180009410 f i libzmq:server.obj
 0001:00008410       ?_Erase@?$_Tree@V?$_Tmap_traits@_KUtimer_info_t@poller_base_t@zmq@@U?$less@_K@std@@V?$allocator@U?$pair@$$CB_KUtimer_info_t@poller_base_t@zmq@@@std@@@5@$00@std@@@std@@IEAAXPEAU?$_Tree_node@U?$pair@$$CB_KUtimer_info_t@poller_base_t@zmq@@@std@@PEAX@2@@Z 0000000180009410 f i libzmq:poller_base.obj
 0001:00008460       ??$Unwrap@VContext@zmq@@@ObjectWrap@Nan@@SAPEAVContext@zmq@@V?$Local@VObject@v8@@@v8@@@Z 0000000180009460 f i binding.obj
 0001:00008460       ??$Unwrap@VSocket@zmq@@@ObjectWrap@Nan@@SAPEAVSocket@zmq@@V?$Local@VObject@v8@@@v8@@@Z 0000000180009460 f i binding.obj
 0001:000084f0       ??$GetSockOpt@H@Socket@zmq@@AEAA?AV?$Local@VValue@v8@@@v8@@H@Z 00000001800094f0 f i binding.obj
 0001:00008650       ??$GetSockOpt@I@Socket@zmq@@AEAA?AV?$Local@VValue@v8@@@v8@@H@Z 0000000180009650 f i binding.obj
 0001:000087b0       ??$GetSockOpt@_J@Socket@zmq@@AEAA?AV?$Local@VValue@v8@@@v8@@H@Z 00000001800097b0 f i binding.obj
 0001:00008910       ??$GetSockOpt@_K@Socket@zmq@@AEAA?AV?$Local@VValue@v8@@@v8@@H@Z 0000000180009910 f i binding.obj
 0001:00008a80       ??$SetSockOpt@H@Socket@zmq@@AEAA?AV?$Local@VValue@v8@@@v8@@HV23@@Z 0000000180009a80 f i binding.obj
 0001:00008c70       ??$SetSockOpt@I@Socket@zmq@@AEAA?AV?$Local@VValue@v8@@@v8@@HV23@@Z 0000000180009c70 f i binding.obj
 0001:00008e60       ??$SetSockOpt@_J@Socket@zmq@@AEAA?AV?$Local@VValue@v8@@@v8@@HV23@@Z 0000000180009e60 f i binding.obj
 0001:00009050       ??$_snprintf_s@$0BA@@@YAHAEAY0BA@D_KPEBDZZ 000000018000a050 f i binding.obj
 0001:000090b0       __except_validate_context_record 000000018000a0b0 f i libvcruntime:jbcxrval.obj
 0001:000090b0       ?zap_msg_available@udp_engine_t@zmq@@UEAAXXZ 000000018000a0b0 f i libzmq:udp_engine.obj
 0001:000090b0       ?resize_buffer@raw_decoder_t@zmq@@UEAAX_K@Z 000000018000a0b0 f i libzmq:raw_decoder.obj
 0001:000090b0       ?xread_activated@pair_t@zmq@@UEAAXPEAVpipe_t@2@@Z 000000018000a0b0 f i libzmq:pair.obj
 0001:000090b0       ?_Lock@?$basic_streambuf@DU?$char_traits@D@std@@@std@@UEAAXXZ 000000018000a0b0 f i libzmq:tcp_address.obj
 0001:000090b0       ?reset@session_base_t@zmq@@UEAAXXZ 000000018000a0b0 f i libzmq:session_base.obj
 0001:000090b0       ?xwrite_activated@dgram_t@zmq@@UEAAXPEAVpipe_t@2@@Z 000000018000a0b0 f i libzmq:dgram.obj
 0001:000090b0       ?setSchedulingParameters@thread_t@zmq@@QEAAXHH@Z 000000018000a0b0 f i libzmq:thread.obj
 0001:000090b0       ??1clock_t@zmq@@QEAA@XZ    000000018000a0b0 f i libzmq:clock.obj
 0001:000090b0       _guard_check_icall_nop     000000018000a0b0 f i LIBCMT:guard_support.obj
 0001:000090b0       ??3@YAXPEAX0@Z             000000018000a0b0 f i libzmq:ctx.obj
 0001:000090b0       ?xwrite_activated@pair_t@zmq@@UEAAXPEAVpipe_t@2@@Z 000000018000a0b0 f i libzmq:pair.obj
 0001:000090b0       ?imbue@?$basic_streambuf@DU?$char_traits@D@std@@@std@@MEAAXAEBVlocale@2@@Z 000000018000a0b0 f i libzmq:tcp_address.obj
 0001:000090b0       ?xread_activated@dgram_t@zmq@@UEAAXPEAVpipe_t@2@@Z 000000018000a0b0 f i libzmq:dgram.obj
 0001:000090b0       ?_Unlock@?$basic_streambuf@DU?$char_traits@D@std@@@std@@UEAAXXZ 000000018000a0b0 f i libzmq:tcp_address.obj
 0001:000090b0       ??$destroy@PEAU?$_Tree_node@HPEAX@std@@@?$_Wrap_alloc@V?$allocator@U?$_Tree_node@HPEAX@std@@@std@@@std@@QEAAXPEAPEAU?$_Tree_node@HPEAX@1@@Z 000000018000a0b0 f i binding.obj
 0001:000090c0       ??$_Insert_nohint@HU_Nil@std@@@?$_Tree@V?$_Tset_traits@HU?$less@H@std@@V?$allocator@H@2@$0A@@std@@@std@@IEAA?AU?$pair@V?$_Tree_const_iterator@V?$_Tree_val@U?$_Tree_simple_types@H@std@@@std@@@std@@_N@1@_N$$QEAHU_Nil@1@@Z 000000018000a0c0 f i binding.obj
 0001:00009210       ??$SetMethodAux@V?$Local@VObject@v8@@@v8@@@imp@Nan@@YAXV?$Local@VObject@v8@@@v8@@V?$Local@VString@v8@@@3@V?$Local@VFunctionTemplate@v8@@@3@ZZ 000000018000a210 f i binding.obj
 0001:000092b0       ?setbuf@?$basic_streambuf@DU?$char_traits@D@std@@@std@@MEAAPEAV12@PEAD_J@Z 000000018000a2b0 f i libzmq:tcp_address.obj
 0001:000092b0       ??0?$_Wrap_alloc@V?$allocator@U?$_Tree_node@HPEAX@std@@@std@@@std@@QEAA@XZ 000000018000a2b0 f i binding.obj
 0001:000092c0       ??$_Insert_at@HU_Nil@std@@@?$_Tree@V?$_Tset_traits@HU?$less@H@std@@V?$allocator@H@2@$0A@@std@@@std@@IEAA?AV?$_Tree_const_iterator@V?$_Tree_val@U?$_Tree_simple_types@H@std@@@std@@@1@_NPEAU?$_Tree_node@HPEAX@1@$$QEAHU_Nil@1@@Z 000000018000a2c0 f i binding.obj
 0001:000095d0       ?_Copy@?$basic_string@DU?$char_traits@D@std@@V?$allocator@D@2@@std@@QEAAX_K0@Z 000000018000a5d0 f i libzmq:zmq.obj
 0001:00009770       ?allocate@?$_Wrap_alloc@V?$allocator@E@std@@@std@@QEAAPEAE_K@Z 000000018000a770 f i libzmq:pipe.obj
 0001:00009770       ?allocate@?$_Wrap_alloc@V?$allocator@D@std@@@std@@QEAAPEAD_K@Z 000000018000a770 f i libzmq:zmq.obj
 0001:00009770       ?allocate@?$allocator@D@std@@QEAAPEAD_K@Z 000000018000a770 f i libzmq:tcp_address.obj
 0001:000097e0       ?assign@?$basic_string@DU?$char_traits@D@std@@V?$allocator@D@2@@std@@QEAAAEAV12@AEBV12@_K1@Z 000000018000a7e0 f i libzmq:zmq.obj
 0001:00009910       ?assign@?$basic_string@DU?$char_traits@D@std@@V?$allocator@D@2@@std@@QEAAAEAV12@PEBD_K@Z 000000018000a910 f i libzmq:zmq.obj
 0001:00009a40       ?erase@?$basic_string@DU?$char_traits@D@std@@V?$allocator@D@2@@std@@QEAAAEAV12@_K0@Z 000000018000aa40 f i libzmq:zmq.obj
 0001:00009bb0       ?zmq_poller_add@@YAHPEAX00F@Z 000000018000abb0 f   libzmq:zmq.obj
 0001:00009c40       ?zmq_poller_add_fd@@YAHPEAX_K0F@Z 000000018000ac40 f   libzmq:zmq.obj
 0001:00009cb0       ?zmq_poller_destroy@@YAHPEAPEAX@Z 000000018000acb0 f   libzmq:zmq.obj
 0001:00009d20       ?zmq_poller_modify@@YAHPEAX0F@Z 000000018000ad20 f   libzmq:zmq.obj
 0001:00009dc0       ?zmq_poller_modify_fd@@YAHPEAX_KF@Z 000000018000adc0 f   libzmq:zmq.obj
 0001:00009e30       ?zmq_poller_new@@YAPEAXXZ  000000018000ae30 f   libzmq:zmq.obj
 0001:00009ec0       ?zmq_poller_poll@@YAHPEAUzmq_pollitem_t@@HJ@Z 000000018000aec0 f i libzmq:zmq.obj
 0001:0000a1a0       ?zmq_poller_wait_all@@YAHPEAXPEAUzmq_poller_event_t@@HJ@Z 000000018000b1a0 f   libzmq:zmq.obj
 0001:0000a270       fprintf                    000000018000b270 f i libzmq:zmq.obj
 0001:0000a2c0       zmq_bind                   000000018000b2c0 f   libzmq:zmq.obj
 0001:0000a310       zmq_close                  000000018000b310 f   libzmq:zmq.obj
 0001:0000a350       zmq_connect                000000018000b350 f   libzmq:zmq.obj
 0001:0000a3a0       zmq_ctx_get                000000018000b3a0 f   libzmq:zmq.obj
 0001:0000a3f0       zmq_ctx_new                000000018000b3f0 f   libzmq:zmq.obj
 0001:0000a570       zmq_ctx_set                000000018000b570 f   libzmq:zmq.obj
 0001:0000a5d0       zmq_ctx_term               000000018000b5d0 f   libzmq:zmq.obj
 0001:0000a6a0       zmq_errno                  000000018000b6a0 f   libzmq:zmq.obj
 0001:0000a6b0       zmq_getsockopt             000000018000b6b0 f   libzmq:zmq.obj
 0001:0000a720       zmq_init                   000000018000b720 f   libzmq:zmq.obj
 0001:0000a770       zmq_msg_close              000000018000b770 f   libzmq:zmq.obj
 0001:0000a780       zmq_msg_data               000000018000b780 f   libzmq:zmq.obj
 0001:0000a790       zmq_msg_get                000000018000b790 f   libzmq:zmq.obj
 0001:0000a810       zmq_msg_gets               000000018000b810 f   libzmq:zmq.obj
 0001:0000a920       zmq_msg_init               000000018000b920 f   libzmq:zmq.obj
 0001:0000a930       zmq_msg_init_size          000000018000b930 f   libzmq:zmq.obj
 0001:0000a940       zmq_msg_more               000000018000b940 f   libzmq:zmq.obj
 0001:0000a950       zmq_msg_recv               000000018000b950 f   libzmq:zmq.obj
 0001:0000a9c0       zmq_msg_send               000000018000b9c0 f   libzmq:zmq.obj
 0001:0000aa30       zmq_msg_size               000000018000ba30 f   libzmq:zmq.obj
 0001:0000aa40       zmq_poll                   000000018000ba40 f   libzmq:zmq.obj
 0001:0000aa50       zmq_recvmsg                000000018000ba50 f   libzmq:zmq.obj
 0001:0000aa60       zmq_sendmsg                000000018000ba60 f   libzmq:zmq.obj
 0001:0000aa70       zmq_setsockopt             000000018000ba70 f   libzmq:zmq.obj
 0001:0000aae0       zmq_socket                 000000018000bae0 f   libzmq:zmq.obj
 0001:0000ab30       zmq_socket_monitor         000000018000bb30 f   libzmq:zmq.obj
 0001:0000aba0       zmq_strerror               000000018000bba0 f   libzmq:zmq.obj
 0001:0000abb0       zmq_term                   000000018000bbb0 f   libzmq:zmq.obj
 0001:0000abc0       zmq_unbind                 000000018000bbc0 f   libzmq:zmq.obj
 0001:0000abc0       zmq_disconnect             000000018000bbc0 f   libzmq:zmq.obj
 0001:0000ac10       zmq_version                000000018000bc10 f   libzmq:zmq.obj
 0001:0000ac30       zmq_curve_keypair          000000018000bc30 f   libzmq:zmq_utils.obj
 0001:0000acb0       zmq_z85_decode             000000018000bcb0 f   libzmq:zmq_utils.obj
 0001:0000ada0       zmq_z85_encode             000000018000bda0 f   libzmq:zmq_utils.obj
 0001:0000ae90       ?errno_to_string@zmq@@YAPEBDH@Z 000000018000be90 f   libzmq:err.obj
 0001:0000afa0       ?win_error@zmq@@YAXPEAD_K@Z 000000018000bfa0 f   libzmq:err.obj
 0001:0000b040       ?wsa_error@zmq@@YAPEBDXZ   000000018000c040 f   libzmq:err.obj
 0001:0000b060       ?wsa_error_no@zmq@@YAPEBDHPEBD@Z 000000018000c060 f   libzmq:err.obj
 0001:0000b430       ?wsa_error_to_errno@zmq@@YAHH@Z 000000018000c430 f   libzmq:err.obj
 0001:0000b6a0       ?zmq_abort@zmq@@YAXPEBD@Z  000000018000c6a0 f   libzmq:err.obj
 0001:0000b6d0       ??$?0U?$_Wrap_alloc@V?$allocator@U?$_Tree_node@U?$pair@$$CBV?$basic_string@DU?$char_traits@D@std@@V?$allocator@D@2@@std@@Upending_connection_t@ctx_t@zmq@@@std@@PEAX@std@@@std@@@std@@@?$_Tree@V?$_Tmap_traits@V?$basic_string@DU?$char_traits@D@std@@V?$allocator@D@2@@std@@Upending_connection_t@ctx_t@zmq@@U?$less@V?$basic_string@DU?$char_traits@D@std@@V?$allocator@D@2@@std@@@2@V?$allocator@U?$pair@$$CBV?$basic_string@DU?$char_traits@D@std@@V?$allocator@D@2@@std@@Upending_connection_t@ctx_t@zmq@@@std@@@2@$00@std@@@std@@QEAA@AEBV01@$$QEAU?$_Wrap_alloc@V?$allocator@U?$_Tree_node@U?$pair@$$CBV?$basic_string@DU?$char_traits@D@std@@V?$allocator@D@2@@std@@Upending_connection_t@ctx_t@zmq@@@std@@PEAX@std@@@std@@@1@@Z 000000018000c6d0 f i libzmq:ctx.obj
 0001:0000b730       ??$?0V?$tuple@$$QEAV?$basic_string@DU?$char_traits@D@std@@V?$allocator@D@2@@std@@@std@@V?$tuple@$$V@1@$0A@$$Z$S@?$pair@$$CBV?$basic_string@DU?$char_traits@D@std@@V?$allocator@D@2@@std@@Uendpoint_t@zmq@@@std@@QEAA@AEAV?$tuple@$$QEAV?$basic_string@DU?$char_traits@D@std@@V?$allocator@D@2@@std@@@1@AEAV?$tuple@$$V@1@U?$integer_sequence@_K$0A@@1@U?$integer_sequence@_K$S@1@@Z 000000018000c730 f i libzmq:ctx.obj
 0001:0000b7b0       ??$?MDU?$char_traits@D@std@@V?$allocator@D@1@@std@@YA_NAEBV?$basic_string@DU?$char_traits@D@std@@V?$allocator@D@2@@0@0@Z 000000018000c7b0 f i libzmq:ctx.obj
 0001:0000b820       ??$_Buynode@AEAU?$pair@$$CBV?$basic_string@DU?$char_traits@D@std@@V?$allocator@D@2@@std@@Upending_connection_t@ctx_t@zmq@@@std@@@?$_Tree_comp_alloc@V?$_Tmap_traits@V?$basic_string@DU?$char_traits@D@std@@V?$allocator@D@2@@std@@Upending_connection_t@ctx_t@zmq@@U?$less@V?$basic_string@DU?$char_traits@D@std@@V?$allocator@D@2@@std@@@2@V?$allocator@U?$pair@$$CBV?$basic_string@DU?$char_traits@D@std@@V?$allocator@D@2@@std@@Upending_connection_t@ctx_t@zmq@@@std@@@2@$00@std@@@std@@QEAAPEAU?$_Tree_node@U?$pair@$$CBV?$basic_string@DU?$char_traits@D@std@@V?$allocator@D@2@@std@@Upending_connection_t@ctx_t@zmq@@@std@@PEAX@1@AEAU?$pair@$$CBV?$basic_string@DU?$char_traits@D@std@@V?$allocator@D@2@@std@@Upending_connection_t@ctx_t@zmq@@@1@@Z 000000018000c820 f i libzmq:ctx.obj
 0001:0000b880       ??$_Buynode@AEBUpiecewise_construct_t@std@@V?$tuple@$$QEAV?$basic_string@DU?$char_traits@D@std@@V?$allocator@D@2@@std@@@2@V?$tuple@$$V@2@@?$_Tree_comp_alloc@V?$_Tmap_traits@V?$basic_string@DU?$char_traits@D@std@@V?$allocator@D@2@@std@@Uendpoint_t@zmq@@U?$less@V?$basic_string@DU?$char_traits@D@std@@V?$allocator@D@2@@std@@@2@V?$allocator@U?$pair@$$CBV?$basic_string@DU?$char_traits@D@std@@V?$allocator@D@2@@std@@Uendpoint_t@zmq@@@std@@@2@$0A@@std@@@std@@QEAAPEAU?$_Tree_node@U?$pair@$$CBV?$basic_string@DU?$char_traits@D@std@@V?$allocator@D@2@@std@@Uendpoint_t@zmq@@@std@@PEAX@1@AEBUpiecewise_construct_t@1@$$QEAV?$tuple@$$QEAV?$basic_string@DU?$char_traits@D@std@@V?$allocator@D@2@@std@@@1@$$QEAV?$tuple@$$V@1@@Z 000000018000c880 f i libzmq:ctx.obj
 0001:0000b900       ??$_Buynode@U?$pair@$$CBV?$basic_string@DU?$char_traits@D@std@@V?$allocator@D@2@@std@@Uendpoint_t@zmq@@@std@@@?$_Tree_comp_alloc@V?$_Tmap_traits@V?$basic_string@DU?$char_traits@D@std@@V?$allocator@D@2@@std@@Uendpoint_t@zmq@@U?$less@V?$basic_string@DU?$char_traits@D@std@@V?$allocator@D@2@@std@@@2@V?$allocator@U?$pair@$$CBV?$basic_string@DU?$char_traits@D@std@@V?$allocator@D@2@@std@@Uendpoint_t@zmq@@@std@@@2@$0A@@std@@@std@@QEAAPEAU?$_Tree_node@U?$pair@$$CBV?$basic_string@DU?$char_traits@D@std@@V?$allocator@D@2@@std@@Uendpoint_t@zmq@@@std@@PEAX@1@$$QEAU?$pair@$$CBV?$basic_string@DU?$char_traits@D@std@@V?$allocator@D@2@@std@@Uendpoint_t@zmq@@@1@@Z 000000018000c900 f i libzmq:ctx.obj
 0001:0000b960       ??$_Buynode@U?$pair@$$CBV?$basic_string@DU?$char_traits@D@std@@V?$allocator@D@2@@std@@Upending_connection_t@ctx_t@zmq@@@std@@@?$_Tree_comp_alloc@V?$_Tmap_traits@V?$basic_string@DU?$char_traits@D@std@@V?$allocator@D@2@@std@@Upending_connection_t@ctx_t@zmq@@U?$less@V?$basic_string@DU?$char_traits@D@std@@V?$allocator@D@2@@std@@@2@V?$allocator@U?$pair@$$CBV?$basic_string@DU?$char_traits@D@std@@V?$allocator@D@2@@std@@Upending_connection_t@ctx_t@zmq@@@std@@@2@$00@std@@@std@@QEAAPEAU?$_Tree_node@U?$pair@$$CBV?$basic_string@DU?$char_traits@D@std@@V?$allocator@D@2@@std@@Upending_connection_t@ctx_t@zmq@@@std@@PEAX@1@$$QEAU?$pair@$$CBV?$basic_string@DU?$char_traits@D@std@@V?$allocator@D@2@@std@@Upending_connection_t@ctx_t@zmq@@@1@@Z 000000018000c960 f i libzmq:ctx.obj
 0001:0000b9c0       ??$_Copy@U_Copy_tag@?$_Tree@V?$_Tmap_traits@V?$basic_string@DU?$char_traits@D@std@@V?$allocator@D@2@@std@@Upending_connection_t@ctx_t@zmq@@U?$less@V?$basic_string@DU?$char_traits@D@std@@V?$allocator@D@2@@std@@@2@V?$allocator@U?$pair@$$CBV?$basic_string@DU?$char_traits@D@std@@V?$allocator@D@2@@std@@Upending_connection_t@ctx_t@zmq@@@std@@@2@$00@std@@@std@@@?$_Tree@V?$_Tmap_traits@V?$basic_string@DU?$char_traits@D@std@@V?$allocator@D@2@@std@@Upending_connection_t@ctx_t@zmq@@U?$less@V?$basic_string@DU?$char_traits@D@std@@V?$allocator@D@2@@std@@@2@V?$allocator@U?$pair@$$CBV?$basic_string@DU?$char_traits@D@std@@V?$allocator@D@2@@std@@Upending_connection_t@ctx_t@zmq@@@std@@@2@$00@std@@@std@@IEAAXAEBV01@U_Copy_tag@01@@Z 000000018000c9c0 f i libzmq:ctx.obj
 0001:0000ba70       ??$_Copy_nodes@U_Copy_tag@?$_Tree@V?$_Tmap_traits@V?$basic_string@DU?$char_traits@D@std@@V?$allocator@D@2@@std@@Upending_connection_t@ctx_t@zmq@@U?$less@V?$basic_string@DU?$char_traits@D@std@@V?$allocator@D@2@@std@@@2@V?$allocator@U?$pair@$$CBV?$basic_string@DU?$char_traits@D@std@@V?$allocator@D@2@@std@@Upending_connection_t@ctx_t@zmq@@@std@@@2@$00@std@@@std@@@?$_Tree@V?$_Tmap_traits@V?$basic_string@DU?$char_traits@D@std@@V?$allocator@D@2@@std@@Upending_connection_t@ctx_t@zmq@@U?$less@V?$basic_string@DU?$char_traits@D@std@@V?$allocator@D@2@@std@@@2@V?$allocator@U?$pair@$$CBV?$basic_string@DU?$char_traits@D@std@@V?$allocator@D@2@@std@@Upending_connection_t@ctx_t@zmq@@@std@@@2@$00@std@@@std@@IEAAPEAU?$_Tree_node@U?$pair@$$CBV?$basic_string@DU?$char_traits@D@std@@V?$allocator@D@2@@std@@Upending_connection_t@ctx_t@zmq@@@std@@PEAX@1@PEAU21@0U_Copy_tag@01@@Z 000000018000ca70 f i libzmq:ctx.obj
 0001:0000bb10       ??$_Destroy_range@V?$allocator@Vtcp_address_mask_t@zmq@@@std@@PEAVtcp_address_mask_t@zmq@@@std@@YAXPEAVtcp_address_mask_t@zmq@@0AEAU?$_Wrap_alloc@V?$allocator@Vtcp_address_mask_t@zmq@@@std@@@0@@Z 000000018000cb10 f i libzmq:ctx.obj
 0001:0000bb50       ??$_Insert_at@AEAU?$pair@$$CBV?$basic_string@DU?$char_traits@D@std@@V?$allocator@D@2@@std@@Uendpoint_t@zmq@@@std@@PEAU?$_Tree_node@U?$pair@$$CBV?$basic_string@DU?$char_traits@D@std@@V?$allocator@D@2@@std@@Uendpoint_t@zmq@@@std@@PEAX@2@@?$_Tree@V?$_Tmap_traits@V?$basic_string@DU?$char_traits@D@std@@V?$allocator@D@2@@std@@Uendpoint_t@zmq@@U?$less@V?$basic_string@DU?$char_traits@D@std@@V?$allocator@D@2@@std@@@2@V?$allocator@U?$pair@$$CBV?$basic_string@DU?$char_traits@D@std@@V?$allocator@D@2@@std@@Uendpoint_t@zmq@@@std@@@2@$0A@@std@@@std@@IEAA?AV?$_Tree_iterator@V?$_Tree_val@U?$_Tree_simple_types@U?$pair@$$CBV?$basic_string@DU?$char_traits@D@std@@V?$allocator@D@2@@std@@Uendpoint_t@zmq@@@std@@@std@@@std@@@1@_NPEAU?$_Tree_node@U?$pair@$$CBV?$basic_string@DU?$char_traits@D@std@@V?$allocator@D@2@@std@@Uendpoint_t@zmq@@@std@@PEAX@1@AEAU?$pair@$$CBV?$basic_string@DU?$char_traits@D@std@@V?$allocator@D@2@@std@@Uendpoint_t@zmq@@@1@1@Z 000000018000cb50 f i libzmq:ctx.obj
 0001:0000be00       ??$_Insert_at@U?$pair@$$CBV?$basic_string@DU?$char_traits@D@std@@V?$allocator@D@2@@std@@Uendpoint_t@zmq@@@std@@U_Nil@2@@?$_Tree@V?$_Tmap_traits@V?$basic_string@DU?$char_traits@D@std@@V?$allocator@D@2@@std@@Uendpoint_t@zmq@@U?$less@V?$basic_string@DU?$char_traits@D@std@@V?$allocator@D@2@@std@@@2@V?$allocator@U?$pair@$$CBV?$basic_string@DU?$char_traits@D@std@@V?$allocator@D@2@@std@@Uendpoint_t@zmq@@@std@@@2@$0A@@std@@@std@@IEAA?AV?$_Tree_iterator@V?$_Tree_val@U?$_Tree_simple_types@U?$pair@$$CBV?$basic_string@DU?$char_traits@D@std@@V?$allocator@D@2@@std@@Uendpoint_t@zmq@@@std@@@std@@@std@@@1@_NPEAU?$_Tree_node@U?$pair@$$CBV?$basic_string@DU?$char_traits@D@std@@V?$allocator@D@2@@std@@Uendpoint_t@zmq@@@std@@PEAX@1@$$QEAU?$pair@$$CBV?$basic_string@DU?$char_traits@D@std@@V?$allocator@D@2@@std@@Uendpoint_t@zmq@@@1@U_Nil@1@@Z 000000018000ce00 f i libzmq:ctx.obj
 0001:0000c0d0       ??$_Insert_at@U?$pair@$$CBV?$basic_string@DU?$char_traits@D@std@@V?$allocator@D@2@@std@@Upending_connection_t@ctx_t@zmq@@@std@@U_Nil@2@@?$_Tree@V?$_Tmap_traits@V?$basic_string@DU?$char_traits@D@std@@V?$allocator@D@2@@std@@Upending_connection_t@ctx_t@zmq@@U?$less@V?$basic_string@DU?$char_traits@D@std@@V?$allocator@D@2@@std@@@2@V?$allocator@U?$pair@$$CBV?$basic_string@DU?$char_traits@D@std@@V?$allocator@D@2@@std@@Upending_connection_t@ctx_t@zmq@@@std@@@2@$00@std@@@std@@IEAA?AV?$_Tree_iterator@V?$_Tree_val@U?$_Tree_simple_types@U?$pair@$$CBV?$basic_string@DU?$char_traits@D@std@@V?$allocator@D@2@@std@@Upending_connection_t@ctx_t@zmq@@@std@@@std@@@std@@@1@_NPEAU?$_Tree_node@U?$pair@$$CBV?$basic_string@DU?$char_traits@D@std@@V?$allocator@D@2@@std@@Upending_connection_t@ctx_t@zmq@@@std@@PEAX@1@$$QEAU?$pair@$$CBV?$basic_string@DU?$char_traits@D@std@@V?$allocator@D@2@@std@@Upending_connection_t@ctx_t@zmq@@@1@U_Nil@1@@Z 000000018000d0d0 f i libzmq:ctx.obj
 0001:0000c3a0       ??$_Insert_hint@AEAU?$pair@$$CBV?$basic_string@DU?$char_traits@D@std@@V?$allocator@D@2@@std@@Uendpoint_t@zmq@@@std@@PEAU?$_Tree_node@U?$pair@$$CBV?$basic_string@DU?$char_traits@D@std@@V?$allocator@D@2@@std@@Uendpoint_t@zmq@@@std@@PEAX@2@@?$_Tree@V?$_Tmap_traits@V?$basic_string@DU?$char_traits@D@std@@V?$allocator@D@2@@std@@Uendpoint_t@zmq@@U?$less@V?$basic_string@DU?$char_traits@D@std@@V?$allocator@D@2@@std@@@2@V?$allocator@U?$pair@$$CBV?$basic_string@DU?$char_traits@D@std@@V?$allocator@D@2@@std@@Uendpoint_t@zmq@@@std@@@2@$0A@@std@@@std@@IEAA?AV?$_Tree_iterator@V?$_Tree_val@U?$_Tree_simple_types@U?$pair@$$CBV?$basic_string@DU?$char_traits@D@std@@V?$allocator@D@2@@std@@Uendpoint_t@zmq@@@std@@@std@@@std@@@1@V?$_Tree_const_iterator@V?$_Tree_val@U?$_Tree_simple_types@U?$pair@$$CBV?$basic_string@DU?$char_traits@D@std@@V?$allocator@D@2@@std@@Uendpoint_t@zmq@@@std@@@std@@@std@@@1@AEAU?$pair@$$CBV?$basic_string@DU?$char_traits@D@std@@V?$allocator@D@2@@std@@Uendpoint_t@zmq@@@1@PEAU?$_Tree_node@U?$pair@$$CBV?$basic_string@DU?$char_traits@D@std@@V?$allocator@D@2@@std@@Uendpoint_t@zmq@@@std@@PEAX@1@@Z 000000018000d3a0 f i libzmq:ctx.obj
 0001:0000c660       ??$_Insert_nohint@AEAU?$pair@$$CBV?$basic_string@DU?$char_traits@D@std@@V?$allocator@D@2@@std@@Uendpoint_t@zmq@@@std@@PEAU?$_Tree_node@U?$pair@$$CBV?$basic_string@DU?$char_traits@D@std@@V?$allocator@D@2@@std@@Uendpoint_t@zmq@@@std@@PEAX@2@@?$_Tree@V?$_Tmap_traits@V?$basic_string@DU?$char_traits@D@std@@V?$allocator@D@2@@std@@Uendpoint_t@zmq@@U?$less@V?$basic_string@DU?$char_traits@D@std@@V?$allocator@D@2@@std@@@2@V?$allocator@U?$pair@$$CBV?$basic_string@DU?$char_traits@D@std@@V?$allocator@D@2@@std@@Uendpoint_t@zmq@@@std@@@2@$0A@@std@@@std@@IEAA?AU?$pair@V?$_Tree_iterator@V?$_Tree_val@U?$_Tree_simple_types@U?$pair@$$CBV?$basic_string@DU?$char_traits@D@std@@V?$allocator@D@2@@std@@Uendpoint_t@zmq@@@std@@@std@@@std@@@std@@_N@1@_NAEAU?$pair@$$CBV?$basic_string@DU?$char_traits@D@std@@V?$allocator@D@2@@std@@Uendpoint_t@zmq@@@1@PEAU?$_Tree_node@U?$pair@$$CBV?$basic_string@DU?$char_traits@D@std@@V?$allocator@D@2@@std@@Uendpoint_t@zmq@@@std@@PEAX@1@@Z 000000018000d660 f i libzmq:ctx.obj
 0001:0000c8e0       ??$_Insert_nohint@U?$pair@$$CBV?$basic_string@DU?$char_traits@D@std@@V?$allocator@D@2@@std@@Uendpoint_t@zmq@@@std@@U_Nil@2@@?$_Tree@V?$_Tmap_traits@V?$basic_string@DU?$char_traits@D@std@@V?$allocator@D@2@@std@@Uendpoint_t@zmq@@U?$less@V?$basic_string@DU?$char_traits@D@std@@V?$allocator@D@2@@std@@@2@V?$allocator@U?$pair@$$CBV?$basic_string@DU?$char_traits@D@std@@V?$allocator@D@2@@std@@Uendpoint_t@zmq@@@std@@@2@$0A@@std@@@std@@IEAA?AU?$pair@V?$_Tree_iterator@V?$_Tree_val@U?$_Tree_simple_types@U?$pair@$$CBV?$basic_string@DU?$char_traits@D@std@@V?$allocator@D@2@@std@@Uendpoint_t@zmq@@@std@@@std@@@std@@@std@@_N@1@_N$$QEAU?$pair@$$CBV?$basic_string@DU?$char_traits@D@std@@V?$allocator@D@2@@std@@Uendpoint_t@zmq@@@1@U_Nil@1@@Z 000000018000d8e0 f i libzmq:ctx.obj
 0001:0000cb40       ??$_Insert_nohint@U?$pair@$$CBV?$basic_string@DU?$char_traits@D@std@@V?$allocator@D@2@@std@@Upending_connection_t@ctx_t@zmq@@@std@@U_Nil@2@@?$_Tree@V?$_Tmap_traits@V?$basic_string@DU?$char_traits@D@std@@V?$allocator@D@2@@std@@Upending_connection_t@ctx_t@zmq@@U?$less@V?$basic_string@DU?$char_traits@D@std@@V?$allocator@D@2@@std@@@2@V?$allocator@U?$pair@$$CBV?$basic_string@DU?$char_traits@D@std@@V?$allocator@D@2@@std@@Upending_connection_t@ctx_t@zmq@@@std@@@2@$00@std@@@std@@IEAA?AU?$pair@V?$_Tree_iterator@V?$_Tree_val@U?$_Tree_simple_types@U?$pair@$$CBV?$basic_string@DU?$char_traits@D@std@@V?$allocator@D@2@@std@@Upending_connection_t@ctx_t@zmq@@@std@@@std@@@std@@@std@@_N@1@_N$$QEAU?$pair@$$CBV?$basic_string@DU?$char_traits@D@std@@V?$allocator@D@2@@std@@Upending_connection_t@ctx_t@zmq@@@1@U_Nil@1@@Z 000000018000db40 f i libzmq:ctx.obj
 0001:0000ccb0       ??$_Uninitialized_copy_al_unchecked1@PEBVtcp_address_mask_t@zmq@@PEAV12@V?$allocator@Vtcp_address_mask_t@zmq@@@std@@@std@@YAPEAVtcp_address_mask_t@zmq@@PEBV12@0PEAV12@AEAU?$_Wrap_alloc@V?$allocator@Vtcp_address_mask_t@zmq@@@std@@@0@U_General_ptr_iterator_tag@0@U_Any_tag@0@@Z 000000018000dcb0 f i libzmq:ctx.obj
 0001:0000cd60       ??$construct@U?$pair@$$CBV?$basic_string@DU?$char_traits@D@std@@V?$allocator@D@2@@std@@Uendpoint_t@zmq@@@std@@U12@@?$_Wrap_alloc@V?$allocator@U?$_Tree_node@U?$pair@$$CBV?$basic_string@DU?$char_traits@D@std@@V?$allocator@D@2@@std@@Uendpoint_t@zmq@@@std@@PEAX@std@@@std@@@std@@QEAAXPEAU?$pair@$$CBV?$basic_string@DU?$char_traits@D@std@@V?$allocator@D@2@@std@@Uendpoint_t@zmq@@@1@$$QEAU21@@Z 000000018000dd60 f i libzmq:ctx.obj
 0001:0000cde0       ??0?$pair@$$CBV?$basic_string@DU?$char_traits@D@std@@V?$allocator@D@2@@std@@Upending_connection_t@ctx_t@zmq@@@std@@QEAA@$$QEAU01@@Z 000000018000dde0 f i libzmq:ctx.obj
 0001:0000ce50       ??0?$pair@$$CBV?$basic_string@DU?$char_traits@D@std@@V?$allocator@D@2@@std@@Upending_connection_t@ctx_t@zmq@@@std@@QEAA@AEBU01@@Z 000000018000de50 f i libzmq:ctx.obj
 0001:0000cef0       ??0?$vector@Vtcp_address_mask_t@zmq@@V?$allocator@Vtcp_address_mask_t@zmq@@@std@@@std@@QEAA@AEBV01@@Z 000000018000def0 f i libzmq:ctx.obj
 0001:0000cfd0       ??0ctx_t@zmq@@QEAA@XZ      000000018000dfd0 f   libzmq:ctx.obj
 0001:0000d120       ??0options_t@zmq@@QEAA@$$QEAU01@@Z 000000018000e120 f i libzmq:ctx.obj
 0001:0000d530       ??0options_t@zmq@@QEAA@AEBU01@@Z 000000018000e530 f i libzmq:ctx.obj
 0001:0000d990       ??1?$map@V?$basic_string@DU?$char_traits@D@std@@V?$allocator@D@2@@std@@Uendpoint_t@zmq@@U?$less@V?$basic_string@DU?$char_traits@D@std@@V?$allocator@D@2@@std@@@2@V?$allocator@U?$pair@$$CBV?$basic_string@DU?$char_traits@D@std@@V?$allocator@D@2@@std@@Uendpoint_t@zmq@@@std@@@2@@std@@QEAA@XZ 000000018000e990 f i libzmq:ctx.obj
 0001:0000d9d0       ??1?$multimap@V?$basic_string@DU?$char_traits@D@std@@V?$allocator@D@2@@std@@Upending_connection_t@ctx_t@zmq@@U?$less@V?$basic_string@DU?$char_traits@D@std@@V?$allocator@D@2@@std@@@2@V?$allocator@U?$pair@$$CBV?$basic_string@DU?$char_traits@D@std@@V?$allocator@D@2@@std@@Upending_connection_t@ctx_t@zmq@@@std@@@2@@std@@QEAA@XZ 000000018000e9d0 f i libzmq:ctx.obj
 0001:0000da10       ??1?$pair@$$CBV?$basic_string@DU?$char_traits@D@std@@V?$allocator@D@2@@std@@Upending_connection_t@ctx_t@zmq@@@std@@QEAA@XZ 000000018000ea10 f i libzmq:ctx.obj
 0001:0000da10       ??1?$pair@$$CBV?$basic_string@DU?$char_traits@D@std@@V?$allocator@D@2@@std@@Uendpoint_t@zmq@@@std@@QEAA@XZ 000000018000ea10 f i libzmq:ctx.obj
 0001:0000da80       ??1?$vector@IV?$allocator@I@std@@@std@@QEAA@XZ 000000018000ea80 f i libzmq:ctx.obj
 0001:0000dac0       ??1?$vector@Vtcp_address_mask_t@zmq@@V?$allocator@Vtcp_address_mask_t@zmq@@@std@@@std@@QEAA@XZ 000000018000eac0 f i libzmq:ctx.obj
 0001:0000dad0       ??1ctx_t@zmq@@QEAA@XZ      000000018000ead0 f   libzmq:ctx.obj
 0001:0000de30       ??1mutex_t@zmq@@QEAA@XZ    000000018000ee30 f i libzmq:ctx.obj
 0001:0000de30       _Mtxdst                    000000018000ee30 f i libcpmt:xmtx.obj
 0001:0000de40       ??1endpoint_t@zmq@@QEAA@XZ 000000018000ee40 f i libzmq:ctx.obj
 0001:0000de40       ??1pending_connection_t@ctx_t@zmq@@QEAA@XZ 000000018000ee40 f i libzmq:ctx.obj
 0001:0000deb0       ??1scoped_lock_t@zmq@@QEAA@XZ 000000018000eeb0 f i libzmq:ctx.obj
 0001:0000dec0       ??_Gtcp_address_mask_t@zmq@@UEAAPEAXI@Z 000000018000eec0 f i libzmq:ctx.obj
 0001:0000dec0       ??_Etcp_address_mask_t@zmq@@UEAAPEAXI@Z 000000018000eec0 f i libzmq:ctx.obj
 0001:0000df00       ??_Gtcp_address_t@zmq@@UEAAPEAXI@Z 000000018000ef00 f i libzmq:ctx.obj
 0001:0000df00       ??_Etcp_address_t@zmq@@UEAAPEAXI@Z 000000018000ef00 f i libzmq:ctx.obj
 0001:0000df40       ?_Assign_rv@?$basic_string@DU?$char_traits@D@std@@V?$allocator@D@2@@std@@QEAAX$$QEAV12@@Z 000000018000ef40 f i libzmq:ctx.obj
 0001:0000dfc0       ?_Buyheadnode@?$_Tree_comp_alloc@V?$_Tmap_traits@V?$basic_string@DU?$char_traits@D@std@@V?$allocator@D@2@@std@@Uendpoint_t@zmq@@U?$less@V?$basic_string@DU?$char_traits@D@std@@V?$allocator@D@2@@std@@@2@V?$allocator@U?$pair@$$CBV?$basic_string@DU?$char_traits@D@std@@V?$allocator@D@2@@std@@Uendpoint_t@zmq@@@std@@@2@$0A@@std@@@std@@QEAAPEAU?$_Tree_node@U?$pair@$$CBV?$basic_string@DU?$char_traits@D@std@@V?$allocator@D@2@@std@@Uendpoint_t@zmq@@@std@@PEAX@2@XZ 000000018000efc0 f i libzmq:ctx.obj
 0001:0000e020       ?_Buyheadnode@?$_Tree_comp_alloc@V?$_Tmap_traits@V?$basic_string@DU?$char_traits@D@std@@V?$allocator@D@2@@std@@Upending_connection_t@ctx_t@zmq@@U?$less@V?$basic_string@DU?$char_traits@D@std@@V?$allocator@D@2@@std@@@2@V?$allocator@U?$pair@$$CBV?$basic_string@DU?$char_traits@D@std@@V?$allocator@D@2@@std@@Upending_connection_t@ctx_t@zmq@@@std@@@2@$00@std@@@std@@QEAAPEAU?$_Tree_node@U?$pair@$$CBV?$basic_string@DU?$char_traits@D@std@@V?$allocator@D@2@@std@@Upending_connection_t@ctx_t@zmq@@@std@@PEAX@2@XZ 000000018000f020 f i libzmq:ctx.obj
 0001:0000e080       ?_Buynode0@?$_Tree_comp_alloc@V?$_Tmap_traits@V?$basic_string@DU?$char_traits@D@std@@V?$allocator@D@2@@std@@Uendpoint_t@zmq@@U?$less@V?$basic_string@DU?$char_traits@D@std@@V?$allocator@D@2@@std@@@2@V?$allocator@U?$pair@$$CBV?$basic_string@DU?$char_traits@D@std@@V?$allocator@D@2@@std@@Uendpoint_t@zmq@@@std@@@2@$0A@@std@@@std@@QEAAPEAU?$_Tree_node@U?$pair@$$CBV?$basic_string@DU?$char_traits@D@std@@V?$allocator@D@2@@std@@Uendpoint_t@zmq@@@std@@PEAX@2@XZ 000000018000f080 f i libzmq:ctx.obj
 0001:0000e0e0       ?_Buynode0@?$_Tree_comp_alloc@V?$_Tmap_traits@V?$basic_string@DU?$char_traits@D@std@@V?$allocator@D@2@@std@@Upending_connection_t@ctx_t@zmq@@U?$less@V?$basic_string@DU?$char_traits@D@std@@V?$allocator@D@2@@std@@@2@V?$allocator@U?$pair@$$CBV?$basic_string@DU?$char_traits@D@std@@V?$allocator@D@2@@std@@Upending_connection_t@ctx_t@zmq@@@std@@@2@$00@std@@@std@@QEAAPEAU?$_Tree_node@U?$pair@$$CBV?$basic_string@DU?$char_traits@D@std@@V?$allocator@D@2@@std@@Upending_connection_t@ctx_t@zmq@@@std@@PEAX@2@XZ 000000018000f0e0 f i libzmq:ctx.obj
 0001:0000e140       ?_Erase@?$_Tree@V?$_Tmap_traits@V?$basic_string@DU?$char_traits@D@std@@V?$allocator@D@2@@std@@Uendpoint_t@zmq@@U?$less@V?$basic_string@DU?$char_traits@D@std@@V?$allocator@D@2@@std@@@2@V?$allocator@U?$pair@$$CBV?$basic_string@DU?$char_traits@D@std@@V?$allocator@D@2@@std@@Uendpoint_t@zmq@@@std@@@2@$0A@@std@@@std@@IEAAXPEAU?$_Tree_node@U?$pair@$$CBV?$basic_string@DU?$char_traits@D@std@@V?$allocator@D@2@@std@@Uendpoint_t@zmq@@@std@@PEAX@2@@Z 000000018000f140 f i libzmq:ctx.obj
 0001:0000e670       ?_Erase@?$_Tree@V?$_Tmap_traits@V?$basic_string@DU?$char_traits@D@std@@V?$allocator@D@2@@std@@Upending_connection_t@ctx_t@zmq@@U?$less@V?$basic_string@DU?$char_traits@D@std@@V?$allocator@D@2@@std@@@2@V?$allocator@U?$pair@$$CBV?$basic_string@DU?$char_traits@D@std@@V?$allocator@D@2@@std@@Upending_connection_t@ctx_t@zmq@@@std@@@2@$00@std@@@std@@IEAAXPEAU?$_Tree_node@U?$pair@$$CBV?$basic_string@DU?$char_traits@D@std@@V?$allocator@D@2@@std@@Upending_connection_t@ctx_t@zmq@@@std@@PEAX@2@@Z 000000018000f670 f i libzmq:ctx.obj
 0001:0000eb20       ?_Reallocate@?$vector@IV?$allocator@I@std@@@std@@IEAAX_K@Z 000000018000fb20 f i libzmq:ctx.obj
 0001:0000ebb0       ?_Reallocate@?$vector@PEAVio_thread_t@zmq@@V?$allocator@PEAVio_thread_t@zmq@@@std@@@std@@IEAAX_K@Z 000000018000fbb0 f i libzmq:ctx.obj
 0001:0000ec40       ?_Reallocate@?$vector@PEAVsocket_base_t@zmq@@V?$allocator@PEAVsocket_base_t@zmq@@@std@@@std@@IEAAX_K@Z 000000018000fc40 f i libzmq:ctx.obj
 0001:0000ecd0       ?_Reserve@?$vector@IV?$allocator@I@std@@@std@@IEAAX_K@Z 000000018000fcd0 f i libzmq:ctx.obj
 0001:0000ed60       ?_Reserve@?$vector@PEAVio_thread_t@zmq@@V?$allocator@PEAVio_thread_t@zmq@@@std@@@std@@IEAAX_K@Z 000000018000fd60 f i libzmq:ctx.obj
 0001:0000edf0       ?_Reserve@?$vector@PEAVsocket_base_t@zmq@@V?$allocator@PEAVsocket_base_t@zmq@@@std@@@std@@IEAAX_K@Z 000000018000fdf0 f i libzmq:ctx.obj
 0001:0000ee80       ?_Tidy@?$vector@Vtcp_address_mask_t@zmq@@V?$allocator@Vtcp_address_mask_t@zmq@@@std@@@std@@IEAAXXZ 000000018000fe80 f i libzmq:ctx.obj
 0001:0000ef00       ?allocate@?$allocator@I@std@@QEAAPEAI_K@Z 000000018000ff00 f i libzmq:ctx.obj
 0001:0000ef80       ?allocate@?$allocator@PEAVio_thread_t@zmq@@@std@@QEAAPEAPEAVio_thread_t@zmq@@_K@Z 000000018000ff80 f i libzmq:ctx.obj
 0001:0000ef80       ?allocate@?$allocator@PEAVsocket_base_t@zmq@@@std@@QEAAPEAPEAVsocket_base_t@zmq@@_K@Z 000000018000ff80 f i libzmq:ctx.obj
 0001:0000ef80       ?allocate@?$allocator@PEAVsignaler_t@zmq@@@std@@QEAAPEAPEAVsignaler_t@zmq@@_K@Z 000000018000ff80 f i libzmq:mailbox_safe.obj
 0001:0000ef80       ?allocate@?$allocator@PEAVpipe_t@zmq@@@std@@QEAAPEAPEAVpipe_t@zmq@@_K@Z 000000018000ff80 f i libzmq:socket_base.obj
 0001:0000f000       ?allocate@?$allocator@Vtcp_address_mask_t@zmq@@@std@@QEAAPEAVtcp_address_mask_t@zmq@@_K@Z 0000000180010000 f i libzmq:ctx.obj
 0001:0000f080       ?check_tag@ctx_t@zmq@@QEAA_NXZ 0000000180010080 f   libzmq:ctx.obj
 0001:0000f090       ?choose_io_thread@ctx_t@zmq@@QEAAPEAVio_thread_t@2@_K@Z 0000000180010090 f   libzmq:ctx.obj
 0001:0000f140       ?clipped_maxsocket@@YAHH@Z 0000000180010140 f   libzmq:ctx.obj
 0001:0000f170       ?connect_inproc_sockets@ctx_t@zmq@@AEAAXPEAVsocket_base_t@2@AEAUoptions_t@2@AEBUpending_connection_t@12@W4side@12@@Z 0000000180010170 f   libzmq:ctx.obj
 0001:0000f4a0       ?connect_pending@ctx_t@zmq@@QEAAXPEBDPEAVsocket_base_t@2@@Z 00000001800104a0 f   libzmq:ctx.obj
 0001:0000f7e0       ?create_socket@ctx_t@zmq@@QEAAPEAVsocket_base_t@2@H@Z 00000001800107e0 f   libzmq:ctx.obj
 0001:0000fe00       ?deallocate@?$allocator@I@std@@QEAAXPEAI_K@Z 0000000180010e00 f i libzmq:ctx.obj
 0001:0000fe70       ?deallocate@?$allocator@Vtcp_address_mask_t@zmq@@@std@@QEAAXPEAVtcp_address_mask_t@zmq@@_K@Z 0000000180010e70 f i libzmq:ctx.obj
 0001:0000fee0       ?destroy_socket@ctx_t@zmq@@QEAAXPEAVsocket_base_t@2@@Z 0000000180010ee0 f   libzmq:ctx.obj
 0001:00010030       ?erase@?$_Tree@V?$_Tmap_traits@V?$basic_string@DU?$char_traits@D@std@@V?$allocator@D@2@@std@@Uendpoint_t@zmq@@U?$less@V?$basic_string@DU?$char_traits@D@std@@V?$allocator@D@2@@std@@@2@V?$allocator@U?$pair@$$CBV?$basic_string@DU?$char_traits@D@std@@V?$allocator@D@2@@std@@Uendpoint_t@zmq@@@std@@@2@$0A@@std@@@std@@QEAA?AV?$_Tree_iterator@V?$_Tree_val@U?$_Tree_simple_types@U?$pair@$$CBV?$basic_string@DU?$char_traits@D@std@@V?$allocator@D@2@@std@@Uendpoint_t@zmq@@@std@@@std@@@std@@@2@V?$_Tree_const_iterator@V?$_Tree_val@U?$_Tree_simple_types@U?$pair@$$CBV?$basic_string@DU?$char_traits@D@std@@V?$allocator@D@2@@std@@Uendpoint_t@zmq@@@std@@@std@@@std@@@2@0@Z 0000000180011030 f i libzmq:ctx.obj
 0001:00010120       ?erase@?$_Tree@V?$_Tmap_traits@V?$basic_string@DU?$char_traits@D@std@@V?$allocator@D@2@@std@@Uendpoint_t@zmq@@U?$less@V?$basic_string@DU?$char_traits@D@std@@V?$allocator@D@2@@std@@@2@V?$allocator@U?$pair@$$CBV?$basic_string@DU?$char_traits@D@std@@V?$allocator@D@2@@std@@Uendpoint_t@zmq@@@std@@@2@$0A@@std@@@std@@QEAA?AV?$_Tree_iterator@V?$_Tree_val@U?$_Tree_simple_types@U?$pair@$$CBV?$basic_string@DU?$char_traits@D@std@@V?$allocator@D@2@@std@@Uendpoint_t@zmq@@@std@@@std@@@std@@@2@V?$_Tree_const_iterator@V?$_Tree_val@U?$_Tree_simple_types@U?$pair@$$CBV?$basic_string@DU?$char_traits@D@std@@V?$allocator@D@2@@std@@Uendpoint_t@zmq@@@std@@@std@@@std@@@2@@Z 0000000180011120 f i libzmq:ctx.obj
 0001:00010920       ?erase@?$_Tree@V?$_Tmap_traits@V?$basic_string@DU?$char_traits@D@std@@V?$allocator@D@2@@std@@Upending_connection_t@ctx_t@zmq@@U?$less@V?$basic_string@DU?$char_traits@D@std@@V?$allocator@D@2@@std@@@2@V?$allocator@U?$pair@$$CBV?$basic_string@DU?$char_traits@D@std@@V?$allocator@D@2@@std@@Upending_connection_t@ctx_t@zmq@@@std@@@2@$00@std@@@std@@QEAA?AV?$_Tree_iterator@V?$_Tree_val@U?$_Tree_simple_types@U?$pair@$$CBV?$basic_string@DU?$char_traits@D@std@@V?$allocator@D@2@@std@@Upending_connection_t@ctx_t@zmq@@@std@@@std@@@std@@@2@V?$_Tree_const_iterator@V?$_Tree_val@U?$_Tree_simple_types@U?$pair@$$CBV?$basic_string@DU?$char_traits@D@std@@V?$allocator@D@2@@std@@Upending_connection_t@ctx_t@zmq@@@std@@@std@@@std@@@2@0@Z 0000000180011920 f i libzmq:ctx.obj
 0001:00010a10       ?erase@?$_Tree@V?$_Tmap_traits@V?$basic_string@DU?$char_traits@D@std@@V?$allocator@D@2@@std@@Upending_connection_t@ctx_t@zmq@@U?$less@V?$basic_string@DU?$char_traits@D@std@@V?$allocator@D@2@@std@@@2@V?$allocator@U?$pair@$$CBV?$basic_string@DU?$char_traits@D@std@@V?$allocator@D@2@@std@@Upending_connection_t@ctx_t@zmq@@@std@@@2@$00@std@@@std@@QEAA?AV?$_Tree_iterator@V?$_Tree_val@U?$_Tree_simple_types@U?$pair@$$CBV?$basic_string@DU?$char_traits@D@std@@V?$allocator@D@2@@std@@Upending_connection_t@ctx_t@zmq@@@std@@@std@@@std@@@2@V?$_Tree_const_iterator@V?$_Tree_val@U?$_Tree_simple_types@U?$pair@$$CBV?$basic_string@DU?$char_traits@D@std@@V?$allocator@D@2@@std@@Upending_connection_t@ctx_t@zmq@@@std@@@std@@@std@@@2@@Z 0000000180011a10 f i libzmq:ctx.obj
 0001:00011210       ?find_endpoint@ctx_t@zmq@@QEAA?AUendpoint_t@2@PEBD@Z 0000000180012210 f   libzmq:ctx.obj
 0001:000115b0       ?get@ctx_t@zmq@@QEAAHH@Z   00000001800125b0 f   libzmq:ctx.obj
 0001:00011640       ?get_reaper@ctx_t@zmq@@QEAAPEAVobject_t@2@XZ 0000000180012640 f   libzmq:ctx.obj
 0001:00011650       ?pend_connection@ctx_t@zmq@@QEAAXAEBV?$basic_string@DU?$char_traits@D@std@@V?$allocator@D@2@@std@@AEBUendpoint_t@2@PEAPEAVpipe_t@2@@Z 0000000180012650 f   libzmq:ctx.obj
 0001:000118b0       ?register_endpoint@ctx_t@zmq@@QEAAHPEBDAEBUendpoint_t@2@@Z 00000001800128b0 f   libzmq:ctx.obj
 0001:00011aa0       ?send_command@ctx_t@zmq@@QEAAXIAEBUcommand_t@2@@Z 0000000180012aa0 f   libzmq:ctx.obj
 0001:00011ac0       ?set@ctx_t@zmq@@QEAAHHH@Z  0000000180012ac0 f   libzmq:ctx.obj
 0001:00011cd0       ?start_thread@ctx_t@zmq@@QEBAXAEAVthread_t@2@P6AXPEAX@Z1@Z 0000000180012cd0 f   libzmq:ctx.obj
 0001:00011d10       ?terminate@ctx_t@zmq@@QEAAHXZ 0000000180012d10 f   libzmq:ctx.obj
 0001:00012070       ?unregister_endpoint@ctx_t@zmq@@QEAAHAEBV?$basic_string@DU?$char_traits@D@std@@V?$allocator@D@2@@std@@PEAVsocket_base_t@2@@Z 0000000180013070 f   libzmq:ctx.obj
 0001:00012120       ?unregister_endpoints@ctx_t@zmq@@QEAAXPEAVsocket_base_t@2@@Z 0000000180013120 f   libzmq:ctx.obj
 0001:00012260       ??$?0U?$_Wrap_alloc@V?$allocator@U?$_Tree_node@U?$pair@$$CBV?$basic_string@DU?$char_traits@D@std@@V?$allocator@D@2@@std@@V12@@std@@PEAX@std@@@std@@@std@@@?$_Tree@V?$_Tmap_traits@V?$basic_string@DU?$char_traits@D@std@@V?$allocator@D@2@@std@@V12@U?$less@V?$basic_string@DU?$char_traits@D@std@@V?$allocator@D@2@@std@@@2@V?$allocator@U?$pair@$$CBV?$basic_string@DU?$char_traits@D@std@@V?$allocator@D@2@@std@@V12@@std@@@2@$0A@@std@@@std@@QEAA@AEBV01@$$QEAU?$_Wrap_alloc@V?$allocator@U?$_Tree_node@U?$pair@$$CBV?$basic_string@DU?$char_traits@D@std@@V?$allocator@D@2@@std@@V12@@std@@PEAX@std@@@std@@@1@@Z 0000000180013260 f i libzmq:metadata.obj
 0001:000122c0       ??$_Buynode@AEAU?$pair@$$CBV?$basic_string@DU?$char_traits@D@std@@V?$allocator@D@2@@std@@V12@@std@@@?$_Tree_comp_alloc@V?$_Tmap_traits@V?$basic_string@DU?$char_traits@D@std@@V?$allocator@D@2@@std@@V12@U?$less@V?$basic_string@DU?$char_traits@D@std@@V?$allocator@D@2@@std@@@2@V?$allocator@U?$pair@$$CBV?$basic_string@DU?$char_traits@D@std@@V?$allocator@D@2@@std@@V12@@std@@@2@$0A@@std@@@std@@QEAAPEAU?$_Tree_node@U?$pair@$$CBV?$basic_string@DU?$char_traits@D@std@@V?$allocator@D@2@@std@@V12@@std@@PEAX@1@AEAU?$pair@$$CBV?$basic_string@DU?$char_traits@D@std@@V?$allocator@D@2@@std@@V12@@1@@Z 00000001800132c0 f i libzmq:metadata.obj
 0001:00012320       ??$_Copy@U_Copy_tag@?$_Tree@V?$_Tmap_traits@V?$basic_string@DU?$char_traits@D@std@@V?$allocator@D@2@@std@@V12@U?$less@V?$basic_string@DU?$char_traits@D@std@@V?$allocator@D@2@@std@@@2@V?$allocator@U?$pair@$$CBV?$basic_string@DU?$char_traits@D@std@@V?$allocator@D@2@@std@@V12@@std@@@2@$0A@@std@@@std@@@?$_Tree@V?$_Tmap_traits@V?$basic_string@DU?$char_traits@D@std@@V?$allocator@D@2@@std@@V12@U?$less@V?$basic_string@DU?$char_traits@D@std@@V?$allocator@D@2@@std@@@2@V?$allocator@U?$pair@$$CBV?$basic_string@DU?$char_traits@D@std@@V?$allocator@D@2@@std@@V12@@std@@@2@$0A@@std@@@std@@IEAAXAEBV01@U_Copy_tag@01@@Z 0000000180013320 f i libzmq:metadata.obj
 0001:000123d0       ??$_Copy_nodes@U_Copy_tag@?$_Tree@V?$_Tmap_traits@V?$basic_string@DU?$char_traits@D@std@@V?$allocator@D@2@@std@@V12@U?$less@V?$basic_string@DU?$char_traits@D@std@@V?$allocator@D@2@@std@@@2@V?$allocator@U?$pair@$$CBV?$basic_string@DU?$char_traits@D@std@@V?$allocator@D@2@@std@@V12@@std@@@2@$0A@@std@@@std@@@?$_Tree@V?$_Tmap_traits@V?$basic_string@DU?$char_traits@D@std@@V?$allocator@D@2@@std@@V12@U?$less@V?$basic_string@DU?$char_traits@D@std@@V?$allocator@D@2@@std@@@2@V?$allocator@U?$pair@$$CBV?$basic_string@DU?$char_traits@D@std@@V?$allocator@D@2@@std@@V12@@std@@@2@$0A@@std@@@std@@IEAAPEAU?$_Tree_node@U?$pair@$$CBV?$basic_string@DU?$char_traits@D@std@@V?$allocator@D@2@@std@@V12@@std@@PEAX@1@PEAU21@0U_Copy_tag@01@@Z 00000001800133d0 f i libzmq:metadata.obj
 0001:00012470       ??0?$pair@$$CBV?$basic_string@DU?$char_traits@D@std@@V?$allocator@D@2@@std@@V12@@std@@QEAA@AEBU01@@Z 0000000180013470 f i libzmq:metadata.obj
 0001:00012510       ??0metadata_t@zmq@@QEAA@AEBV?$map@V?$basic_string@DU?$char_traits@D@std@@V?$allocator@D@2@@std@@V12@U?$less@V?$basic_string@DU?$char_traits@D@std@@V?$allocator@D@2@@std@@@2@V?$allocator@U?$pair@$$CBV?$basic_string@DU?$char_traits@D@std@@V?$allocator@D@2@@std@@V12@@std@@@2@@std@@@Z 0000000180013510 f   libzmq:metadata.obj
 0001:00012540       ??1?$_Tree_comp_alloc@V?$_Tmap_traits@V?$basic_string@DU?$char_traits@D@std@@V?$allocator@D@2@@std@@Upending_connection_t@ctx_t@zmq@@U?$less@V?$basic_string@DU?$char_traits@D@std@@V?$allocator@D@2@@std@@@2@V?$allocator@U?$pair@$$CBV?$basic_string@DU?$char_traits@D@std@@V?$allocator@D@2@@std@@Upending_connection_t@ctx_t@zmq@@@std@@@2@$00@std@@@std@@QEAA@XZ 0000000180013540 f i libzmq:ctx.obj
 0001:00012540       ??1?$_Tree_comp_alloc@V?$_Tmap_traits@V?$basic_string@DU?$char_traits@D@std@@V?$allocator@D@2@@std@@V12@U?$less@V?$basic_string@DU?$char_traits@D@std@@V?$allocator@D@2@@std@@@2@V?$allocator@U?$pair@$$CBV?$basic_string@DU?$char_traits@D@std@@V?$allocator@D@2@@std@@V12@@std@@@2@$0A@@std@@@std@@QEAA@XZ 0000000180013540 f i libzmq:metadata.obj
 0001:00012550       ?_Buyheadnode@?$_Tree_comp_alloc@V?$_Tmap_traits@V?$basic_string@DU?$char_traits@D@std@@V?$allocator@D@2@@std@@V12@U?$less@V?$basic_string@DU?$char_traits@D@std@@V?$allocator@D@2@@std@@@2@V?$allocator@U?$pair@$$CBV?$basic_string@DU?$char_traits@D@std@@V?$allocator@D@2@@std@@V12@@std@@@2@$0A@@std@@@std@@QEAAPEAU?$_Tree_node@U?$pair@$$CBV?$basic_string@DU?$char_traits@D@std@@V?$allocator@D@2@@std@@V12@@std@@PEAX@2@XZ 0000000180013550 f i libzmq:metadata.obj
 0001:000125b0       ?_Buynode0@?$_Tree_comp_alloc@V?$_Tmap_traits@V?$basic_string@DU?$char_traits@D@std@@V?$allocator@D@2@@std@@V12@U?$less@V?$basic_string@DU?$char_traits@D@std@@V?$allocator@D@2@@std@@@2@V?$allocator@U?$pair@$$CBV?$basic_string@DU?$char_traits@D@std@@V?$allocator@D@2@@std@@V12@@std@@@2@$0A@@std@@@std@@QEAAPEAU?$_Tree_node@U?$pair@$$CBV?$basic_string@DU?$char_traits@D@std@@V?$allocator@D@2@@std@@V12@@std@@PEAX@2@XZ 00000001800135b0 f i libzmq:metadata.obj
 0001:00012610       ?_Erase@?$_Tree@V?$_Tmap_traits@V?$basic_string@DU?$char_traits@D@std@@V?$allocator@D@2@@std@@V12@U?$less@V?$basic_string@DU?$char_traits@D@std@@V?$allocator@D@2@@std@@@2@V?$allocator@U?$pair@$$CBV?$basic_string@DU?$char_traits@D@std@@V?$allocator@D@2@@std@@V12@@std@@@2@$0A@@std@@@std@@IEAAXPEAU?$_Tree_node@U?$pair@$$CBV?$basic_string@DU?$char_traits@D@std@@V?$allocator@D@2@@std@@V12@@std@@PEAX@2@@Z 0000000180013610 f i libzmq:metadata.obj
 0001:00012790       ?_Rrotate@?$_Tree@V?$_Tset_traits@PEAVpipe_t@zmq@@U?$less@PEAVpipe_t@zmq@@@std@@V?$allocator@PEAVpipe_t@zmq@@@4@$0A@@std@@@std@@IEAAXPEAU?$_Tree_node@PEAVpipe_t@zmq@@PEAX@2@@Z 0000000180013790 f i libzmq:session_base.obj
 0001:00012790       ?_Rrotate@?$_Tree@V?$_Tmap_traits@V?$basic_string@DU?$char_traits@D@std@@V?$allocator@D@2@@std@@Upending_connection_t@ctx_t@zmq@@U?$less@V?$basic_string@DU?$char_traits@D@std@@V?$allocator@D@2@@std@@@2@V?$allocator@U?$pair@$$CBV?$basic_string@DU?$char_traits@D@std@@V?$allocator@D@2@@std@@Upending_connection_t@ctx_t@zmq@@@std@@@2@$00@std@@@std@@IEAAXPEAU?$_Tree_node@U?$pair@$$CBV?$basic_string@DU?$char_traits@D@std@@V?$allocator@D@2@@std@@Upending_connection_t@ctx_t@zmq@@@std@@PEAX@2@@Z 0000000180013790 f i libzmq:ctx.obj
 0001:00012790       ?_Rrotate@?$_Tree@V?$_Tmap_traits@GUfamily_entry_t@select_t@zmq@@U?$less@G@std@@V?$allocator@U?$pair@$$CBGUfamily_entry_t@select_t@zmq@@@std@@@5@$0A@@std@@@std@@IEAAXPEAU?$_Tree_node@U?$pair@$$CBGUfamily_entry_t@select_t@zmq@@@std@@PEAX@2@@Z 0000000180013790 f i libzmq:select.obj
 0001:00012790       ?_Rrotate@?$_Tree@V?$_Tmap_traits@V?$basic_string@DU?$char_traits@D@std@@V?$allocator@D@2@@std@@U?$pair@PEAVown_t@zmq@@PEAVpipe_t@2@@2@U?$less@V?$basic_string@DU?$char_traits@D@std@@V?$allocator@D@2@@std@@@2@V?$allocator@U?$pair@$$CBV?$basic_string@DU?$char_traits@D@std@@V?$allocator@D@2@@std@@U?$pair@PEAVown_t@zmq@@PEAVpipe_t@2@@2@@std@@@2@$00@std@@@std@@IEAAXPEAU?$_Tree_node@U?$pair@$$CBV?$basic_string@DU?$char_traits@D@std@@V?$allocator@D@2@@std@@U?$pair@PEAVown_t@zmq@@PEAVpipe_t@2@@2@@std@@PEAX@2@@Z 0000000180013790 f i libzmq:socket_base.obj
 0001:00012790       ?_Rrotate@?$_Tree@V?$_Tmap_traits@V?$basic_string@DU?$char_traits@D@std@@V?$allocator@D@2@@std@@V12@U?$less@V?$basic_string@DU?$char_traits@D@std@@V?$allocator@D@2@@std@@@2@V?$allocator@U?$pair@$$CBV?$basic_string@DU?$char_traits@D@std@@V?$allocator@D@2@@std@@V12@@std@@@2@$0A@@std@@@std@@IEAAXPEAU?$_Tree_node@U?$pair@$$CBV?$basic_string@DU?$char_traits@D@std@@V?$allocator@D@2@@std@@V12@@std@@PEAX@2@@Z 0000000180013790 f i libzmq:metadata.obj
 0001:00012790       ?_Rrotate@?$_Tree@V?$_Tmap_traits@V?$basic_string@DU?$char_traits@D@std@@V?$allocator@D@2@@std@@Uendpoint_t@zmq@@U?$less@V?$basic_string@DU?$char_traits@D@std@@V?$allocator@D@2@@std@@@2@V?$allocator@U?$pair@$$CBV?$basic_string@DU?$char_traits@D@std@@V?$allocator@D@2@@std@@Uendpoint_t@zmq@@@std@@@2@$0A@@std@@@std@@IEAAXPEAU?$_Tree_node@U?$pair@$$CBV?$basic_string@DU?$char_traits@D@std@@V?$allocator@D@2@@std@@Uendpoint_t@zmq@@@std@@PEAX@2@@Z 0000000180013790 f i libzmq:ctx.obj
 0001:00012790       ?_Rrotate@?$_Tree@V?$_Tmap_traits@V?$basic_string@DU?$char_traits@D@std@@V?$allocator@D@2@@std@@PEAVpipe_t@zmq@@U?$less@V?$basic_string@DU?$char_traits@D@std@@V?$allocator@D@2@@std@@@2@V?$allocator@U?$pair@$$CBV?$basic_string@DU?$char_traits@D@std@@V?$allocator@D@2@@std@@PEAVpipe_t@zmq@@@std@@@2@$00@std@@@std@@IEAAXPEAU?$_Tree_node@U?$pair@$$CBV?$basic_string@DU?$char_traits@D@std@@V?$allocator@D@2@@std@@PEAVpipe_t@zmq@@@std@@PEAX@2@@Z 0000000180013790 f i libzmq:socket_base.obj
 0001:00012790       ?_Rrotate@?$_Tree@V?$_Tmap_traits@V?$basic_string@EU?$char_traits@E@std@@V?$allocator@E@2@@std@@Uoutpipe_t@stream_t@zmq@@U?$less@V?$basic_string@EU?$char_traits@E@std@@V?$allocator@E@2@@std@@@2@V?$allocator@U?$pair@$$CBV?$basic_string@EU?$char_traits@E@std@@V?$allocator@E@2@@std@@Uoutpipe_t@stream_t@zmq@@@std@@@2@$0A@@std@@@std@@IEAAXPEAU?$_Tree_node@U?$pair@$$CBV?$basic_string@EU?$char_traits@E@std@@V?$allocator@E@2@@std@@Uoutpipe_t@stream_t@zmq@@@std@@PEAX@2@@Z 0000000180013790 f i libzmq:stream.obj
 0001:00012790       ?_Rrotate@?$_Tree@V?$_Tset_traits@V?$basic_string@DU?$char_traits@D@std@@V?$allocator@D@2@@std@@U?$less@V?$basic_string@DU?$char_traits@D@std@@V?$allocator@D@2@@std@@@2@V?$allocator@V?$basic_string@DU?$char_traits@D@std@@V?$allocator@D@2@@std@@@2@$0A@@std@@@std@@IEAAXPEAU?$_Tree_node@V?$basic_string@DU?$char_traits@D@std@@V?$allocator@D@2@@std@@PEAX@2@@Z 0000000180013790 f i libzmq:dish.obj
 0001:00012790       ?_Rrotate@?$_Tree@V?$_Tmap_traits@V?$basic_string@EU?$char_traits@E@std@@V?$allocator@E@2@@std@@Uoutpipe_t@router_t@zmq@@U?$less@V?$basic_string@EU?$char_traits@E@std@@V?$allocator@E@2@@std@@@2@V?$allocator@U?$pair@$$CBV?$basic_string@EU?$char_traits@E@std@@V?$allocator@E@2@@std@@Uoutpipe_t@router_t@zmq@@@std@@@2@$0A@@std@@@std@@IEAAXPEAU?$_Tree_node@U?$pair@$$CBV?$basic_string@EU?$char_traits@E@std@@V?$allocator@E@2@@std@@Uoutpipe_t@router_t@zmq@@@std@@PEAX@2@@Z 0000000180013790 f i libzmq:router.obj
 0001:00012790       ?_Rrotate@?$_Tree@V?$_Tmap_traits@IUoutpipe_t@server_t@zmq@@U?$less@I@std@@V?$allocator@U?$pair@$$CBIUoutpipe_t@server_t@zmq@@@std@@@5@$0A@@std@@@std@@IEAAXPEAU?$_Tree_node@U?$pair@$$CBIUoutpipe_t@server_t@zmq@@@std@@PEAX@2@@Z 0000000180013790 f i libzmq:server.obj
 0001:00012790       ?_Rrotate@?$_Tree@V?$_Tset_traits@PEAVown_t@zmq@@U?$less@PEAVown_t@zmq@@@std@@V?$allocator@PEAVown_t@zmq@@@4@$0A@@std@@@std@@IEAAXPEAU?$_Tree_node@PEAVown_t@zmq@@PEAX@2@@Z 0000000180013790 f i libzmq:own.obj
 0001:00012790       ?_Rrotate@?$_Tree@V?$_Tmap_traits@_KUtimer_info_t@poller_base_t@zmq@@U?$less@_K@std@@V?$allocator@U?$pair@$$CB_KUtimer_info_t@poller_base_t@zmq@@@std@@@5@$00@std@@@std@@IEAAXPEAU?$_Tree_node@U?$pair@$$CB_KUtimer_info_t@poller_base_t@zmq@@@std@@PEAX@2@@Z 0000000180013790 f i libzmq:poller_base.obj
 0001:000127f0       ?add_ref@metadata_t@zmq@@QEAAXXZ 00000001800137f0 f   libzmq:metadata.obj
 0001:00012800       ?drop_ref@metadata_t@zmq@@QEAA_NXZ 0000000180013800 f   libzmq:metadata.obj
 0001:00012810       ?erase@?$_Tree@V?$_Tmap_traits@V?$basic_string@DU?$char_traits@D@std@@V?$allocator@D@2@@std@@V12@U?$less@V?$basic_string@DU?$char_traits@D@std@@V?$allocator@D@2@@std@@@2@V?$allocator@U?$pair@$$CBV?$basic_string@DU?$char_traits@D@std@@V?$allocator@D@2@@std@@V12@@std@@@2@$0A@@std@@@std@@QEAA?AV?$_Tree_iterator@V?$_Tree_val@U?$_Tree_simple_types@U?$pair@$$CBV?$basic_string@DU?$char_traits@D@std@@V?$allocator@D@2@@std@@V12@@std@@@std@@@std@@@2@V?$_Tree_const_iterator@V?$_Tree_val@U?$_Tree_simple_types@U?$pair@$$CBV?$basic_string@DU?$char_traits@D@std@@V?$allocator@D@2@@std@@V12@@std@@@std@@@std@@@2@0@Z 0000000180013810 f i libzmq:metadata.obj
 0001:00012900       ?erase@?$_Tree@V?$_Tmap_traits@V?$basic_string@DU?$char_traits@D@std@@V?$allocator@D@2@@std@@V12@U?$less@V?$basic_string@DU?$char_traits@D@std@@V?$allocator@D@2@@std@@@2@V?$allocator@U?$pair@$$CBV?$basic_string@DU?$char_traits@D@std@@V?$allocator@D@2@@std@@V12@@std@@@2@$0A@@std@@@std@@QEAA?AV?$_Tree_iterator@V?$_Tree_val@U?$_Tree_simple_types@U?$pair@$$CBV?$basic_string@DU?$char_traits@D@std@@V?$allocator@D@2@@std@@V12@@std@@@std@@@std@@@2@V?$_Tree_const_iterator@V?$_Tree_val@U?$_Tree_simple_types@U?$pair@$$CBV?$basic_string@DU?$char_traits@D@std@@V?$allocator@D@2@@std@@V12@@std@@@std@@@std@@@2@@Z 0000000180013900 f i libzmq:metadata.obj
 0001:00012de0       ?get@metadata_t@zmq@@QEBAPEBDAEBV?$basic_string@DU?$char_traits@D@std@@V?$allocator@D@2@@std@@@Z 0000000180013de0 f   libzmq:metadata.obj
 0001:00012e50       ?add_refs@msg_t@zmq@@QEAAXH@Z 0000000180013e50 f   libzmq:msg.obj
 0001:00012f50       ?check@msg_t@zmq@@QEAA_NXZ 0000000180013f50 f   libzmq:msg.obj
 0001:00012f60       ?close@msg_t@zmq@@QEAAHXZ  0000000180013f60 f   libzmq:msg.obj
 0001:000130d0       ?copy@msg_t@zmq@@QEAAHAEAV12@@Z 00000001800140d0 f   libzmq:msg.obj
 0001:000131c0       ?data@msg_t@zmq@@QEAAPEAXXZ 00000001800141c0 f   libzmq:msg.obj
 0001:000132c0       ?flags@msg_t@zmq@@QEAAEXZ  00000001800142c0 f   libzmq:msg.obj
 0001:000132d0       ?get_routing_id@msg_t@zmq@@QEAAIXZ 00000001800142d0 f   libzmq:msg.obj
 0001:000132e0       ?group@msg_t@zmq@@QEAAPEBDXZ 00000001800142e0 f   libzmq:msg.obj
 0001:000132f0       ?init@msg_t@zmq@@QEAAHPEAX_KP6AX00@Z0PEAUcontent_t@12@@Z 00000001800142f0 f   libzmq:msg.obj
 0001:000133b0       ?init@msg_t@zmq@@QEAAHXZ   00000001800143b0 f   libzmq:msg.obj
 0001:000133d0       ?init_data@msg_t@zmq@@QEAAHPEAX_KP6AX00@Z0@Z 00000001800143d0 f   libzmq:msg.obj
 0001:000134e0       ?init_delimiter@msg_t@zmq@@QEAAHXZ 00000001800144e0 f   libzmq:msg.obj
 0001:00013500       ?init_external_storage@msg_t@zmq@@QEAAHPEAUcontent_t@12@PEAX_KP6AX11@Z1@Z 0000000180014500 f   libzmq:msg.obj
 0001:00013620       ?init_join@msg_t@zmq@@QEAAHXZ 0000000180014620 f   libzmq:msg.obj
 0001:00013640       ?init_leave@msg_t@zmq@@QEAAHXZ 0000000180014640 f   libzmq:msg.obj
 0001:00013660       ?init_size@msg_t@zmq@@QEAAH_K@Z 0000000180014660 f   libzmq:msg.obj
 0001:00013730       ?is_cmsg@msg_t@zmq@@QEBA_NXZ 0000000180014730 f   libzmq:msg.obj
 0001:00013740       ?is_credential@msg_t@zmq@@QEBA_NXZ 0000000180014740 f   libzmq:msg.obj
 0001:00013750       ?is_delimiter@msg_t@zmq@@QEBA_NXZ 0000000180014750 f   libzmq:msg.obj
 0001:00013760       ?is_identity@msg_t@zmq@@QEBA_NXZ 0000000180014760 f   libzmq:msg.obj
 0001:00013770       ?is_join@msg_t@zmq@@QEBA_NXZ 0000000180014770 f   libzmq:msg.obj
 0001:00013780       ?is_leave@msg_t@zmq@@QEBA_NXZ 0000000180014780 f   libzmq:msg.obj
 0001:00013790       ?is_vsm@msg_t@zmq@@QEBA_NXZ 0000000180014790 f   libzmq:msg.obj
 0001:000137a0       ?is_zcmsg@msg_t@zmq@@QEBA_NXZ 00000001800147a0 f   libzmq:msg.obj
 0001:000137b0       ?metadata@msg_t@zmq@@QEBAPEAVmetadata_t@2@XZ 00000001800147b0 f   libzmq:msg.obj
 0001:000137c0       ?move@msg_t@zmq@@QEAAHAEAV12@@Z 00000001800147c0 f   libzmq:msg.obj
 0001:00013840       ?refcnt@msg_t@zmq@@AEAAPEAVatomic_counter_t@2@XZ 0000000180014840 f   libzmq:msg.obj
 0001:000138c0       ?reset_flags@msg_t@zmq@@QEAAXE@Z 00000001800148c0 f   libzmq:msg.obj
 0001:000138d0       ?reset_metadata@msg_t@zmq@@QEAAXXZ 00000001800148d0 f   libzmq:msg.obj
 0001:00013960       ?reset_routing_id@msg_t@zmq@@QEAAHXZ 0000000180014960 f   libzmq:msg.obj
 0001:00013970       ?rm_refs@msg_t@zmq@@QEAA_NH@Z 0000000180014970 f   libzmq:msg.obj
 0001:00013af0       ?set_flags@msg_t@zmq@@QEAAXE@Z 0000000180014af0 f   libzmq:msg.obj
 0001:00013b00       ?set_group@msg_t@zmq@@QEAAHPEBD@Z 0000000180014b00 f   libzmq:msg.obj
 0001:00013b20       ?set_group@msg_t@zmq@@QEAAHPEBD_K@Z 0000000180014b20 f   libzmq:msg.obj
 0001:00013b70       ?set_metadata@msg_t@zmq@@QEAAXPEAVmetadata_t@2@@Z 0000000180014b70 f   libzmq:msg.obj
 0001:00013ba0       ?set_routing_id@msg_t@zmq@@QEAAHI@Z 0000000180014ba0 f   libzmq:msg.obj
 0001:00013bd0       ?size@msg_t@zmq@@QEAA_KXZ  0000000180014bd0 f   libzmq:msg.obj
 0001:00013cd0       ??$_Buynode@U?$pair@$$CBV?$basic_string@DU?$char_traits@D@std@@V?$allocator@D@2@@std@@PEAVpipe_t@zmq@@@std@@@?$_Tree_comp_alloc@V?$_Tmap_traits@V?$basic_string@DU?$char_traits@D@std@@V?$allocator@D@2@@std@@PEAVpipe_t@zmq@@U?$less@V?$basic_string@DU?$char_traits@D@std@@V?$allocator@D@2@@std@@@2@V?$allocator@U?$pair@$$CBV?$basic_string@DU?$char_traits@D@std@@V?$allocator@D@2@@std@@PEAVpipe_t@zmq@@@std@@@2@$00@std@@@std@@QEAAPEAU?$_Tree_node@U?$pair@$$CBV?$basic_string@DU?$char_traits@D@std@@V?$allocator@D@2@@std@@PEAVpipe_t@zmq@@@std@@PEAX@1@$$QEAU?$pair@$$CBV?$basic_string@DU?$char_traits@D@std@@V?$allocator@D@2@@std@@PEAVpipe_t@zmq@@@1@@Z 0000000180014cd0 f i libzmq:socket_base.obj
 0001:00013d30       ??$_Buynode@U?$pair@$$CBV?$basic_string@DU?$char_traits@D@std@@V?$allocator@D@2@@std@@U?$pair@PEAVown_t@zmq@@PEAVpipe_t@2@@2@@std@@@?$_Tree_comp_alloc@V?$_Tmap_traits@V?$basic_string@DU?$char_traits@D@std@@V?$allocator@D@2@@std@@U?$pair@PEAVown_t@zmq@@PEAVpipe_t@2@@2@U?$less@V?$basic_string@DU?$char_traits@D@std@@V?$allocator@D@2@@std@@@2@V?$allocator@U?$pair@$$CBV?$basic_string@DU?$char_traits@D@std@@V?$allocator@D@2@@std@@U?$pair@PEAVown_t@zmq@@PEAVpipe_t@2@@2@@std@@@2@$00@std@@@std@@QEAAPEAU?$_Tree_node@U?$pair@$$CBV?$basic_string@DU?$char_traits@D@std@@V?$allocator@D@2@@std@@U?$pair@PEAVown_t@zmq@@PEAVpipe_t@2@@2@@std@@PEAX@1@$$QEAU?$pair@$$CBV?$basic_string@DU?$char_traits@D@std@@V?$allocator@D@2@@std@@U?$pair@PEAVown_t@zmq@@PEAVpipe_t@2@@2@@1@@Z 0000000180014d30 f i libzmq:socket_base.obj
 0001:00013d90       ??$_Eqrange@V?$basic_string@DU?$char_traits@D@std@@V?$allocator@D@2@@std@@@?$_Tree@V?$_Tmap_traits@V?$basic_string@DU?$char_traits@D@std@@V?$allocator@D@2@@std@@U?$pair@PEAVown_t@zmq@@PEAVpipe_t@2@@2@U?$less@V?$basic_string@DU?$char_traits@D@std@@V?$allocator@D@2@@std@@@2@V?$allocator@U?$pair@$$CBV?$basic_string@DU?$char_traits@D@std@@V?$allocator@D@2@@std@@U?$pair@PEAVown_t@zmq@@PEAVpipe_t@2@@2@@std@@@2@$00@std@@@std@@IEBA?AU?$pair@V?$_Tree_const_iterator@V?$_Tree_val@U?$_Tree_simple_types@U?$pair@$$CBV?$basic_string@DU?$char_traits@D@std@@V?$allocator@D@2@@std@@U?$pair@PEAVown_t@zmq@@PEAVpipe_t@2@@2@@std@@@std@@@std@@@std@@V12@@1@AEBV?$basic_string@DU?$char_traits@D@std@@V?$allocator@D@2@@1@@Z 0000000180014d90 f i libzmq:socket_base.obj
 0001:00013d90       ??$_Eqrange@V?$basic_string@DU?$char_traits@D@std@@V?$allocator@D@2@@std@@@?$_Tree@V?$_Tmap_traits@V?$basic_string@DU?$char_traits@D@std@@V?$allocator@D@2@@std@@Upending_connection_t@ctx_t@zmq@@U?$less@V?$basic_string@DU?$char_traits@D@std@@V?$allocator@D@2@@std@@@2@V?$allocator@U?$pair@$$CBV?$basic_string@DU?$char_traits@D@std@@V?$allocator@D@2@@std@@Upending_connection_t@ctx_t@zmq@@@std@@@2@$00@std@@@std@@IEBA?AU?$pair@V?$_Tree_const_iterator@V?$_Tree_val@U?$_Tree_simple_types@U?$pair@$$CBV?$basic_string@DU?$char_traits@D@std@@V?$allocator@D@2@@std@@Upending_connection_t@ctx_t@zmq@@@std@@@std@@@std@@@std@@V12@@1@AEBV?$basic_string@DU?$char_traits@D@std@@V?$allocator@D@2@@1@@Z 0000000180014d90 f i libzmq:ctx.obj
 0001:00013d90       ??$_Eqrange@V?$basic_string@DU?$char_traits@D@std@@V?$allocator@D@2@@std@@@?$_Tree@V?$_Tmap_traits@V?$basic_string@DU?$char_traits@D@std@@V?$allocator@D@2@@std@@PEAVpipe_t@zmq@@U?$less@V?$basic_string@DU?$char_traits@D@std@@V?$allocator@D@2@@std@@@2@V?$allocator@U?$pair@$$CBV?$basic_string@DU?$char_traits@D@std@@V?$allocator@D@2@@std@@PEAVpipe_t@zmq@@@std@@@2@$00@std@@@std@@IEBA?AU?$pair@V?$_Tree_const_iterator@V?$_Tree_val@U?$_Tree_simple_types@U?$pair@$$CBV?$basic_string@DU?$char_traits@D@std@@V?$allocator@D@2@@std@@PEAVpipe_t@zmq@@@std@@@std@@@std@@@std@@V12@@1@AEBV?$basic_string@DU?$char_traits@D@std@@V?$allocator@D@2@@1@@Z 0000000180014d90 f i libzmq:socket_base.obj
 0001:00013f30       ??$_Insert_at@U?$pair@$$CBV?$basic_string@DU?$char_traits@D@std@@V?$allocator@D@2@@std@@PEAVpipe_t@zmq@@@std@@U_Nil@2@@?$_Tree@V?$_Tmap_traits@V?$basic_string@DU?$char_traits@D@std@@V?$allocator@D@2@@std@@PEAVpipe_t@zmq@@U?$less@V?$basic_string@DU?$char_traits@D@std@@V?$allocator@D@2@@std@@@2@V?$allocator@U?$pair@$$CBV?$basic_string@DU?$char_traits@D@std@@V?$allocator@D@2@@std@@PEAVpipe_t@zmq@@@std@@@2@$00@std@@@std@@IEAA?AV?$_Tree_iterator@V?$_Tree_val@U?$_Tree_simple_types@U?$pair@$$CBV?$basic_string@DU?$char_traits@D@std@@V?$allocator@D@2@@std@@PEAVpipe_t@zmq@@@std@@@std@@@std@@@1@_NPEAU?$_Tree_node@U?$pair@$$CBV?$basic_string@DU?$char_traits@D@std@@V?$allocator@D@2@@std@@PEAVpipe_t@zmq@@@std@@PEAX@1@$$QEAU?$pair@$$CBV?$basic_string@DU?$char_traits@D@std@@V?$allocator@D@2@@std@@PEAVpipe_t@zmq@@@1@U_Nil@1@@Z 0000000180014f30 f i libzmq:socket_base.obj
 0001:00014200       ??$_Insert_at@U?$pair@$$CBV?$basic_string@DU?$char_traits@D@std@@V?$allocator@D@2@@std@@U?$pair@PEAVown_t@zmq@@PEAVpipe_t@2@@2@@std@@U_Nil@2@@?$_Tree@V?$_Tmap_traits@V?$basic_string@DU?$char_traits@D@std@@V?$allocator@D@2@@std@@U?$pair@PEAVown_t@zmq@@PEAVpipe_t@2@@2@U?$less@V?$basic_string@DU?$char_traits@D@std@@V?$allocator@D@2@@std@@@2@V?$allocator@U?$pair@$$CBV?$basic_string@DU?$char_traits@D@std@@V?$allocator@D@2@@std@@U?$pair@PEAVown_t@zmq@@PEAVpipe_t@2@@2@@std@@@2@$00@std@@@std@@IEAA?AV?$_Tree_iterator@V?$_Tree_val@U?$_Tree_simple_types@U?$pair@$$CBV?$basic_string@DU?$char_traits@D@std@@V?$allocator@D@2@@std@@U?$pair@PEAVown_t@zmq@@PEAVpipe_t@2@@2@@std@@@std@@@std@@@1@_NPEAU?$_Tree_node@U?$pair@$$CBV?$basic_string@DU?$char_traits@D@std@@V?$allocator@D@2@@std@@U?$pair@PEAVown_t@zmq@@PEAVpipe_t@2@@2@@std@@PEAX@1@$$QEAU?$pair@$$CBV?$basic_string@DU?$char_traits@D@std@@V?$allocator@D@2@@std@@U?$pair@PEAVown_t@zmq@@PEAVpipe_t@2@@2@@1@U_Nil@1@@Z 0000000180015200 f i libzmq:socket_base.obj
 0001:000144d0       ??$_Insert_nohint@U?$pair@$$CBV?$basic_string@DU?$char_traits@D@std@@V?$allocator@D@2@@std@@PEAVpipe_t@zmq@@@std@@U_Nil@2@@?$_Tree@V?$_Tmap_traits@V?$basic_string@DU?$char_traits@D@std@@V?$allocator@D@2@@std@@PEAVpipe_t@zmq@@U?$less@V?$basic_string@DU?$char_traits@D@std@@V?$allocator@D@2@@std@@@2@V?$allocator@U?$pair@$$CBV?$basic_string@DU?$char_traits@D@std@@V?$allocator@D@2@@std@@PEAVpipe_t@zmq@@@std@@@2@$00@std@@@std@@IEAA?AU?$pair@V?$_Tree_iterator@V?$_Tree_val@U?$_Tree_simple_types@U?$pair@$$CBV?$basic_string@DU?$char_traits@D@std@@V?$allocator@D@2@@std@@PEAVpipe_t@zmq@@@std@@@std@@@std@@@std@@_N@1@_N$$QEAU?$pair@$$CBV?$basic_string@DU?$char_traits@D@std@@V?$allocator@D@2@@std@@PEAVpipe_t@zmq@@@1@U_Nil@1@@Z 00000001800154d0 f i libzmq:socket_base.obj
 0001:00014640       ??$_Insert_nohint@U?$pair@$$CBV?$basic_string@DU?$char_traits@D@std@@V?$allocator@D@2@@std@@U?$pair@PEAVown_t@zmq@@PEAVpipe_t@2@@2@@std@@U_Nil@2@@?$_Tree@V?$_Tmap_traits@V?$basic_string@DU?$char_traits@D@std@@V?$allocator@D@2@@std@@U?$pair@PEAVown_t@zmq@@PEAVpipe_t@2@@2@U?$less@V?$basic_string@DU?$char_traits@D@std@@V?$allocator@D@2@@std@@@2@V?$allocator@U?$pair@$$CBV?$basic_string@DU?$char_traits@D@std@@V?$allocator@D@2@@std@@U?$pair@PEAVown_t@zmq@@PEAVpipe_t@2@@2@@std@@@2@$00@std@@@std@@IEAA?AU?$pair@V?$_Tree_iterator@V?$_Tree_val@U?$_Tree_simple_types@U?$pair@$$CBV?$basic_string@DU?$char_traits@D@std@@V?$allocator@D@2@@std@@U?$pair@PEAVown_t@zmq@@PEAVpipe_t@2@@2@@std@@@std@@@std@@@std@@_N@1@_N$$QEAU?$pair@$$CBV?$basic_string@DU?$char_traits@D@std@@V?$allocator@D@2@@std@@U?$pair@PEAVown_t@zmq@@PEAVpipe_t@2@@2@@1@U_Nil@1@@Z 0000000180015640 f i libzmq:socket_base.obj
 0001:000147b0       ??$construct@U?$pair@$$CBV?$basic_string@DU?$char_traits@D@std@@V?$allocator@D@2@@std@@PEAVpipe_t@zmq@@@std@@U12@@?$_Wrap_alloc@V?$allocator@U?$_Tree_node@U?$pair@$$CBV?$basic_string@DU?$char_traits@D@std@@V?$allocator@D@2@@std@@PEAVpipe_t@zmq@@@std@@PEAX@std@@@std@@@std@@QEAAXPEAU?$pair@$$CBV?$basic_string@DU?$char_traits@D@std@@V?$allocator@D@2@@std@@PEAVpipe_t@zmq@@@1@$$QEAU21@@Z 00000001800157b0 f i libzmq:socket_base.obj
 0001:00014820       ??$construct@U?$pair@$$CBV?$basic_string@DU?$char_traits@D@std@@V?$allocator@D@2@@std@@U?$pair@PEAVown_t@zmq@@PEAVpipe_t@2@@2@@std@@U12@@?$_Wrap_alloc@V?$allocator@U?$_Tree_node@U?$pair@$$CBV?$basic_string@DU?$char_traits@D@std@@V?$allocator@D@2@@std@@U?$pair@PEAVown_t@zmq@@PEAVpipe_t@2@@2@@std@@PEAX@std@@@std@@@std@@QEAAXPEAU?$pair@$$CBV?$basic_string@DU?$char_traits@D@std@@V?$allocator@D@2@@std@@U?$pair@PEAVown_t@zmq@@PEAVpipe_t@2@@2@@1@$$QEAU21@@Z 0000000180015820 f i libzmq:socket_base.obj
 0001:00014890       ??0socket_base_t@zmq@@IEAA@PEAVctx_t@1@IH_N@Z 0000000180015890 f   libzmq:socket_base.obj
 0001:00014ae0       ??1?$array_item_t@$0A@@zmq@@UEAA@XZ 0000000180015ae0 f i libzmq:socket_base.obj
 0001:00014af0       ??1?$multimap@V?$basic_string@DU?$char_traits@D@std@@V?$allocator@D@2@@std@@PEAVpipe_t@zmq@@U?$less@V?$basic_string@DU?$char_traits@D@std@@V?$allocator@D@2@@std@@@2@V?$allocator@U?$pair@$$CBV?$basic_string@DU?$char_traits@D@std@@V?$allocator@D@2@@std@@PEAVpipe_t@zmq@@@std@@@2@@std@@QEAA@XZ 0000000180015af0 f i libzmq:socket_base.obj
 0001:00014b30       ??1?$multimap@V?$basic_string@DU?$char_traits@D@std@@V?$allocator@D@2@@std@@U?$pair@PEAVown_t@zmq@@PEAVpipe_t@2@@2@U?$less@V?$basic_string@DU?$char_traits@D@std@@V?$allocator@D@2@@std@@@2@V?$allocator@U?$pair@$$CBV?$basic_string@DU?$char_traits@D@std@@V?$allocator@D@2@@std@@U?$pair@PEAVown_t@zmq@@PEAVpipe_t@2@@2@@std@@@2@@std@@QEAA@XZ 0000000180015b30 f i libzmq:socket_base.obj
 0001:00014b70       ??1i_pipe_events@zmq@@UEAA@XZ 0000000180015b70 f i libzmq:socket_base.obj
 0001:00014b80       ??1i_poll_events@zmq@@UEAA@XZ 0000000180015b80 f i libzmq:socket_base.obj
 0001:00014b80       ??1io_object_t@zmq@@UEAA@XZ 0000000180015b80 f i libzmq:io_object.obj
 0001:00014b90       ??1scoped_optional_lock_t@zmq@@QEAA@XZ 0000000180015b90 f i libzmq:socket_base.obj
 0001:00014ba0       ??1socket_base_t@zmq@@MEAA@XZ 0000000180015ba0 f   libzmq:socket_base.obj
 0001:00014dd0       ??4?$basic_string@DU?$char_traits@D@std@@V?$allocator@D@2@@std@@QEAAAEAV01@$$QEAV01@@Z 0000000180015dd0 f i libzmq:socket_base.obj
 0001:00014e88       ??_Esocket_base_t@zmq@@ODCI@EAAPEAXI@Z 0000000180015e88 f i libzmq:socket_base.obj
 0001:00014e94       ??_Esocket_base_t@zmq@@ODDI@EAAPEAXI@Z 0000000180015e94 f i libzmq:socket_base.obj
 0001:00014ea0       ??_Esocket_base_t@zmq@@ODEA@EAAPEAXI@Z 0000000180015ea0 f i libzmq:socket_base.obj
 0001:00014eb0       ??_E?$array_item_t@$0A@@zmq@@UEAAPEAXI@Z 0000000180015eb0 f i libzmq:socket_base.obj
 0001:00014eb0       ??_G?$array_item_t@$0A@@zmq@@UEAAPEAXI@Z 0000000180015eb0 f i libzmq:socket_base.obj
 0001:00014ee0       ??_Ei_pipe_events@zmq@@UEAAPEAXI@Z 0000000180015ee0 f i libzmq:socket_base.obj
 0001:00014ee0       ??_Gi_pipe_events@zmq@@UEAAPEAXI@Z 0000000180015ee0 f i libzmq:socket_base.obj
 0001:00014f10       ??_Ei_poll_events@zmq@@UEAAPEAXI@Z 0000000180015f10 f i libzmq:socket_base.obj
 0001:00014f10       ??_Gi_poll_events@zmq@@UEAAPEAXI@Z 0000000180015f10 f i libzmq:socket_base.obj
 0001:00014f40       ??_Esocket_base_t@zmq@@MEAAPEAXI@Z 0000000180015f40 f i libzmq:socket_base.obj
 0001:00014f40       ??_Gsocket_base_t@zmq@@MEAAPEAXI@Z 0000000180015f40 f i libzmq:socket_base.obj
 0001:00014f80       ?_Buyheadnode@?$_Tree_comp_alloc@V?$_Tmap_traits@V?$basic_string@DU?$char_traits@D@std@@V?$allocator@D@2@@std@@PEAVpipe_t@zmq@@U?$less@V?$basic_string@DU?$char_traits@D@std@@V?$allocator@D@2@@std@@@2@V?$allocator@U?$pair@$$CBV?$basic_string@DU?$char_traits@D@std@@V?$allocator@D@2@@std@@PEAVpipe_t@zmq@@@std@@@2@$00@std@@@std@@QEAAPEAU?$_Tree_node@U?$pair@$$CBV?$basic_string@DU?$char_traits@D@std@@V?$allocator@D@2@@std@@PEAVpipe_t@zmq@@@std@@PEAX@2@XZ 0000000180015f80 f i libzmq:socket_base.obj
 0001:00014fe0       ?_Buyheadnode@?$_Tree_comp_alloc@V?$_Tmap_traits@V?$basic_string@DU?$char_traits@D@std@@V?$allocator@D@2@@std@@U?$pair@PEAVown_t@zmq@@PEAVpipe_t@2@@2@U?$less@V?$basic_string@DU?$char_traits@D@std@@V?$allocator@D@2@@std@@@2@V?$allocator@U?$pair@$$CBV?$basic_string@DU?$char_traits@D@std@@V?$allocator@D@2@@std@@U?$pair@PEAVown_t@zmq@@PEAVpipe_t@2@@2@@std@@@2@$00@std@@@std@@QEAAPEAU?$_Tree_node@U?$pair@$$CBV?$basic_string@DU?$char_traits@D@std@@V?$allocator@D@2@@std@@U?$pair@PEAVown_t@zmq@@PEAVpipe_t@2@@2@@std@@PEAX@2@XZ 0000000180015fe0 f i libzmq:socket_base.obj
 0001:00015040       ?_Buynode0@?$_Tree_comp_alloc@V?$_Tmap_traits@V?$basic_string@DU?$char_traits@D@std@@V?$allocator@D@2@@std@@PEAVpipe_t@zmq@@U?$less@V?$basic_string@DU?$char_traits@D@std@@V?$allocator@D@2@@std@@@2@V?$allocator@U?$pair@$$CBV?$basic_string@DU?$char_traits@D@std@@V?$allocator@D@2@@std@@PEAVpipe_t@zmq@@@std@@@2@$00@std@@@std@@QEAAPEAU?$_Tree_node@U?$pair@$$CBV?$basic_string@DU?$char_traits@D@std@@V?$allocator@D@2@@std@@PEAVpipe_t@zmq@@@std@@PEAX@2@XZ 0000000180016040 f i libzmq:socket_base.obj
 0001:000150a0       ?_Buynode0@?$_Tree_comp_alloc@V?$_Tmap_traits@V?$basic_string@DU?$char_traits@D@std@@V?$allocator@D@2@@std@@U?$pair@PEAVown_t@zmq@@PEAVpipe_t@2@@2@U?$less@V?$basic_string@DU?$char_traits@D@std@@V?$allocator@D@2@@std@@@2@V?$allocator@U?$pair@$$CBV?$basic_string@DU?$char_traits@D@std@@V?$allocator@D@2@@std@@U?$pair@PEAVown_t@zmq@@PEAVpipe_t@2@@2@@std@@@2@$00@std@@@std@@QEAAPEAU?$_Tree_node@U?$pair@$$CBV?$basic_string@DU?$char_traits@D@std@@V?$allocator@D@2@@std@@U?$pair@PEAVown_t@zmq@@PEAVpipe_t@2@@2@@std@@PEAX@2@XZ 00000001800160a0 f i libzmq:socket_base.obj
 0001:00015100       ?_Erase@?$_Tree@V?$_Tmap_traits@V?$basic_string@DU?$char_traits@D@std@@V?$allocator@D@2@@std@@PEAVpipe_t@zmq@@U?$less@V?$basic_string@DU?$char_traits@D@std@@V?$allocator@D@2@@std@@@2@V?$allocator@U?$pair@$$CBV?$basic_string@DU?$char_traits@D@std@@V?$allocator@D@2@@std@@PEAVpipe_t@zmq@@@std@@@2@$00@std@@@std@@IEAAXPEAU?$_Tree_node@U?$pair@$$CBV?$basic_string@DU?$char_traits@D@std@@V?$allocator@D@2@@std@@PEAVpipe_t@zmq@@@std@@PEAX@2@@Z 0000000180016100 f i libzmq:socket_base.obj
 0001:00015100       ?_Erase@?$_Tree@V?$_Tmap_traits@V?$basic_string@EU?$char_traits@E@std@@V?$allocator@E@2@@std@@Uoutpipe_t@stream_t@zmq@@U?$less@V?$basic_string@EU?$char_traits@E@std@@V?$allocator@E@2@@std@@@2@V?$allocator@U?$pair@$$CBV?$basic_string@EU?$char_traits@E@std@@V?$allocator@E@2@@std@@Uoutpipe_t@stream_t@zmq@@@std@@@2@$0A@@std@@@std@@IEAAXPEAU?$_Tree_node@U?$pair@$$CBV?$basic_string@EU?$char_traits@E@std@@V?$allocator@E@2@@std@@Uoutpipe_t@stream_t@zmq@@@std@@PEAX@2@@Z 0000000180016100 f i libzmq:stream.obj
 0001:00015100       ?_Erase@?$_Tree@V?$_Tmap_traits@V?$basic_string@DU?$char_traits@D@std@@V?$allocator@D@2@@std@@U?$pair@PEAVown_t@zmq@@PEAVpipe_t@2@@2@U?$less@V?$basic_string@DU?$char_traits@D@std@@V?$allocator@D@2@@std@@@2@V?$allocator@U?$pair@$$CBV?$basic_string@DU?$char_traits@D@std@@V?$allocator@D@2@@std@@U?$pair@PEAVown_t@zmq@@PEAVpipe_t@2@@2@@std@@@2@$00@std@@@std@@IEAAXPEAU?$_Tree_node@U?$pair@$$CBV?$basic_string@DU?$char_traits@D@std@@V?$allocator@D@2@@std@@U?$pair@PEAVown_t@zmq@@PEAVpipe_t@2@@2@@std@@PEAX@2@@Z 0000000180016100 f i libzmq:socket_base.obj
 0001:00015100       ?_Erase@?$_Tree@V?$_Tmap_traits@V?$basic_string@EU?$char_traits@E@std@@V?$allocator@E@2@@std@@Uoutpipe_t@router_t@zmq@@U?$less@V?$basic_string@EU?$char_traits@E@std@@V?$allocator@E@2@@std@@@2@V?$allocator@U?$pair@$$CBV?$basic_string@EU?$char_traits@E@std@@V?$allocator@E@2@@std@@Uoutpipe_t@router_t@zmq@@@std@@@2@$0A@@std@@@std@@IEAAXPEAU?$_Tree_node@U?$pair@$$CBV?$basic_string@EU?$char_traits@E@std@@V?$allocator@E@2@@std@@Uoutpipe_t@router_t@zmq@@@std@@PEAX@2@@Z 0000000180016100 f i libzmq:router.obj
 0001:00015100       ?_Erase@?$_Tree@V?$_Tset_traits@V?$basic_string@DU?$char_traits@D@std@@V?$allocator@D@2@@std@@U?$less@V?$basic_string@DU?$char_traits@D@std@@V?$allocator@D@2@@std@@@2@V?$allocator@V?$basic_string@DU?$char_traits@D@std@@V?$allocator@D@2@@std@@@2@$0A@@std@@@std@@IEAAXPEAU?$_Tree_node@V?$basic_string@DU?$char_traits@D@std@@V?$allocator@D@2@@std@@PEAX@2@@Z 0000000180016100 f i libzmq:dish.obj
 0001:000151e0       ?_Reallocate@?$vector@PEAVpipe_t@zmq@@V?$allocator@PEAVpipe_t@zmq@@@std@@@std@@IEAAX_K@Z 00000001800161e0 f i libzmq:socket_base.obj
 0001:00015270       ?_Reserve@?$vector@PEAVpipe_t@zmq@@V?$allocator@PEAVpipe_t@zmq@@@std@@@std@@IEAAX_K@Z 0000000180016270 f i libzmq:socket_base.obj
 0001:00015300       ?add_endpoint@socket_base_t@zmq@@AEAAXPEBDPEAVown_t@2@PEAVpipe_t@2@@Z 0000000180016300 f   libzmq:socket_base.obj
 0001:00015480       ?add_signaler@socket_base_t@zmq@@QEAAHPEAVsignaler_t@2@@Z 0000000180016480 f   libzmq:socket_base.obj
 0001:00015520       ?attach_pipe@socket_base_t@zmq@@AEAAXPEAVpipe_t@2@_N@Z 0000000180016520 f   libzmq:socket_base.obj
 0001:000155c0       ?bind@socket_base_t@zmq@@QEAAHPEBD@Z 00000001800165c0 f   libzmq:socket_base.obj
 0001:00015ee0       ?check_destroy@socket_base_t@zmq@@AEAAXXZ 0000000180016ee0 f   libzmq:socket_base.obj
 0001:00015f30       ?check_protocol@socket_base_t@zmq@@AEAAHAEBV?$basic_string@DU?$char_traits@D@std@@V?$allocator@D@2@@std@@@Z 0000000180016f30 f   libzmq:socket_base.obj
 0001:00016080       ?check_tag@socket_base_t@zmq@@QEAA_NXZ 0000000180017080 f   libzmq:socket_base.obj
 0001:00016090       ?close@socket_base_t@zmq@@QEAAHXZ 0000000180017090 f   libzmq:socket_base.obj
 0001:00016120       ?compare@?$basic_string@DU?$char_traits@D@std@@V?$allocator@D@2@@std@@QEBAHPEBD@Z 0000000180017120 f i libzmq:socket_base.obj
 0001:000161a0       ?connect@socket_base_t@zmq@@QEAAHPEBD@Z 00000001800171a0 f   libzmq:socket_base.obj
 0001:00017160       ?create@socket_base_t@zmq@@SAPEAV12@HPEAVctx_t@2@IH@Z 0000000180018160 f   libzmq:socket_base.obj
 0001:000176a0       ?deallocate@?$allocator@PEAVpipe_t@zmq@@@std@@QEAAXPEAPEAVpipe_t@zmq@@_K@Z 00000001800186a0 f i libzmq:socket_base.obj
 0001:000176a0       ?deallocate@?$allocator@PEAVio_thread_t@zmq@@@std@@QEAAXPEAPEAVio_thread_t@zmq@@_K@Z 00000001800186a0 f i libzmq:ctx.obj
 0001:000176a0       ?deallocate@?$allocator@PEAVsignaler_t@zmq@@@std@@QEAAXPEAPEAVsignaler_t@zmq@@_K@Z 00000001800186a0 f i libzmq:mailbox_safe.obj
 0001:000176a0       ?deallocate@?$allocator@PEAVsocket_base_t@zmq@@@std@@QEAAXPEAPEAVsocket_base_t@zmq@@_K@Z 00000001800186a0 f i libzmq:ctx.obj
 0001:00017710       ?erase@?$_Tree@V?$_Tmap_traits@V?$basic_string@DU?$char_traits@D@std@@V?$allocator@D@2@@std@@PEAVpipe_t@zmq@@U?$less@V?$basic_string@DU?$char_traits@D@std@@V?$allocator@D@2@@std@@@2@V?$allocator@U?$pair@$$CBV?$basic_string@DU?$char_traits@D@std@@V?$allocator@D@2@@std@@PEAVpipe_t@zmq@@@std@@@2@$00@std@@@std@@QEAA?AV?$_Tree_iterator@V?$_Tree_val@U?$_Tree_simple_types@U?$pair@$$CBV?$basic_string@DU?$char_traits@D@std@@V?$allocator@D@2@@std@@PEAVpipe_t@zmq@@@std@@@std@@@std@@@2@V?$_Tree_const_iterator@V?$_Tree_val@U?$_Tree_simple_types@U?$pair@$$CBV?$basic_string@DU?$char_traits@D@std@@V?$allocator@D@2@@std@@PEAVpipe_t@zmq@@@std@@@std@@@std@@@2@0@Z 0000000180018710 f i libzmq:socket_base.obj
 0001:00017800       ?erase@?$_Tree@V?$_Tmap_traits@V?$basic_string@DU?$char_traits@D@std@@V?$allocator@D@2@@std@@U?$pair@PEAVown_t@zmq@@PEAVpipe_t@2@@2@U?$less@V?$basic_string@DU?$char_traits@D@std@@V?$allocator@D@2@@std@@@2@V?$allocator@U?$pair@$$CBV?$basic_string@DU?$char_traits@D@std@@V?$allocator@D@2@@std@@U?$pair@PEAVown_t@zmq@@PEAVpipe_t@2@@2@@std@@@2@$00@std@@@std@@QEAA?AV?$_Tree_iterator@V?$_Tree_val@U?$_Tree_simple_types@U?$pair@$$CBV?$basic_string@DU?$char_traits@D@std@@V?$allocator@D@2@@std@@U?$pair@PEAVown_t@zmq@@PEAVpipe_t@2@@2@@std@@@std@@@std@@@2@V?$_Tree_const_iterator@V?$_Tree_val@U?$_Tree_simple_types@U?$pair@$$CBV?$basic_string@DU?$char_traits@D@std@@V?$allocator@D@2@@std@@U?$pair@PEAVown_t@zmq@@PEAVpipe_t@2@@2@@std@@@std@@@std@@@2@0@Z 0000000180018800 f i libzmq:socket_base.obj
 0001:000178f0       ?event@socket_base_t@zmq@@AEAAXAEBV?$basic_string@DU?$char_traits@D@std@@V?$allocator@D@2@@std@@_JH@Z 00000001800188f0 f   libzmq:socket_base.obj
 0001:00017970       ?event_accept_failed@socket_base_t@zmq@@QEAAXAEBV?$basic_string@DU?$char_traits@D@std@@V?$allocator@D@2@@std@@H@Z 0000000180018970 f   libzmq:socket_base.obj
 0001:00017980       ?event_accepted@socket_base_t@zmq@@QEAAXAEBV?$basic_string@DU?$char_traits@D@std@@V?$allocator@D@2@@std@@_K@Z 0000000180018980 f   libzmq:socket_base.obj
 0001:00017990       ?event_bind_failed@socket_base_t@zmq@@QEAAXAEBV?$basic_string@DU?$char_traits@D@std@@V?$allocator@D@2@@std@@H@Z 0000000180018990 f   libzmq:socket_base.obj
 0001:000179a0       ?event_closed@socket_base_t@zmq@@QEAAXAEBV?$basic_string@DU?$char_traits@D@std@@V?$allocator@D@2@@std@@_K@Z 00000001800189a0 f   libzmq:socket_base.obj
 0001:000179b0       ?event_connect_delayed@socket_base_t@zmq@@QEAAXAEBV?$basic_string@DU?$char_traits@D@std@@V?$allocator@D@2@@std@@H@Z 00000001800189b0 f   libzmq:socket_base.obj
 0001:000179c0       ?event_connect_retried@socket_base_t@zmq@@QEAAXAEBV?$basic_string@DU?$char_traits@D@std@@V?$allocator@D@2@@std@@H@Z 00000001800189c0 f   libzmq:socket_base.obj
 0001:000179d0       ?event_connected@socket_base_t@zmq@@QEAAXAEBV?$basic_string@DU?$char_traits@D@std@@V?$allocator@D@2@@std@@_K@Z 00000001800189d0 f   libzmq:socket_base.obj
 0001:000179e0       ?event_disconnected@socket_base_t@zmq@@QEAAXAEBV?$basic_string@DU?$char_traits@D@std@@V?$allocator@D@2@@std@@_K@Z 00000001800189e0 f   libzmq:socket_base.obj
 0001:000179f0       ?event_listening@socket_base_t@zmq@@QEAAXAEBV?$basic_string@DU?$char_traits@D@std@@V?$allocator@D@2@@std@@_K@Z 00000001800189f0 f   libzmq:socket_base.obj
 0001:00017a00       ?extract_flags@socket_base_t@zmq@@AEAAXPEAVmsg_t@2@@Z 0000000180018a00 f   libzmq:socket_base.obj
 0001:00017a90       ?find@?$basic_string@DU?$char_traits@D@std@@V?$allocator@D@2@@std@@QEBA_KPEBD_K1@Z 0000000180018a90 f i libzmq:socket_base.obj
 0001:00017b80       ?get_credential@socket_base_t@zmq@@MEBA?AV?$basic_string@EU?$char_traits@E@std@@V?$allocator@E@2@@std@@XZ 0000000180018b80 f   libzmq:socket_base.obj
 0001:00017ba0       ?get_mailbox@socket_base_t@zmq@@QEAAPEAVi_mailbox@2@XZ 0000000180018ba0 f   libzmq:socket_base.obj
 0001:00017bb0       ?getsockopt@socket_base_t@zmq@@QEAAHHPEAXPEA_K@Z 0000000180018bb0 f   libzmq:socket_base.obj
 0001:00017e60       ?has_in@socket_base_t@zmq@@QEAA_NXZ 0000000180018e60 f   libzmq:socket_base.obj
 0001:00017e70       ?has_out@socket_base_t@zmq@@QEAA_NXZ 0000000180018e70 f   libzmq:socket_base.obj
 0001:00017e80       ?hiccuped@socket_base_t@zmq@@UEAAXPEAVpipe_t@2@@Z 0000000180018e80 f   libzmq:socket_base.obj
 0001:00017eb0       ?in_event@socket_base_t@zmq@@UEAAXXZ 0000000180018eb0 f   libzmq:socket_base.obj
 0001:00017f40       ?monitor@socket_base_t@zmq@@QEAAHPEBDH@Z 0000000180018f40 f   libzmq:socket_base.obj
 0001:000181e0       ?monitor_event@socket_base_t@zmq@@AEAAXH_JAEBV?$basic_string@DU?$char_traits@D@std@@V?$allocator@D@2@@std@@@Z 00000001800191e0 f   libzmq:socket_base.obj
 0001:000182b0       ?out_event@socket_base_t@zmq@@UEAAXXZ 00000001800192b0 f   libzmq:socket_base.obj
 0001:00018310       ?parse_uri@socket_base_t@zmq@@AEAAHPEBDAEAV?$basic_string@DU?$char_traits@D@std@@V?$allocator@D@2@@std@@1@Z 0000000180019310 f   libzmq:socket_base.obj
 0001:00018580       ?pipe_terminated@socket_base_t@zmq@@UEAAXPEAVpipe_t@2@@Z 0000000180019580 f   libzmq:socket_base.obj
 0001:000186a0       ?process_bind@socket_base_t@zmq@@EEAAXPEAVpipe_t@2@@Z 00000001800196a0 f   libzmq:socket_base.obj
 0001:000186b0       ?process_commands@socket_base_t@zmq@@AEAAHH_N@Z 00000001800196b0 f   libzmq:socket_base.obj
 0001:000187f0       ?process_destroy@socket_base_t@zmq@@MEAAXXZ 00000001800197f0 f   libzmq:socket_base.obj
 0001:00018800       ?process_stop@socket_base_t@zmq@@EEAAXXZ 0000000180019800 f   libzmq:socket_base.obj
 0001:00018860       ?process_term@socket_base_t@zmq@@EEAAXH@Z 0000000180019860 f   libzmq:socket_base.obj
 0001:00018900       ?push_back@?$vector@PEAVpipe_t@zmq@@V?$allocator@PEAVpipe_t@zmq@@@std@@@std@@QEAAXAEBQEAVpipe_t@zmq@@@Z 0000000180019900 f i libzmq:socket_base.obj
 0001:00018990       ?read_activated@socket_base_t@zmq@@UEAAXPEAVpipe_t@2@@Z 0000000180019990 f   libzmq:socket_base.obj
 0001:000189b0       ?recv@socket_base_t@zmq@@QEAAHPEAVmsg_t@2@H@Z 00000001800199b0 f   libzmq:socket_base.obj
 0001:00018bb0       ?remove_signaler@socket_base_t@zmq@@QEAAHPEAVsignaler_t@2@@Z 0000000180019bb0 f   libzmq:socket_base.obj
 0001:00018c50       ?send@socket_base_t@zmq@@QEAAHPEAVmsg_t@2@H@Z 0000000180019c50 f   libzmq:socket_base.obj
 0001:00018df0       ?setsockopt@socket_base_t@zmq@@QEAAHHPEBX_K@Z 0000000180019df0 f   libzmq:socket_base.obj
 0001:00018ee0       ?start_reaping@socket_base_t@zmq@@QEAAXPEAVselect_t@2@@Z 0000000180019ee0 f   libzmq:socket_base.obj
 0001:00018fe0       ?stop@io_thread_t@zmq@@QEAAXXZ 0000000180019fe0 f   libzmq:io_thread.obj
 0001:00018fe0       ?stop@reaper_t@zmq@@QEAAXXZ 0000000180019fe0 f   libzmq:reaper.obj
 0001:00018fe0       ?stop@socket_base_t@zmq@@QEAAXXZ 0000000180019fe0 f   libzmq:socket_base.obj
 0001:00018ff0       ?stop_monitor@socket_base_t@zmq@@AEAAX_N@Z 0000000180019ff0 f   libzmq:socket_base.obj
 0001:000190a0       ?substr@?$basic_string@DU?$char_traits@D@std@@V?$allocator@D@2@@std@@QEBA?AV12@_K0@Z 000000018001a0a0 f i libzmq:socket_base.obj
 0001:000190e0       ?term_endpoint@socket_base_t@zmq@@QEAAHPEBD@Z 000000018001a0e0 f   libzmq:socket_base.obj
 0001:00019710       ?timer_event@socket_base_t@zmq@@UEAAXH@Z 000000018001a710 f   libzmq:socket_base.obj
 0001:00019770       ?update_pipe_options@socket_base_t@zmq@@AEAAXH@Z 000000018001a770 f   libzmq:socket_base.obj
 0001:00019800       ?write_activated@socket_base_t@zmq@@UEAAXPEAVpipe_t@2@@Z 000000018001a800 f   libzmq:socket_base.obj
 0001:00019820       ?xhas_in@socket_base_t@zmq@@MEAA_NXZ 000000018001a820 f   libzmq:socket_base.obj
 0001:00019820       ?xhas_out@socket_base_t@zmq@@MEAA_NXZ 000000018001a820 f   libzmq:socket_base.obj
 0001:00019820       ?xhas_in@radio_t@zmq@@UEAA_NXZ 000000018001a820 f   libzmq:radio.obj
 0001:00019820       ?unwrite@?$ypipe_conflate_t@Vmsg_t@zmq@@@zmq@@UEAA_NPEAVmsg_t@2@@Z 000000018001a820 f   libzmq:pipe.obj
 0001:00019820       ?xhas_out@sub_t@zmq@@MEAA_NXZ 000000018001a820 f   libzmq:sub.obj
 0001:00019820       ?xhas_in@pub_t@zmq@@UEAA_NXZ 000000018001a820 f   libzmq:pub.obj
 0001:00019830       ?xhiccuped@socket_base_t@zmq@@MEAAXPEAVpipe_t@2@@Z 000000018001a830 f   libzmq:socket_base.obj
 0001:00019890       ?xsend@sub_t@zmq@@MEAAHPEAVmsg_t@2@@Z 000000018001a890 f   libzmq:sub.obj
 0001:00019890       ?xsend@socket_base_t@zmq@@MEAAHPEAVmsg_t@2@@Z 000000018001a890 f   libzmq:socket_base.obj
 0001:00019890       ?xjoin@socket_base_t@zmq@@MEAAHPEBD@Z 000000018001a890 f   libzmq:socket_base.obj
 0001:00019890       ?xrecv@pub_t@zmq@@UEAAHPEAVmsg_t@2@@Z 000000018001a890 f   libzmq:pub.obj
 0001:00019890       ?xleave@socket_base_t@zmq@@MEAAHPEBD@Z 000000018001a890 f   libzmq:socket_base.obj
 0001:00019890       ?xrecv@socket_base_t@zmq@@MEAAHPEAVmsg_t@2@@Z 000000018001a890 f   libzmq:socket_base.obj
 0001:00019890       ?xrecv@radio_t@zmq@@UEAAHPEAVmsg_t@2@@Z 000000018001a890 f   libzmq:radio.obj
 0001:00019890       ?xsend@dish_t@zmq@@MEAAHPEAVmsg_t@2@@Z 000000018001a890 f   libzmq:dish.obj
 0001:000198b0       ?xread_activated@socket_base_t@zmq@@MEAAXPEAVpipe_t@2@@Z 000000018001a8b0 f   libzmq:socket_base.obj
 0001:00019910       ?xsetsockopt@socket_base_t@zmq@@MEAAHHPEBX_K@Z 000000018001a910 f   libzmq:socket_base.obj
 0001:00019930       ?xwrite_activated@socket_base_t@zmq@@MEAAXPEAVpipe_t@2@@Z 000000018001a930 f   libzmq:socket_base.obj
 0001:00019990       ??0socket_poller_t@zmq@@QEAA@XZ 000000018001a990 f   libzmq:socket_poller.obj
 0001:000199e0       ??1socket_poller_t@zmq@@QEAA@XZ 000000018001a9e0 f   libzmq:socket_poller.obj
 0001:00019af0       ?_Reallocate@?$vector@Uitem_t@socket_poller_t@zmq@@V?$allocator@Uitem_t@socket_poller_t@zmq@@@std@@@std@@IEAAX_K@Z 000000018001aaf0 f i libzmq:socket_poller.obj
 0001:00019b80       ?_Reserve@?$vector@Uitem_t@socket_poller_t@zmq@@V?$allocator@Uitem_t@socket_poller_t@zmq@@@std@@@std@@IEAAX_K@Z 000000018001ab80 f i libzmq:socket_poller.obj
 0001:00019c10       ?add@socket_poller_t@zmq@@QEAAHPEAVsocket_base_t@2@PEAXF@Z 000000018001ac10 f   libzmq:socket_poller.obj
 0001:00019d70       ?add_fd@socket_poller_t@zmq@@QEAAH_KPEAXF@Z 000000018001ad70 f   libzmq:socket_poller.obj
 0001:00019e90       ?allocate@?$allocator@Uitem_t@socket_poller_t@zmq@@@std@@QEAAPEAUitem_t@socket_poller_t@zmq@@_K@Z 000000018001ae90 f i libzmq:socket_poller.obj
 0001:00019f10       ?check_tag@socket_poller_t@zmq@@QEAA_NXZ 000000018001af10 f   libzmq:socket_poller.obj
 0001:00019f20       ?deallocate@?$_Wrap_alloc@V?$allocator@Uitem_t@socket_poller_t@zmq@@@std@@@std@@QEAAXPEAUitem_t@socket_poller_t@zmq@@_K@Z 000000018001af20 f i libzmq:socket_poller.obj
 0001:00019f90       ?modify@socket_poller_t@zmq@@QEAAHPEAVsocket_base_t@2@F@Z 000000018001af90 f   libzmq:socket_poller.obj
 0001:00019fe0       ?modify_fd@socket_poller_t@zmq@@QEAAH_KF@Z 000000018001afe0 f   libzmq:socket_poller.obj
 0001:0001a030       ?rebuild@socket_poller_t@zmq@@AEAAHXZ 000000018001b030 f   libzmq:socket_poller.obj
 0001:0001a340       ?wait@socket_poller_t@zmq@@QEAAHPEAUevent_t@12@HJ@Z 000000018001b340 f   libzmq:socket_poller.obj
 0001:0001a870       ??0clock_t@zmq@@QEAA@XZ    000000018001b870 f   libzmq:clock.obj
 0001:0001a8a0       ?compatible_get_tick_count64@@YA_KXZ 000000018001b8a0 f   libzmq:clock.obj
 0001:0001a900       ?init_compatible_get_tick_count64@@YAP6A_KXZXZ 000000018001b900 f   libzmq:clock.obj
 0001:0001a960       ?now_ms@clock_t@zmq@@QEAA_KXZ 000000018001b960 f   libzmq:clock.obj
 0001:0001a9c0       ?rdtsc@clock_t@zmq@@SA_KXZ 000000018001b9c0 f   libzmq:clock.obj
 0001:0001a9d0       ?start@thread_t@zmq@@QEAAXP6AXPEAX@Z0@Z 000000018001b9d0 f   libzmq:thread.obj
 0001:0001aa90       ?stop@thread_t@zmq@@QEAAXXZ 000000018001ba90 f   libzmq:thread.obj
 0001:0001b360       crypto_box                 000000018001c360 f   libzmq:tweetnacl.obj
 0001:0001b3d0       crypto_box_afternm         000000018001c3d0 f   libzmq:tweetnacl.obj
 0001:0001b3e0       crypto_box_beforenm        000000018001c3e0 f   libzmq:tweetnacl.obj
 0001:0001b440       crypto_box_keypair         000000018001c440 f   libzmq:tweetnacl.obj
 0001:0001b480       crypto_box_open            000000018001c480 f   libzmq:tweetnacl.obj
 0001:0001b4f0       crypto_box_open_afternm    000000018001c4f0 f   libzmq:tweetnacl.obj
 0001:0001b500       crypto_core_hsalsa20       000000018001c500 f   libzmq:tweetnacl.obj
 0001:0001b520       crypto_core_salsa20        000000018001c520 f   libzmq:tweetnacl.obj
 0001:0001b540       crypto_onetimeauth         000000018001c540 f   libzmq:tweetnacl.obj
 0001:0001b8f0       crypto_onetimeauth_verify  000000018001c8f0 f   libzmq:tweetnacl.obj
 0001:0001b940       crypto_scalarmult          000000018001c940 f   libzmq:tweetnacl.obj
 0001:0001bcf0       crypto_scalarmult_base     000000018001ccf0 f   libzmq:tweetnacl.obj
 0001:0001bd00       crypto_secretbox           000000018001cd00 f   libzmq:tweetnacl.obj
 0001:0001bd60       crypto_secretbox_open      000000018001cd60 f   libzmq:tweetnacl.obj
 0001:0001be10       crypto_stream              000000018001ce10 f   libzmq:tweetnacl.obj
 0001:0001be80       crypto_stream_salsa20      000000018001ce80 f   libzmq:tweetnacl.obj
 0001:0001bea0       crypto_stream_salsa20_xor  000000018001cea0 f   libzmq:tweetnacl.obj
 0001:0001c150       crypto_stream_xor          000000018001d150 f   libzmq:tweetnacl.obj
 0001:0001c1d0       crypto_verify_16           000000018001d1d0 f   libzmq:tweetnacl.obj
 0001:0001c4e0       randombytes                000000018001d4e0 f   libzmq:tweetnacl.obj
 0001:0001c5b0       randombytes_close          000000018001d5b0 f   libzmq:tweetnacl.obj
 0001:0001c7c0       ??$?6U?$char_traits@D@std@@@std@@YAAEAV?$basic_ostream@DU?$char_traits@D@std@@@0@AEAV10@PEBD@Z 000000018001d7c0 f i libzmq:tcp_address.obj
 0001:0001ca10       ??$_Immortalize@V_Iostream_error_category@std@@@std@@YAAEAV_Iostream_error_category@0@XZ 000000018001da10 f i libzmq:tcp_address.obj
 0001:0001ca90       ??$use_facet@V?$ctype@D@std@@@std@@YAAEBV?$ctype@D@0@AEBVlocale@0@@Z 000000018001da90 f i libzmq:tcp_address.obj
 0001:0001cbd0       ??$use_facet@V?$num_put@DV?$ostreambuf_iterator@DU?$char_traits@D@std@@@std@@@std@@@std@@YAAEBV?$num_put@DV?$ostreambuf_iterator@DU?$char_traits@D@std@@@std@@@0@AEBVlocale@0@@Z 000000018001dbd0 f i libzmq:tcp_address.obj
 0001:0001cd10       ??$use_facet@V?$numpunct@D@std@@@std@@YAAEBV?$numpunct@D@0@AEBVlocale@0@@Z 000000018001dd10 f i libzmq:tcp_address.obj
 0001:0001ce50       ??0?$basic_streambuf@DU?$char_traits@D@std@@@std@@IEAA@XZ 000000018001de50 f i libzmq:tcp_address.obj
 0001:0001cf10       ??0_Locinfo@std@@QEAA@PEBD@Z 000000018001df10 f i libzmq:tcp_address.obj
 0001:0001cfe0       ??0_System_error@std@@IEAA@Verror_code@1@AEBV?$basic_string@DU?$char_traits@D@std@@V?$allocator@D@2@@1@@Z 000000018001dfe0 f i libzmq:tcp_address.obj
 0001:0001d120       ??0_System_error@std@@QEAA@AEBV01@@Z 000000018001e120 f i libzmq:tcp_address.obj
 0001:0001d170       ??0bad_cast@std@@QEAA@AEBV01@@Z 000000018001e170 f i libzmq:tcp_address.obj
 0001:0001d1b0       ??0exception@std@@QEAA@AEBV01@@Z 000000018001e1b0 f i libzmq:tcp_address.obj
 0001:0001d1f0       ??0failure@ios_base@std@@QEAA@AEBV012@@Z 000000018001e1f0 f i libzmq:tcp_address.obj
 0001:0001d250       ??0runtime_error@std@@QEAA@AEBV01@@Z 000000018001e250 f i libzmq:tcp_address.obj
 0001:0001d290       ??0sentry@?$basic_ostream@DU?$char_traits@D@std@@@std@@QEAA@AEAV12@@Z 000000018001e290 f i libzmq:tcp_address.obj
 0001:0001d310       ??0system_error@std@@QEAA@AEBV01@@Z 000000018001e310 f i libzmq:tcp_address.obj
 0001:0001d370       ??0tcp_address_mask_t@zmq@@QEAA@XZ 000000018001e370 f   libzmq:tcp_address.obj
 0001:0001d3a0       ??0tcp_address_t@zmq@@QEAA@PEBUsockaddr@@H@Z 000000018001e3a0 f   libzmq:tcp_address.obj
 0001:0001d4a0       ??0tcp_address_t@zmq@@QEAA@XZ 000000018001e4a0 f   libzmq:tcp_address.obj
 0001:0001d4d0       ??1?$_Yarn@D@std@@QEAA@XZ  000000018001e4d0 f i libzmq:tcp_address.obj
 0001:0001d4d0       ??1?$_Yarn@_W@std@@QEAA@XZ 000000018001e4d0 f i libzmq:tcp_address.obj
 0001:0001d500       ??1?$basic_ios@DU?$char_traits@D@std@@@std@@UEAA@XZ 000000018001e500 f i libzmq:tcp_address.obj
 0001:0001d530       ??1?$basic_iostream@DU?$char_traits@D@std@@@std@@UEAA@XZ 000000018001e530 f i libzmq:tcp_address.obj
 0001:0001d5b0       ??1?$basic_istream@DU?$char_traits@D@std@@@std@@UEAA@XZ 000000018001e5b0 f i libzmq:tcp_address.obj
 0001:0001d5e0       ??1?$basic_ostream@DU?$char_traits@D@std@@@std@@UEAA@XZ 000000018001e5e0 f i libzmq:tcp_address.obj
 0001:0001d610       ??1?$basic_streambuf@DU?$char_traits@D@std@@@std@@UEAA@XZ 000000018001e610 f i libzmq:tcp_address.obj
 0001:0001d670       ??1?$basic_stringbuf@DU?$char_traits@D@std@@V?$allocator@D@2@@std@@UEAA@XZ 000000018001e670 f i libzmq:tcp_address.obj
 0001:0001d6f0       ??1?$basic_stringstream@DU?$char_traits@D@std@@V?$allocator@D@2@@std@@UEAA@XZ 000000018001e6f0 f i libzmq:tcp_address.obj
 0001:0001d7d0       ??1_Locinfo@std@@QEAA@XZ   000000018001e7d0 f i libzmq:tcp_address.obj
 0001:0001d880       ??1_Sentry_base@?$basic_ostream@DU?$char_traits@D@std@@@std@@QEAA@XZ 000000018001e880 f i libzmq:tcp_address.obj
 0001:0001d8b0       ??1facet@locale@std@@MEAA@XZ 000000018001e8b0 f i libzmq:tcp_address.obj
 0001:0001d8c0       ??1locale@std@@QEAA@XZ     000000018001e8c0 f i libzmq:tcp_address.obj
 0001:0001d900       ??1sentry@?$basic_ostream@DU?$char_traits@D@std@@@std@@QEAA@XZ 000000018001e900 f i libzmq:tcp_address.obj
 0001:0001d950       ??1tcp_address_t@zmq@@UEAA@XZ 000000018001e950 f   libzmq:tcp_address.obj
 0001:0001d960       ??6?$basic_ostream@DU?$char_traits@D@std@@@std@@QEAAAEAV01@G@Z 000000018001e960 f i libzmq:tcp_address.obj
 0001:0001db00       ??6?$basic_ostream@DU?$char_traits@D@std@@@std@@QEAAAEAV01@H@Z 000000018001eb00 f i libzmq:tcp_address.obj
 0001:0001dc90       ??_D?$basic_iostream@DU?$char_traits@D@std@@@std@@QEAAXXZ 000000018001ec90 f i libzmq:tcp_address.obj
 0001:0001dd30       ??_D?$basic_stringstream@DU?$char_traits@D@std@@V?$allocator@D@2@@std@@QEAAXXZ 000000018001ed30 f i libzmq:tcp_address.obj
 0001:0001dd68       ??_E?$basic_iostream@DU?$char_traits@D@std@@@std@@$4PPPPPPPM@A@EAAPEAXI@Z 000000018001ed68 f i libzmq:tcp_address.obj
 0001:0001dd74       ??_E?$basic_istream@DU?$char_traits@D@std@@@std@@$4PPPPPPPM@A@EAAPEAXI@Z 000000018001ed74 f i libzmq:tcp_address.obj
 0001:0001dd80       ??_E?$basic_ostream@DU?$char_traits@D@std@@@std@@$4PPPPPPPM@A@EAAPEAXI@Z 000000018001ed80 f i libzmq:tcp_address.obj
 0001:0001dd8c       ??_E?$basic_stringstream@DU?$char_traits@D@std@@V?$allocator@D@2@@std@@$4PPPPPPPM@A@EAAPEAXI@Z 000000018001ed8c f i libzmq:tcp_address.obj
 0001:0001dda0       ??_E?$basic_iostream@DU?$char_traits@D@std@@@std@@UEAAPEAXI@Z 000000018001eda0 f i libzmq:tcp_address.obj
 0001:0001dda0       ??_G?$basic_iostream@DU?$char_traits@D@std@@@std@@UEAAPEAXI@Z 000000018001eda0 f i libzmq:tcp_address.obj
 0001:0001dde0       ??_G?$basic_istream@DU?$char_traits@D@std@@@std@@UEAAPEAXI@Z 000000018001ede0 f i libzmq:tcp_address.obj
 0001:0001dde0       ??_E?$basic_istream@DU?$char_traits@D@std@@@std@@UEAAPEAXI@Z 000000018001ede0 f i libzmq:tcp_address.obj
 0001:0001de50       ??_G?$basic_ostream@DU?$char_traits@D@std@@@std@@UEAAPEAXI@Z 000000018001ee50 f i libzmq:tcp_address.obj
 0001:0001de50       ??_E?$basic_ostream@DU?$char_traits@D@std@@@std@@UEAAPEAXI@Z 000000018001ee50 f i libzmq:tcp_address.obj
 0001:0001dec0       ??_G?$basic_streambuf@DU?$char_traits@D@std@@@std@@UEAAPEAXI@Z 000000018001eec0 f i libzmq:tcp_address.obj
 0001:0001dec0       ??_E?$basic_streambuf@DU?$char_traits@D@std@@@std@@UEAAPEAXI@Z 000000018001eec0 f i libzmq:tcp_address.obj
 0001:0001df50       ??_G?$basic_stringbuf@DU?$char_traits@D@std@@V?$allocator@D@2@@std@@UEAAPEAXI@Z 000000018001ef50 f i libzmq:tcp_address.obj
 0001:0001df50       ??_E?$basic_stringbuf@DU?$char_traits@D@std@@V?$allocator@D@2@@std@@UEAAPEAXI@Z 000000018001ef50 f i libzmq:tcp_address.obj
 0001:0001df90       ??_E?$basic_stringstream@DU?$char_traits@D@std@@V?$allocator@D@2@@std@@UEAAPEAXI@Z 000000018001ef90 f i libzmq:tcp_address.obj
 0001:0001df90       ??_G?$basic_stringstream@DU?$char_traits@D@std@@V?$allocator@D@2@@std@@UEAAPEAXI@Z 000000018001ef90 f i libzmq:tcp_address.obj
 0001:0001dff0       ??_G?$ctype@D@std@@MEAAPEAXI@Z 000000018001eff0 f i libzmq:tcp_address.obj
 0001:0001dff0       ??_E?$ctype@D@std@@MEAAPEAXI@Z 000000018001eff0 f i libzmq:tcp_address.obj
 0001:0001e060       ??_E?$num_put@DV?$ostreambuf_iterator@DU?$char_traits@D@std@@@std@@@std@@MEAAPEAXI@Z 000000018001f060 f i libzmq:tcp_address.obj
 0001:0001e060       ??_G?$num_put@DV?$ostreambuf_iterator@DU?$char_traits@D@std@@@std@@@std@@MEAAPEAXI@Z 000000018001f060 f i libzmq:tcp_address.obj
 0001:0001e090       ??_G?$numpunct@D@std@@MEAAPEAXI@Z 000000018001f090 f i libzmq:tcp_address.obj
 0001:0001e090       ??_E?$numpunct@D@std@@MEAAPEAXI@Z 000000018001f090 f i libzmq:tcp_address.obj
 0001:0001e0f0       ??_E_Facet_base@std@@UEAAPEAXI@Z 000000018001f0f0 f i libzmq:tcp_address.obj
 0001:0001e0f0       ??_G_Facet_base@std@@UEAAPEAXI@Z 000000018001f0f0 f i libzmq:tcp_address.obj
 0001:0001e120       ??_Gerror_category@std@@UEAAPEAXI@Z 000000018001f120 f i libzmq:tcp_address.obj
 0001:0001e120       ??_Eerror_category@std@@UEAAPEAXI@Z 000000018001f120 f i libzmq:tcp_address.obj
 0001:0001e120       ??_G_Iostream_error_category@std@@UEAAPEAXI@Z 000000018001f120 f i libzmq:tcp_address.obj
 0001:0001e120       ??_E_Iostream_error_category@std@@UEAAPEAXI@Z 000000018001f120 f i libzmq:tcp_address.obj
 0001:0001e150       ??_Ebad_alloc@std@@UEAAPEAXI@Z 000000018001f150 f i libcpmt:xthrow.obj
 0001:0001e150       ??_Glength_error@std@@UEAAPEAXI@Z 000000018001f150 f i libcpmt:xthrow.obj
 0001:0001e150       ??_Eruntime_error@std@@UEAAPEAXI@Z 000000018001f150 f i libzmq:tcp_address.obj
 0001:0001e150       ??_Gout_of_range@std@@UEAAPEAXI@Z 000000018001f150 f i libcpmt:xthrow.obj
 0001:0001e150       ??_Gbad_alloc@std@@UEAAPEAXI@Z 000000018001f150 f i libcpmt:xthrow.obj
 0001:0001e150       ??_Gbad_array_new_length@std@@UEAAPEAXI@Z 000000018001f150 f i LIBCMT:throw_bad_alloc.obj
 0001:0001e150       ??_Ebad_cast@std@@UEAAPEAXI@Z 000000018001f150 f i libzmq:tcp_address.obj
 0001:0001e150       ??_Ebad_exception@std@@UEAAPEAXI@Z 000000018001f150 f i libvcruntime:frame.obj
 0001:0001e150       ??_Eexception@std@@UEAAPEAXI@Z 000000018001f150 f i libzmq:tcp_address.obj
 0001:0001e150       ??_Eout_of_range@std@@UEAAPEAXI@Z 000000018001f150 f i libcpmt:xthrow.obj
 0001:0001e150       ??_Elength_error@std@@UEAAPEAXI@Z 000000018001f150 f i libcpmt:xthrow.obj
 0001:0001e150       ??_Ebad_array_new_length@std@@UEAAPEAXI@Z 000000018001f150 f i LIBCMT:throw_bad_alloc.obj
 0001:0001e150       ??_Gexception@std@@UEAAPEAXI@Z 000000018001f150 f i libzmq:tcp_address.obj
 0001:0001e150       ??_Elogic_error@std@@UEAAPEAXI@Z 000000018001f150 f i libcpmt:xthrow.obj
 0001:0001e150       ??_Gbad_cast@std@@UEAAPEAXI@Z 000000018001f150 f i libzmq:tcp_address.obj
 0001:0001e150       ??_Gruntime_error@std@@UEAAPEAXI@Z 000000018001f150 f i libzmq:tcp_address.obj
 0001:0001e150       ??_Gbad_exception@std@@UEAAPEAXI@Z 000000018001f150 f i libvcruntime:frame.obj
 0001:0001e150       ??_Glogic_error@std@@UEAAPEAXI@Z 000000018001f150 f i libcpmt:xthrow.obj
 0001:0001e1a0       ??_Gios_base@std@@UEAAPEAXI@Z 000000018001f1a0 f i libzmq:tcp_address.obj
 0001:0001e1a0       ??_Eios_base@std@@UEAAPEAXI@Z 000000018001f1a0 f i libzmq:tcp_address.obj
 0001:0001e1f0       ??_E_System_error@std@@UEAAPEAXI@Z 000000018001f1f0 f i libzmq:tcp_address.obj
 0001:0001e1f0       ??_Gsystem_error@std@@UEAAPEAXI@Z 000000018001f1f0 f i libzmq:tcp_address.obj
 0001:0001e1f0       ??_Gfailure@ios_base@std@@UEAAPEAXI@Z 000000018001f1f0 f i libzmq:tcp_address.obj
 0001:0001e1f0       ??_Efailure@ios_base@std@@UEAAPEAXI@Z 000000018001f1f0 f i libzmq:tcp_address.obj
 0001:0001e1f0       ??_Esystem_error@std@@UEAAPEAXI@Z 000000018001f1f0 f i libzmq:tcp_address.obj
 0001:0001e1f0       ??_G_System_error@std@@UEAAPEAXI@Z 000000018001f1f0 f i libzmq:tcp_address.obj
 0001:0001e240       ?_Decref@facet@locale@std@@UEAAPEAV_Facet_base@3@XZ 000000018001f240 f i libzmq:tcp_address.obj
 0001:0001e250       ?_Fput@?$num_put@DV?$ostreambuf_iterator@DU?$char_traits@D@std@@@std@@@std@@AEBA?AV?$ostreambuf_iterator@DU?$char_traits@D@std@@@2@V32@AEAVios_base@2@DPEBD_K@Z 000000018001f250 f i libzmq:tcp_address.obj
 0001:0001ea00       ?_Getcat@?$ctype@D@std@@SA_KPEAPEBVfacet@locale@2@PEBV42@@Z 000000018001fa00 f i libzmq:tcp_address.obj
 0001:0001eaf0       ?_Getcat@?$num_put@DV?$ostreambuf_iterator@DU?$char_traits@D@std@@@std@@@std@@SA_KPEAPEBVfacet@locale@2@PEBV42@@Z 000000018001faf0 f i libzmq:tcp_address.obj
 0001:0001ebc0       ?_Getcat@?$numpunct@D@std@@SA_KPEAPEBVfacet@locale@2@PEBV42@@Z 000000018001fbc0 f i libzmq:tcp_address.obj
 0001:0001eca0       ?_Gnavail@?$basic_streambuf@DU?$char_traits@D@std@@@std@@IEBA_JXZ 000000018001fca0 f i libzmq:tcp_address.obj
 0001:0001ecc0       ?_Incref@facet@locale@std@@UEAAXXZ 000000018001fcc0 f i libzmq:tcp_address.obj
 0001:0001ecd0       ?_Init@?$numpunct@D@std@@IEAAXAEBV_Locinfo@2@_N@Z 000000018001fcd0 f i libzmq:tcp_address.obj
 0001:0001ee40       ?_Init@ios_base@std@@IEAAXXZ 000000018001fe40 f i libzmq:tcp_address.obj
 0001:0001eed0       ?_Iput@?$num_put@DV?$ostreambuf_iterator@DU?$char_traits@D@std@@@std@@@std@@AEBA?AV?$ostreambuf_iterator@DU?$char_traits@D@std@@@2@V32@AEAVios_base@2@DPEAD_K@Z 000000018001fed0 f i libzmq:tcp_address.obj
 0001:0001f520       ?_Makestr@_System_error@std@@CA?AV?$basic_string@DU?$char_traits@D@std@@V?$allocator@D@2@@2@Verror_code@2@V32@@Z 0000000180020520 f i libzmq:tcp_address.obj
 0001:0001f640       ?_Myptr@?$_String_alloc@U?$_String_base_types@DV?$allocator@D@std@@@std@@@std@@QEBAPEBDXZ 0000000180020640 f i libzmq:tcp_address.obj
 0001:0001f650       ?_Osfx@?$basic_ostream@DU?$char_traits@D@std@@@std@@QEAAXXZ 0000000180020650 f i libzmq:tcp_address.obj
 0001:0001f6c0       ?_Pnavail@?$basic_streambuf@DU?$char_traits@D@std@@@std@@IEBA_JXZ 00000001800206c0 f i libzmq:tcp_address.obj
 0001:0001f6e0       ?_Tidy@?$basic_stringbuf@DU?$char_traits@D@std@@V?$allocator@D@2@@std@@IEAAXXZ 00000001800206e0 f i libzmq:tcp_address.obj
 0001:0001f7a0       ?_Tidy@?$numpunct@D@std@@AEAAXXZ 00000001800207a0 f i libzmq:tcp_address.obj
 0001:0001f7d0       ?msg@raw_decoder_t@zmq@@UEAAPEAVmsg_t@2@XZ 00000001800207d0 f   libzmq:raw_decoder.obj
 0001:0001f7d0       ?addr@tcp_address_t@zmq@@QEBAPEBUsockaddr@@XZ 00000001800207d0 f   libzmq:tcp_address.obj
 0001:0001f7e0       ?addrlen@tcp_address_t@zmq@@QEBAHXZ 00000001800207e0 f   libzmq:tcp_address.obj
 0001:0001f7e0       ?src_addrlen@tcp_address_t@zmq@@QEBAHXZ 00000001800207e0 f   libzmq:tcp_address.obj
 0001:0001f800       ?append@?$basic_string@DU?$char_traits@D@std@@V?$allocator@D@2@@std@@QEAAAEAV12@AEBV12@_K1@Z 0000000180020800 f i libzmq:tcp_address.obj
 0001:0001f930       ?append@?$basic_string@DU?$char_traits@D@std@@V?$allocator@D@2@@std@@QEAAAEAV12@PEBD_K@Z 0000000180020930 f i libzmq:tcp_address.obj
 0001:0001fa80       ?append@?$basic_string@DU?$char_traits@D@std@@V?$allocator@D@2@@std@@QEAAAEAV12@_KD@Z 0000000180020a80 f i libzmq:tcp_address.obj
 0001:0001fb90       ?assign@?$basic_string@DU?$char_traits@D@std@@V?$allocator@D@2@@std@@QEAAAEAV12@$$QEAV12@@Z 0000000180020b90 f i libzmq:tcp_address.obj
 0001:0001fc50       ?assign@?$basic_string@DU?$char_traits@D@std@@V?$allocator@D@2@@std@@QEAAAEAV12@_KD@Z 0000000180020c50 f i libzmq:tcp_address.obj
 0001:0001fd50       ?clear@ios_base@std@@QEAAXH_N@Z 0000000180020d50 f i libzmq:tcp_address.obj
 0001:00020020       ?deallocate@?$allocator@D@std@@QEAAXPEAD_K@Z 0000000180021020 f i libzmq:tcp_address.obj
 0001:00020080       ?default_error_condition@error_category@std@@UEBA?AVerror_condition@2@H@Z 0000000180021080 f i libzmq:tcp_address.obj
 0001:00020090       ?do_decimal_point@?$numpunct@D@std@@MEBADXZ 0000000180021090 f i libzmq:tcp_address.obj
 0001:000200a0       ?do_falsename@?$numpunct@D@std@@MEBA?AV?$basic_string@DU?$char_traits@D@std@@V?$allocator@D@2@@2@XZ 00000001800210a0 f i libzmq:tcp_address.obj
 0001:000200f0       ?do_grouping@?$numpunct@D@std@@MEBA?AV?$basic_string@DU?$char_traits@D@std@@V?$allocator@D@2@@2@XZ 00000001800210f0 f i libzmq:tcp_address.obj
 0001:00020140       ?do_narrow@?$ctype@D@std@@MEBADDD@Z 0000000180021140 f i libzmq:tcp_address.obj
 0001:00020140       ?do_widen@?$ctype@D@std@@MEBADD@Z 0000000180021140 f i libzmq:tcp_address.obj
 0001:00020150       ?do_narrow@?$ctype@D@std@@MEBAPEBDPEBD0DPEAD@Z 0000000180021150 f i libzmq:tcp_address.obj
 0001:00020170       ?do_put@?$num_put@DV?$ostreambuf_iterator@DU?$char_traits@D@std@@@std@@@std@@MEBA?AV?$ostreambuf_iterator@DU?$char_traits@D@std@@@2@V32@AEAVios_base@2@DJ@Z 0000000180021170 f i libzmq:tcp_address.obj
 0001:00020270       ?do_put@?$num_put@DV?$ostreambuf_iterator@DU?$char_traits@D@std@@@std@@@std@@MEBA?AV?$ostreambuf_iterator@DU?$char_traits@D@std@@@2@V32@AEAVios_base@2@DK@Z 0000000180021270 f i libzmq:tcp_address.obj
 0001:00020370       ?do_put@?$num_put@DV?$ostreambuf_iterator@DU?$char_traits@D@std@@@std@@@std@@MEBA?AV?$ostreambuf_iterator@DU?$char_traits@D@std@@@2@V32@AEAVios_base@2@DN@Z 0000000180021370 f i libzmq:tcp_address.obj
 0001:000205e0       ?do_put@?$num_put@DV?$ostreambuf_iterator@DU?$char_traits@D@std@@@std@@@std@@MEBA?AV?$ostreambuf_iterator@DU?$char_traits@D@std@@@2@V32@AEAVios_base@2@DO@Z 00000001800215e0 f i libzmq:tcp_address.obj
 0001:00020860       ?do_put@?$num_put@DV?$ostreambuf_iterator@DU?$char_traits@D@std@@@std@@@std@@MEBA?AV?$ostreambuf_iterator@DU?$char_traits@D@std@@@2@V32@AEAVios_base@2@DPEBX@Z 0000000180021860 f i libzmq:tcp_address.obj
 0001:00020900       ?do_put@?$num_put@DV?$ostreambuf_iterator@DU?$char_traits@D@std@@@std@@@std@@MEBA?AV?$ostreambuf_iterator@DU?$char_traits@D@std@@@2@V32@AEAVios_base@2@D_J@Z 0000000180021900 f i libzmq:tcp_address.obj
 0001:00020a00       ?do_put@?$num_put@DV?$ostreambuf_iterator@DU?$char_traits@D@std@@@std@@@std@@MEBA?AV?$ostreambuf_iterator@DU?$char_traits@D@std@@@2@V32@AEAVios_base@2@D_K@Z 0000000180021a00 f i libzmq:tcp_address.obj
 0001:00020b00       ?do_put@?$num_put@DV?$ostreambuf_iterator@DU?$char_traits@D@std@@@std@@@std@@MEBA?AV?$ostreambuf_iterator@DU?$char_traits@D@std@@@2@V32@AEAVios_base@2@D_N@Z 0000000180021b00 f i libzmq:tcp_address.obj
 0001:00020ec0       ?do_thousands_sep@?$numpunct@D@std@@MEBADXZ 0000000180021ec0 f i libzmq:tcp_address.obj
 0001:00020ed0       ?do_tolower@?$ctype@D@std@@MEBADD@Z 0000000180021ed0 f i libzmq:tcp_address.obj
 0001:00020ee0       ?do_tolower@?$ctype@D@std@@MEBAPEBDPEADPEBD@Z 0000000180021ee0 f i libzmq:tcp_address.obj
 0001:00020f40       ?do_toupper@?$ctype@D@std@@MEBADD@Z 0000000180021f40 f i libzmq:tcp_address.obj
 0001:00020f50       ?do_toupper@?$ctype@D@std@@MEBAPEBDPEADPEBD@Z 0000000180021f50 f i libzmq:tcp_address.obj
 0001:00020fb0       ?do_truename@?$numpunct@D@std@@MEBA?AV?$basic_string@DU?$char_traits@D@std@@V?$allocator@D@2@@2@XZ 0000000180021fb0 f i libzmq:tcp_address.obj
 0001:00021000       ?do_widen@?$ctype@D@std@@MEBAPEBDPEBD0PEAD@Z 0000000180022000 f i libzmq:tcp_address.obj
 0001:00021020       ?equivalent@error_category@std@@UEBA_NAEBVerror_code@2@H@Z 0000000180022020 f i libzmq:tcp_address.obj
 0001:00021040       ?equivalent@error_category@std@@UEBA_NHAEBVerror_condition@2@@Z 0000000180022040 f i libzmq:tcp_address.obj
 0001:00021080       ?falsename@?$numpunct@D@std@@QEBA?AV?$basic_string@DU?$char_traits@D@std@@V?$allocator@D@2@@2@XZ 0000000180022080 f i libzmq:tcp_address.obj
 0001:000210a0       ?family@tcp_address_t@zmq@@QEBAGXZ 00000001800220a0 f   libzmq:tcp_address.obj
 0001:000210b0       ?flush@?$basic_ostream@DU?$char_traits@D@std@@@std@@QEAAAEAV12@XZ 00000001800220b0 f i libzmq:tcp_address.obj
 0001:00021160       ?get_interface_name@tcp_address_t@zmq@@IEBAHKPEAPEAD@Z 0000000180022160 f   libzmq:tcp_address.obj
 0001:00021210       ?getloc@ios_base@std@@QEBA?AVlocale@2@XZ 0000000180022210 f i libzmq:tcp_address.obj
 0001:00021250       ?grouping@?$numpunct@D@std@@QEBA?AV?$basic_string@DU?$char_traits@D@std@@V?$allocator@D@2@@2@XZ 0000000180022250 f i libzmq:tcp_address.obj
 0001:00021270       ?has_src_addr@tcp_address_t@zmq@@QEBA_NXZ 0000000180022270 f   libzmq:tcp_address.obj
 0001:00021280       ?init@?$basic_ios@DU?$char_traits@D@std@@@std@@IEAAXPEAV?$basic_streambuf@DU?$char_traits@D@std@@@2@_N@Z 0000000180022280 f i libzmq:tcp_address.obj
 0001:00021340       ?insert@?$basic_string@DU?$char_traits@D@std@@V?$allocator@D@2@@std@@QEAAAEAV12@_K0D@Z 0000000180022340 f i libzmq:tcp_address.obj
 0001:000214b0       ?match_address@tcp_address_mask_t@zmq@@QEBA_NPEBUsockaddr@@H@Z 00000001800224b0 f   libzmq:tcp_address.obj
 0001:000216a0       ?message@_Generic_error_category@std@@UEBA?AV?$basic_string@DU?$char_traits@D@std@@V?$allocator@D@2@@2@H@Z 00000001800226a0 f i libzmq:tcp_address.obj
 0001:00021700       ?message@_Iostream_error_category@std@@UEBA?AV?$basic_string@DU?$char_traits@D@std@@V?$allocator@D@2@@2@H@Z 0000000180022700 f i libzmq:tcp_address.obj
 0001:00021750       ?message@error_code@std@@QEBA?AV?$basic_string@DU?$char_traits@D@std@@V?$allocator@D@2@@2@XZ 0000000180022750 f i libzmq:tcp_address.obj
 0001:00021780       ?name@_Iostream_error_category@std@@UEBAPEBDXZ 0000000180022780 f i libzmq:tcp_address.obj
 0001:00021790       ?overflow@?$basic_stringbuf@DU?$char_traits@D@std@@V?$allocator@D@2@@std@@MEAAHH@Z 0000000180022790 f i libzmq:tcp_address.obj
 0001:00021a00       ?pbackfail@?$basic_stringbuf@DU?$char_traits@D@std@@V?$allocator@D@2@@std@@MEAAHH@Z 0000000180022a00 f i libzmq:tcp_address.obj
 0001:00021a50       ?resolve@tcp_address_mask_t@zmq@@QEAAHPEBD_N@Z 0000000180022a50 f   libzmq:tcp_address.obj
 0001:00021ce0       ?resolve@tcp_address_t@zmq@@QEAAHPEBD_N11@Z 0000000180022ce0 f   libzmq:tcp_address.obj
 0001:00022230       ?resolve_hostname@tcp_address_t@zmq@@IEAAHPEBD_N1@Z 0000000180023230 f   libzmq:tcp_address.obj
 0001:00022380       ?resolve_interface@tcp_address_t@zmq@@IEAAHPEBD_N1@Z 0000000180023380 f   libzmq:tcp_address.obj
 0001:00022630       ?resolve_nic_name@tcp_address_t@zmq@@IEAAHPEBD_N1@Z 0000000180023630 f   libzmq:tcp_address.obj
 0001:00022880       ?seekpos@?$basic_streambuf@DU?$char_traits@D@std@@@std@@MEAA?AV?$fpos@U_Mbstatet@@@2@V32@H@Z 0000000180023880 f i libzmq:tcp_address.obj
 0001:00022880       ?seekoff@?$basic_streambuf@DU?$char_traits@D@std@@@std@@MEAA?AV?$fpos@U_Mbstatet@@@2@_JHH@Z 0000000180023880 f i libzmq:tcp_address.obj
 0001:000228a0       ?seekoff@?$basic_stringbuf@DU?$char_traits@D@std@@V?$allocator@D@2@@std@@MEAA?AV?$fpos@U_Mbstatet@@@2@_JHH@Z 00000001800238a0 f i libzmq:tcp_address.obj
 0001:00022a30       ?seekpos@?$basic_stringbuf@DU?$char_traits@D@std@@V?$allocator@D@2@@std@@MEAA?AV?$fpos@U_Mbstatet@@@2@V32@H@Z 0000000180023a30 f i libzmq:tcp_address.obj
 0001:00022b40       ?showmanyc@?$basic_streambuf@DU?$char_traits@D@std@@@std@@MEAA_JXZ 0000000180023b40 f i libzmq:tcp_address.obj
 0001:00022b40       ?sync@?$basic_streambuf@DU?$char_traits@D@std@@@std@@MEAAHXZ 0000000180023b40 f i libzmq:tcp_address.obj
 0001:00022b40       ?property@mechanism_t@zmq@@MEAAHAEBV?$basic_string@DU?$char_traits@D@std@@V?$allocator@D@2@@std@@PEBX_K@Z 0000000180023b40 f i libzmq:mechanism.obj
 0001:00022b40       ?zap_msg_available@mechanism_t@zmq@@UEAAHXZ 0000000180023b40 f i libzmq:mechanism.obj
 0001:00022b40       ?encode@mechanism_t@zmq@@UEAAHPEAVmsg_t@2@@Z 0000000180023b40 f i libzmq:mechanism.obj
 0001:00022b40       ?decode@mechanism_t@zmq@@UEAAHPEAVmsg_t@2@@Z 0000000180023b40 f i libzmq:mechanism.obj
 0001:00022b40       ?set_nosigpipe@zmq@@YAH_K@Z 0000000180023b40 f i libzmq:ip.obj
 0001:00022b50       ?src_addr@tcp_address_t@zmq@@QEBAPEBUsockaddr@@XZ 0000000180023b50 f   libzmq:tcp_address.obj
 0001:00022b60       ?str@?$basic_stringbuf@DU?$char_traits@D@std@@V?$allocator@D@2@@std@@QEBA?AV?$basic_string@DU?$char_traits@D@std@@V?$allocator@D@2@@2@XZ 0000000180023b60 f i libzmq:tcp_address.obj
 0001:00022dd0       ?str@?$basic_stringstream@DU?$char_traits@D@std@@V?$allocator@D@2@@std@@QEBA?AV?$basic_string@DU?$char_traits@D@std@@V?$allocator@D@2@@2@XZ 0000000180023dd0 f i libzmq:tcp_address.obj
 0001:00022e00       ?to_string@tcp_address_mask_t@zmq@@UEAAHAEAV?$basic_string@DU?$char_traits@D@std@@V?$allocator@D@2@@std@@@Z 0000000180023e00 f   libzmq:tcp_address.obj
 0001:000231e0       ?to_string@tcp_address_t@zmq@@UEAAHAEAV?$basic_string@DU?$char_traits@D@std@@V?$allocator@D@2@@std@@@Z 00000001800241e0 f   libzmq:tcp_address.obj
 0001:00023680       ?truename@?$numpunct@D@std@@QEBA?AV?$basic_string@DU?$char_traits@D@std@@V?$allocator@D@2@@2@XZ 0000000180024680 f i libzmq:tcp_address.obj
 0001:000236a0       ?uflow@?$basic_streambuf@DU?$char_traits@D@std@@@std@@MEAAHXZ 00000001800246a0 f i libzmq:tcp_address.obj
 0001:000236e0       ?pbackfail@?$basic_streambuf@DU?$char_traits@D@std@@@std@@MEAAHH@Z 00000001800246e0 f i libzmq:tcp_address.obj
 0001:000236e0       ?underflow@?$basic_streambuf@DU?$char_traits@D@std@@@std@@MEAAHXZ 00000001800246e0 f i libzmq:tcp_address.obj
 0001:000236e0       ?overflow@?$basic_streambuf@DU?$char_traits@D@std@@@std@@MEAAHH@Z 00000001800246e0 f i libzmq:tcp_address.obj
 0001:000236f0       ?underflow@?$basic_stringbuf@DU?$char_traits@D@std@@V?$allocator@D@2@@std@@MEAAHXZ 00000001800246f0 f i libzmq:tcp_address.obj
 0001:00023750       ?wchar_to_utf8@tcp_address_t@zmq@@IEBAHPEB_WPEAPEAD@Z 0000000180024750 f   libzmq:tcp_address.obj
 0001:00023850       ?what@exception@std@@UEBAPEBDXZ 0000000180024850 f i libzmq:tcp_address.obj
 0001:00023870       ?xsgetn@?$basic_streambuf@DU?$char_traits@D@std@@@std@@MEAA_JPEAD_J@Z 0000000180024870 f i libzmq:tcp_address.obj
 0001:00023930       ?xsputn@?$basic_streambuf@DU?$char_traits@D@std@@@std@@MEAA_JPEBD_J@Z 0000000180024930 f i libzmq:tcp_address.obj
 0001:000239f0       sprintf_s                  00000001800249f0 f i libzmq:tcp_address.obj
 0001:00023a50       ??$_Uninitialized_move_al_unchecked1@PEAVtcp_address_mask_t@zmq@@PEAV12@V?$allocator@Vtcp_address_mask_t@zmq@@@std@@@std@@YAPEAVtcp_address_mask_t@zmq@@PEAV12@00AEAU?$_Wrap_alloc@V?$allocator@Vtcp_address_mask_t@zmq@@@std@@@0@U_General_ptr_iterator_tag@0@U_Any_tag@0@@Z 0000000180024a50 f i libzmq:options.obj
 0001:00023b00       ??0options_t@zmq@@QEAA@XZ  0000000180024b00 f   libzmq:options.obj
 0001:00023cc0       ??1tcp_address_mask_t@zmq@@UEAA@XZ 0000000180024cc0 f i libzmq:options.obj
 0001:00023cd0       ?_Reallocate@?$vector@Vtcp_address_mask_t@zmq@@V?$allocator@Vtcp_address_mask_t@zmq@@@std@@@std@@IEAAX_K@Z 0000000180024cd0 f i libzmq:options.obj
 0001:00023de0       ?_Reserve@?$vector@Vtcp_address_mask_t@zmq@@V?$allocator@Vtcp_address_mask_t@zmq@@@std@@@std@@IEAAX_K@Z 0000000180024de0 f i libzmq:options.obj
 0001:00023eb0       ?clear@?$vector@Vtcp_address_mask_t@zmq@@V?$allocator@Vtcp_address_mask_t@zmq@@@std@@@std@@QEAAXXZ 0000000180024eb0 f i libzmq:options.obj
 0001:00023f10       ?getsockopt@options_t@zmq@@QEBAHHPEAXPEA_K@Z 0000000180024f10 f   libzmq:options.obj
 0001:000247b0       ?push_back@?$vector@Vtcp_address_mask_t@zmq@@V?$allocator@Vtcp_address_mask_t@zmq@@@std@@@std@@QEAAXAEBVtcp_address_mask_t@zmq@@@Z 00000001800257b0 f i libzmq:options.obj
 0001:00024910       ?set_curve_key@options_t@zmq@@QEAAHPEAEPEBX_K@Z 0000000180025910 f   libzmq:options.obj
 0001:000249d0       ?setsockopt@options_t@zmq@@QEAAHHPEBX_K@Z 00000001800259d0 f   libzmq:options.obj
 0001:00025260       ??0?$ypipe_t@Ucommand_t@zmq@@$0BA@@zmq@@QEAA@XZ 0000000180026260 f i libzmq:mailbox.obj
 0001:000252e0       ??0?$yqueue_t@Ucommand_t@zmq@@$0BA@@zmq@@QEAA@XZ 00000001800262e0 f i libzmq:mailbox.obj
 0001:00025370       ??0mailbox_t@zmq@@QEAA@XZ  0000000180026370 f   libzmq:mailbox.obj
 0001:00025430       ??1?$ypipe_base_t@Ucommand_t@zmq@@@zmq@@UEAA@XZ 0000000180026430 f i libzmq:mailbox.obj
 0001:00025440       ??1?$ypipe_t@Ucommand_t@zmq@@$0BA@@zmq@@UEAA@XZ 0000000180026440 f i libzmq:mailbox.obj
 0001:000254b0       ??1?$yqueue_t@Ucommand_t@zmq@@$0BA@@zmq@@QEAA@XZ 00000001800264b0 f i libzmq:mailbox.obj
 0001:00025500       ??1i_mailbox@zmq@@UEAA@XZ  0000000180026500 f i libzmq:mailbox.obj
 0001:00025510       ??1mailbox_t@zmq@@UEAA@XZ  0000000180026510 f   libzmq:mailbox.obj
 0001:000255d0       ??_E?$ypipe_base_t@Ucommand_t@zmq@@@zmq@@UEAAPEAXI@Z 00000001800265d0 f i libzmq:mailbox.obj
 0001:000255d0       ??_G?$ypipe_base_t@Ucommand_t@zmq@@@zmq@@UEAAPEAXI@Z 00000001800265d0 f i libzmq:mailbox.obj
 0001:00025600       ??_E?$ypipe_t@Ucommand_t@zmq@@$0BA@@zmq@@UEAAPEAXI@Z 0000000180026600 f i libzmq:mailbox.obj
 0001:00025600       ??_G?$ypipe_t@Ucommand_t@zmq@@$0BA@@zmq@@UEAAPEAXI@Z 0000000180026600 f i libzmq:mailbox.obj
 0001:00025690       ??_Gi_mailbox@zmq@@UEAAPEAXI@Z 0000000180026690 f i libzmq:mailbox.obj
 0001:00025690       ??_Ei_mailbox@zmq@@UEAAPEAXI@Z 0000000180026690 f i libzmq:mailbox.obj
 0001:000256c0       ??_Gmailbox_t@zmq@@UEAAPEAXI@Z 00000001800266c0 f i libzmq:mailbox.obj
 0001:000256c0       ??_Emailbox_t@zmq@@UEAAPEAXI@Z 00000001800266c0 f i libzmq:mailbox.obj
 0001:00025700       ?check_read@?$ypipe_t@Vmsg_t@zmq@@$0BAA@@zmq@@UEAA_NXZ 0000000180026700 f i libzmq:pipe.obj
 0001:00025700       ?check_read@?$ypipe_t@Ucommand_t@zmq@@$0BA@@zmq@@UEAA_NXZ 0000000180026700 f i libzmq:mailbox.obj
 0001:00025760       ?get_fd@mailbox_t@zmq@@QEBA_KXZ 0000000180026760 f   libzmq:mailbox.obj
 0001:00025770       ?probe@?$ypipe_t@Ucommand_t@zmq@@$0BA@@zmq@@UEAA_NP6A_NAEBUcommand_t@2@@Z@Z 0000000180026770 f i libzmq:mailbox.obj
 0001:00025770       ?probe@?$ypipe_t@Vmsg_t@zmq@@$0BAA@@zmq@@UEAA_NP6A_NAEBVmsg_t@2@@Z@Z 0000000180026770 f i libzmq:pipe.obj
 0001:00025800       ?push@?$yqueue_t@Ucommand_t@zmq@@$0BA@@zmq@@QEAAXXZ 0000000180026800 f i libzmq:mailbox.obj
 0001:000258e0       ?read@?$ypipe_t@Ucommand_t@zmq@@$0BA@@zmq@@UEAA_NPEAUcommand_t@2@@Z 00000001800268e0 f i libzmq:mailbox.obj
 0001:00025970       ?recv@mailbox_t@zmq@@UEAAHPEAUcommand_t@2@H@Z 0000000180026970 f   libzmq:mailbox.obj
 0001:00025b00       ?send@mailbox_t@zmq@@UEAAXAEBUcommand_t@2@@Z 0000000180026b00 f   libzmq:mailbox.obj
 0001:00025b70       ?unpush@?$yqueue_t@Ucommand_t@zmq@@$0BA@@zmq@@QEAAXXZ 0000000180026b70 f i libzmq:mailbox.obj
 0001:00025bf0       ?unwrite@?$ypipe_t@Ucommand_t@zmq@@$0BA@@zmq@@UEAA_NPEAUcommand_t@2@@Z 0000000180026bf0 f i libzmq:mailbox.obj
 0001:00025c70       ?write@?$ypipe_t@Ucommand_t@zmq@@$0BA@@zmq@@UEAAXAEBUcommand_t@2@_N@Z 0000000180026c70 f i libzmq:mailbox.obj
 0001:00025cf0       ??0object_t@zmq@@QEAA@PEAV01@@Z 0000000180026cf0 f   libzmq:object.obj
 0001:00025d10       ??0object_t@zmq@@QEAA@PEAVctx_t@1@I@Z 0000000180026d10 f   libzmq:object.obj
 0001:00025d30       ??1object_t@zmq@@UEAA@XZ   0000000180026d30 f   libzmq:object.obj
 0001:00025d40       ??_Gobject_t@zmq@@UEAAPEAXI@Z 0000000180026d40 f i libzmq:object.obj
 0001:00025d40       ??_Eobject_t@zmq@@UEAAPEAXI@Z 0000000180026d40 f i libzmq:object.obj
 0001:00025d80       ?choose_io_thread@object_t@zmq@@IEAAPEAVio_thread_t@2@_K@Z 0000000180026d80 f   libzmq:object.obj
 0001:00025d90       ?connect_pending@object_t@zmq@@IEAAXPEBDPEAVsocket_base_t@2@@Z 0000000180026d90 f   libzmq:object.obj
 0001:00025da0       ?destroy_socket@object_t@zmq@@IEAAXPEAVsocket_base_t@2@@Z 0000000180026da0 f   libzmq:object.obj
 0001:00025db0       ?find_endpoint@object_t@zmq@@IEAA?AUendpoint_t@2@PEBD@Z 0000000180026db0 f   libzmq:object.obj
 0001:00025de0       ?size@shared_message_memory_allocator@zmq@@QEBA_KXZ 0000000180026de0 f   libzmq:decoder_allocators.obj
 0001:00025de0       ?get_fd@signaler_t@zmq@@QEBA_KXZ 0000000180026de0 f   libzmq:signaler.obj
 0001:00025de0       ?get_ctx@object_t@zmq@@QEAAPEAVctx_t@2@XZ 0000000180026de0 f   libzmq:object.obj
 0001:00025df0       ?get_tid@object_t@zmq@@QEAAIXZ 0000000180026df0 f   libzmq:object.obj
 0001:00025e00       ?pend_connection@object_t@zmq@@IEAAXAEBV?$basic_string@DU?$char_traits@D@std@@V?$allocator@D@2@@std@@AEBUendpoint_t@2@PEAPEAVpipe_t@2@@Z 0000000180026e00 f   libzmq:object.obj
 0001:00025e10       ?process_activate_read@object_t@zmq@@MEAAXXZ 0000000180026e10 f   libzmq:object.obj
 0001:00025e70       ?process_activate_write@object_t@zmq@@MEAAX_K@Z 0000000180026e70 f   libzmq:object.obj
 0001:00025ed0       ?process_attach@object_t@zmq@@MEAAXPEAUi_engine@2@@Z 0000000180026ed0 f   libzmq:object.obj
 0001:00025f30       ?process_bind@object_t@zmq@@MEAAXPEAVpipe_t@2@@Z 0000000180026f30 f   libzmq:object.obj
 0001:00025f90       ?process_command@object_t@zmq@@QEAAXAEAUcommand_t@2@@Z 0000000180026f90 f   libzmq:object.obj
 0001:000261a0       ?process_hiccup@object_t@zmq@@MEAAXPEAX@Z 00000001800271a0 f   libzmq:object.obj
 0001:00026200       ?process_own@object_t@zmq@@MEAAXPEAVown_t@2@@Z 0000000180027200 f   libzmq:object.obj
 0001:00026260       ?process_pipe_hwm@object_t@zmq@@MEAAXHH@Z 0000000180027260 f   libzmq:object.obj
 0001:000262c0       ?process_pipe_term@object_t@zmq@@MEAAXXZ 00000001800272c0 f   libzmq:object.obj
 0001:00026320       ?process_pipe_term_ack@object_t@zmq@@MEAAXXZ 0000000180027320 f   libzmq:object.obj
 0001:00026380       ?process_plug@object_t@zmq@@MEAAXXZ 0000000180027380 f   libzmq:object.obj
 0001:000263e0       ?process_reap@object_t@zmq@@MEAAXPEAVsocket_base_t@2@@Z 00000001800273e0 f   libzmq:object.obj
 0001:00026440       ?process_reaped@object_t@zmq@@MEAAXXZ 0000000180027440 f   libzmq:object.obj
 0001:000264a0       ?process_seqnum@object_t@zmq@@MEAAXXZ 00000001800274a0 f   libzmq:object.obj
 0001:00026500       ?process_stop@object_t@zmq@@MEAAXXZ 0000000180027500 f   libzmq:object.obj
 0001:00026560       ?process_term@object_t@zmq@@MEAAXH@Z 0000000180027560 f   libzmq:object.obj
 0001:000265c0       ?process_term_ack@object_t@zmq@@MEAAXXZ 00000001800275c0 f   libzmq:object.obj
 0001:00026620       ?process_term_req@object_t@zmq@@MEAAXPEAVown_t@2@@Z 0000000180027620 f   libzmq:object.obj
 0001:00026680       ?register_endpoint@object_t@zmq@@IEAAHPEBDAEBUendpoint_t@2@@Z 0000000180027680 f   libzmq:object.obj
 0001:00026690       ?send_activate_read@object_t@zmq@@IEAAXPEAVpipe_t@2@@Z 0000000180027690 f   libzmq:object.obj
 0001:000266c0       ?send_activate_write@object_t@zmq@@IEAAXPEAVpipe_t@2@_K@Z 00000001800276c0 f   libzmq:object.obj
 0001:00026700       ?send_attach@object_t@zmq@@IEAAXPEAVsession_base_t@2@PEAUi_engine@2@_N@Z 0000000180027700 f   libzmq:object.obj
 0001:00026770       ?send_bind@object_t@zmq@@QEAAXPEAVown_t@2@PEAVpipe_t@2@_N@Z 0000000180027770 f   libzmq:object.obj
 0001:000267e0       ?send_command@object_t@zmq@@AEAAXAEAUcommand_t@2@@Z 00000001800277e0 f   libzmq:object.obj
 0001:00026810       ?send_done@object_t@zmq@@IEAAXXZ 0000000180027810 f   libzmq:object.obj
 0001:00026850       ?send_hiccup@object_t@zmq@@IEAAXPEAVpipe_t@2@PEAX@Z 0000000180027850 f   libzmq:object.obj
 0001:00026890       ?send_inproc_connected@object_t@zmq@@QEAAXPEAVsocket_base_t@2@@Z 0000000180027890 f   libzmq:object.obj
 0001:000268c0       ?send_own@object_t@zmq@@IEAAXPEAVown_t@2@0@Z 00000001800278c0 f   libzmq:object.obj
 0001:00026930       ?send_pipe_hwm@object_t@zmq@@IEAAXPEAVpipe_t@2@HH@Z 0000000180027930 f   libzmq:object.obj
 0001:00026970       ?send_pipe_term@object_t@zmq@@IEAAXPEAVpipe_t@2@@Z 0000000180027970 f   libzmq:object.obj
 0001:000269a0       ?send_pipe_term_ack@object_t@zmq@@IEAAXPEAVpipe_t@2@@Z 00000001800279a0 f   libzmq:object.obj
 0001:000269d0       ?send_plug@object_t@zmq@@IEAAXPEAVown_t@2@_N@Z 00000001800279d0 f   libzmq:object.obj
 0001:00026a30       ?send_reap@object_t@zmq@@IEAAXPEAVsocket_base_t@2@@Z 0000000180027a30 f   libzmq:object.obj
 0001:00026a90       ?send_reaped@object_t@zmq@@IEAAXXZ 0000000180027a90 f   libzmq:object.obj
 0001:00026ae0       ?send_stop@object_t@zmq@@IEAAXXZ 0000000180027ae0 f   libzmq:object.obj
 0001:00026b20       ?send_term@object_t@zmq@@IEAAXPEAVown_t@2@H@Z 0000000180027b20 f   libzmq:object.obj
 0001:00026b60       ?send_term_ack@object_t@zmq@@IEAAXPEAVown_t@2@@Z 0000000180027b60 f   libzmq:object.obj
 0001:00026b90       ?send_term_req@object_t@zmq@@IEAAXPEAVown_t@2@0@Z 0000000180027b90 f   libzmq:object.obj
 0001:00026bd0       ?set_tid@object_t@zmq@@QEAAXI@Z 0000000180027bd0 f   libzmq:object.obj
 0001:00026be0       ?unregister_endpoint@object_t@zmq@@IEAAHAEBV?$basic_string@DU?$char_traits@D@std@@V?$allocator@D@2@@std@@PEAVsocket_base_t@2@@Z 0000000180027be0 f   libzmq:object.obj
 0001:00026bf0       ?unregister_endpoints@object_t@zmq@@IEAAXPEAVsocket_base_t@2@@Z 0000000180027bf0 f   libzmq:object.obj
 0001:00026c00       ??$_Buynode@AEBQEAVown_t@zmq@@@?$_Tree_comp_alloc@V?$_Tset_traits@PEAVown_t@zmq@@U?$less@PEAVown_t@zmq@@@std@@V?$allocator@PEAVown_t@zmq@@@4@$0A@@std@@@std@@QEAAPEAU?$_Tree_node@PEAVown_t@zmq@@PEAX@1@AEBQEAVown_t@zmq@@@Z 0000000180027c00 f i libzmq:own.obj
 0001:00026c40       ??$_Insert_at@AEBQEAVown_t@zmq@@U_Nil@std@@@?$_Tree@V?$_Tset_traits@PEAVown_t@zmq@@U?$less@PEAVown_t@zmq@@@std@@V?$allocator@PEAVown_t@zmq@@@4@$0A@@std@@@std@@IEAA?AV?$_Tree_const_iterator@V?$_Tree_val@U?$_Tree_simple_types@PEAVown_t@zmq@@@std@@@std@@@1@_NPEAU?$_Tree_node@PEAVown_t@zmq@@PEAX@1@AEBQEAVown_t@zmq@@U_Nil@1@@Z 0000000180027c40 f i libzmq:own.obj
 0001:00026f10       ??$_Insert_nohint@AEBQEAVown_t@zmq@@U_Nil@std@@@?$_Tree@V?$_Tset_traits@PEAVown_t@zmq@@U?$less@PEAVown_t@zmq@@@std@@V?$allocator@PEAVown_t@zmq@@@4@$0A@@std@@@std@@IEAA?AU?$pair@V?$_Tree_const_iterator@V?$_Tree_val@U?$_Tree_simple_types@PEAVown_t@zmq@@@std@@@std@@@std@@_N@1@_NAEBQEAVown_t@zmq@@U_Nil@1@@Z 0000000180027f10 f i libzmq:own.obj
 0001:00027070       ??0own_t@zmq@@QEAA@PEAVctx_t@1@I@Z 0000000180028070 f   libzmq:own.obj
 0001:00027100       ??0own_t@zmq@@QEAA@PEAVio_thread_t@1@AEBUoptions_t@1@@Z 0000000180028100 f   libzmq:own.obj
 0001:000271a0       ??1options_t@zmq@@QEAA@XZ  00000001800281a0 f i libzmq:own.obj
 0001:00027210       ??1own_t@zmq@@MEAA@XZ      0000000180028210 f   libzmq:own.obj
 0001:000272c0       ??_Gown_t@zmq@@MEAAPEAXI@Z 00000001800282c0 f i libzmq:own.obj
 0001:000272c0       ??_Eown_t@zmq@@MEAAPEAXI@Z 00000001800282c0 f i libzmq:own.obj
 0001:00027300       ?_Buyheadnode@?$_Tree_comp_alloc@V?$_Tset_traits@PEAVown_t@zmq@@U?$less@PEAVown_t@zmq@@@std@@V?$allocator@PEAVown_t@zmq@@@4@$0A@@std@@@std@@QEAAPEAU?$_Tree_node@PEAVown_t@zmq@@PEAX@2@XZ 0000000180028300 f i libzmq:own.obj
 0001:00027360       ?_Buynode0@?$_Tree_comp_alloc@V?$_Tset_traits@PEAVown_t@zmq@@U?$less@PEAVown_t@zmq@@@std@@V?$allocator@PEAVown_t@zmq@@@4@$0A@@std@@@std@@QEAAPEAU?$_Tree_node@PEAVown_t@zmq@@PEAX@2@XZ 0000000180028360 f i libzmq:own.obj
 0001:000273c0       ?check_term_acks@own_t@zmq@@AEAAXXZ 00000001800283c0 f   libzmq:own.obj
 0001:00027480       ?clear@?$_Tree@V?$_Tset_traits@PEAVown_t@zmq@@U?$less@PEAVown_t@zmq@@@std@@V?$allocator@PEAVown_t@zmq@@@4@$0A@@std@@@std@@QEAAXXZ 0000000180028480 f i libzmq:own.obj
 0001:00027500       ?erase@?$_Tree@V?$_Tset_traits@PEAVown_t@zmq@@U?$less@PEAVown_t@zmq@@@std@@V?$allocator@PEAVown_t@zmq@@@4@$0A@@std@@@std@@QEAA?AV?$_Tree_const_iterator@V?$_Tree_val@U?$_Tree_simple_types@PEAVown_t@zmq@@@std@@@std@@@2@V32@0@Z 0000000180028500 f i libzmq:own.obj
 0001:000275e0       ?inc_seqnum@own_t@zmq@@QEAAXXZ 00000001800285e0 f   libzmq:own.obj
 0001:000275f0       ?is_terminating@own_t@zmq@@IEAA_NXZ 00000001800285f0 f   libzmq:own.obj
 0001:00027600       ?launch_child@own_t@zmq@@IEAAXPEAV12@@Z 0000000180028600 f   libzmq:own.obj
 0001:00027650       ?process_destroy@own_t@zmq@@MEAAXXZ 0000000180028650 f   libzmq:own.obj
 0001:00027670       ?process_own@own_t@zmq@@EEAAXPEAV12@@Z 0000000180028670 f   libzmq:own.obj
 0001:000276e0       ?process_seqnum@own_t@zmq@@EEAAXXZ 00000001800286e0 f   libzmq:own.obj
 0001:000276f0       ?process_term@own_t@zmq@@MEAAXH@Z 00000001800286f0 f   libzmq:own.obj
 0001:00027870       ?process_term_ack@own_t@zmq@@EEAAXXZ 0000000180028870 f   libzmq:own.obj
 0001:00027880       ?process_term_req@own_t@zmq@@EEAAXPEAV12@@Z 0000000180028880 f   libzmq:own.obj
 0001:00027950       ?register_term_acks@own_t@zmq@@QEAAXH@Z 0000000180028950 f   libzmq:own.obj
 0001:00027960       ?set_owner@own_t@zmq@@AEAAXPEAV12@@Z 0000000180028960 f   libzmq:own.obj
 0001:000279f0       ?term_child@own_t@zmq@@IEAAXPEAV12@@Z 00000001800289f0 f   libzmq:own.obj
 0001:00027a00       ?terminate@own_t@zmq@@IEAAXXZ 0000000180028a00 f   libzmq:own.obj
 0001:00027a30       ?unregister_term_ack@own_t@zmq@@QEAAXXZ 0000000180028a30 f   libzmq:own.obj
 0001:00027ab0       ??$_Buynode@AEBUpiecewise_construct_t@std@@V?$tuple@AEBG@2@V?$tuple@$$V@2@@?$_Tree_comp_alloc@V?$_Tmap_traits@GUfamily_entry_t@select_t@zmq@@U?$less@G@std@@V?$allocator@U?$pair@$$CBGUfamily_entry_t@select_t@zmq@@@std@@@5@$0A@@std@@@std@@QEAAPEAU?$_Tree_node@U?$pair@$$CBGUfamily_entry_t@select_t@zmq@@@std@@PEAX@1@AEBUpiecewise_construct_t@1@$$QEAV?$tuple@AEBG@1@$$QEAV?$tuple@$$V@1@@Z 0000000180028ab0 f i libzmq:select.obj
 0001:00027b10       ??$_Insert_at@AEAU?$pair@$$CBGUfamily_entry_t@select_t@zmq@@@std@@PEAU?$_Tree_node@U?$pair@$$CBGUfamily_entry_t@select_t@zmq@@@std@@PEAX@2@@?$_Tree@V?$_Tmap_traits@GUfamily_entry_t@select_t@zmq@@U?$less@G@std@@V?$allocator@U?$pair@$$CBGUfamily_entry_t@select_t@zmq@@@std@@@5@$0A@@std@@@std@@IEAA?AV?$_Tree_iterator@V?$_Tree_val@U?$_Tree_simple_types@U?$pair@$$CBGUfamily_entry_t@select_t@zmq@@@std@@@std@@@std@@@1@_NPEAU?$_Tree_node@U?$pair@$$CBGUfamily_entry_t@select_t@zmq@@@std@@PEAX@1@AEAU?$pair@$$CBGUfamily_entry_t@select_t@zmq@@@1@1@Z 0000000180028b10 f i libzmq:select.obj
 0001:00027dc0       ??$_Insert_hint@AEAU?$pair@$$CBGUfamily_entry_t@select_t@zmq@@@std@@PEAU?$_Tree_node@U?$pair@$$CBGUfamily_entry_t@select_t@zmq@@@std@@PEAX@2@@?$_Tree@V?$_Tmap_traits@GUfamily_entry_t@select_t@zmq@@U?$less@G@std@@V?$allocator@U?$pair@$$CBGUfamily_entry_t@select_t@zmq@@@std@@@5@$0A@@std@@@std@@IEAA?AV?$_Tree_iterator@V?$_Tree_val@U?$_Tree_simple_types@U?$pair@$$CBGUfamily_entry_t@select_t@zmq@@@std@@@std@@@std@@@1@V?$_Tree_const_iterator@V?$_Tree_val@U?$_Tree_simple_types@U?$pair@$$CBGUfamily_entry_t@select_t@zmq@@@std@@@std@@@std@@@1@AEAU?$pair@$$CBGUfamily_entry_t@select_t@zmq@@@1@PEAU?$_Tree_node@U?$pair@$$CBGUfamily_entry_t@select_t@zmq@@@std@@PEAX@1@@Z 0000000180028dc0 f i libzmq:select.obj
 0001:00028030       ??$_Insert_nohint@AEAU?$pair@$$CBGUfamily_entry_t@select_t@zmq@@@std@@PEAU?$_Tree_node@U?$pair@$$CBGUfamily_entry_t@select_t@zmq@@@std@@PEAX@2@@?$_Tree@V?$_Tmap_traits@GUfamily_entry_t@select_t@zmq@@U?$less@G@std@@V?$allocator@U?$pair@$$CBGUfamily_entry_t@select_t@zmq@@@std@@@5@$0A@@std@@@std@@IEAA?AU?$pair@V?$_Tree_iterator@V?$_Tree_val@U?$_Tree_simple_types@U?$pair@$$CBGUfamily_entry_t@select_t@zmq@@@std@@@std@@@std@@@std@@_N@1@_NAEAU?$pair@$$CBGUfamily_entry_t@select_t@zmq@@@1@PEAU?$_Tree_node@U?$pair@$$CBGUfamily_entry_t@select_t@zmq@@@std@@PEAX@1@@Z 0000000180029030 f i libzmq:select.obj
 0001:00028190       ??0family_entry_t@select_t@zmq@@QEAA@XZ 0000000180029190 f   libzmq:select.obj
 0001:000281c0       ??0fds_set_t@select_t@zmq@@QEAA@AEBU012@@Z 00000001800291c0 f   libzmq:select.obj
 0001:00028330       ??0fds_set_t@select_t@zmq@@QEAA@XZ 0000000180029330 f   libzmq:select.obj
 0001:00028350       ??0select_t@zmq@@QEAA@AEBVctx_t@1@@Z 0000000180029350 f   libzmq:select.obj
 0001:000283d0       ??0wsa_events_t@select_t@zmq@@QEAA@XZ 00000001800293d0 f   libzmq:select.obj
 0001:00028570       ??1?$_Tree@V?$_Tmap_traits@GUfamily_entry_t@select_t@zmq@@U?$less@G@std@@V?$allocator@U?$pair@$$CBGUfamily_entry_t@select_t@zmq@@@std@@@5@$0A@@std@@@std@@QEAA@XZ 0000000180029570 f i libzmq:select.obj
 0001:000285e0       ??1select_t@zmq@@UEAA@XZ   00000001800295e0 f   libzmq:select.obj
 0001:00028620       ??1wsa_events_t@select_t@zmq@@QEAA@XZ 0000000180029620 f   libzmq:select.obj
 0001:000287e0       ??_Gselect_t@zmq@@UEAAPEAXI@Z 00000001800297e0 f i libzmq:select.obj
 0001:000287e0       ??_Eselect_t@zmq@@UEAAPEAXI@Z 00000001800297e0 f i libzmq:select.obj
 0001:00028820       ?_Buyheadnode@?$_Tree_comp_alloc@V?$_Tmap_traits@GUfamily_entry_t@select_t@zmq@@U?$less@G@std@@V?$allocator@U?$pair@$$CBGUfamily_entry_t@select_t@zmq@@@std@@@5@$0A@@std@@@std@@QEAAPEAU?$_Tree_node@U?$pair@$$CBGUfamily_entry_t@select_t@zmq@@@std@@PEAX@2@XZ 0000000180029820 f i libzmq:select.obj
 0001:00028890       ?_Buynode0@?$_Tree_comp_alloc@V?$_Tmap_traits@GUfamily_entry_t@select_t@zmq@@U?$less@G@std@@V?$allocator@U?$pair@$$CBGUfamily_entry_t@select_t@zmq@@@std@@@5@$0A@@std@@@std@@QEAAPEAU?$_Tree_node@U?$pair@$$CBGUfamily_entry_t@select_t@zmq@@@std@@PEAX@2@XZ 0000000180029890 f i libzmq:select.obj
 0001:00028900       ?_Destroy_if_not_nil@?$_Tree@V?$_Tmap_traits@GUfamily_entry_t@select_t@zmq@@U?$less@G@std@@V?$allocator@U?$pair@$$CBGUfamily_entry_t@select_t@zmq@@@std@@@5@$0A@@std@@@std@@IEAAXPEAU?$_Tree_node@U?$pair@$$CBGUfamily_entry_t@select_t@zmq@@@std@@PEAX@2@@Z 0000000180029900 f i libzmq:select.obj
 0001:00028980       ?_Erase@?$_Tree@V?$_Tmap_traits@GUfamily_entry_t@select_t@zmq@@U?$less@G@std@@V?$allocator@U?$pair@$$CBGUfamily_entry_t@select_t@zmq@@@std@@@5@$0A@@std@@@std@@IEAAXPEAU?$_Tree_node@U?$pair@$$CBGUfamily_entry_t@select_t@zmq@@@std@@PEAX@2@@Z 0000000180029980 f i libzmq:select.obj
 0001:00028ab0       ?_Freenode0@?$_Tree_comp_alloc@V?$_Tmap_traits@GUfamily_entry_t@select_t@zmq@@U?$less@G@std@@V?$allocator@U?$pair@$$CBGUfamily_entry_t@select_t@zmq@@@std@@@5@$0A@@std@@@std@@QEAAXPEAU?$_Tree_node@U?$pair@$$CBGUfamily_entry_t@select_t@zmq@@@std@@PEAX@2@@Z 0000000180029ab0 f i libzmq:select.obj
 0001:00028b00       ?_Reallocate@?$vector@Ufd_entry_t@select_t@zmq@@V?$allocator@Ufd_entry_t@select_t@zmq@@@std@@@std@@IEAAX_K@Z 0000000180029b00 f i libzmq:select.obj
 0001:00028b90       ?_Reserve@?$vector@Ufd_entry_t@select_t@zmq@@V?$allocator@Ufd_entry_t@select_t@zmq@@@std@@@std@@IEAAX_K@Z 0000000180029b90 f i libzmq:select.obj
 0001:00028c20       ?add_fd@select_t@zmq@@QEAA_K_KPEAUi_poll_events@2@@Z 0000000180029c20 f   libzmq:select.obj
 0001:00028e00       ?allocate@?$allocator@Ufd_entry_t@select_t@zmq@@@std@@QEAAPEAUfd_entry_t@select_t@zmq@@_K@Z 0000000180029e00 f i libzmq:select.obj
 0001:00028e80       ?deallocate@?$_Wrap_alloc@V?$allocator@Ufd_entry_t@select_t@zmq@@@std@@@std@@QEAAXPEAUfd_entry_t@select_t@zmq@@_K@Z 0000000180029e80 f i libzmq:select.obj
 0001:00028ef0       ?erase@?$_Tree@V?$_Tmap_traits@GUfamily_entry_t@select_t@zmq@@U?$less@G@std@@V?$allocator@U?$pair@$$CBGUfamily_entry_t@select_t@zmq@@@std@@@5@$0A@@std@@@std@@QEAA?AV?$_Tree_iterator@V?$_Tree_val@U?$_Tree_simple_types@U?$pair@$$CBGUfamily_entry_t@select_t@zmq@@@std@@@std@@@std@@@2@V?$_Tree_const_iterator@V?$_Tree_val@U?$_Tree_simple_types@U?$pair@$$CBGUfamily_entry_t@select_t@zmq@@@std@@@std@@@std@@@2@0@Z 0000000180029ef0 f i libzmq:select.obj
 0001:00028fe0       ?erase@?$_Tree@V?$_Tmap_traits@GUfamily_entry_t@select_t@zmq@@U?$less@G@std@@V?$allocator@U?$pair@$$CBGUfamily_entry_t@select_t@zmq@@@std@@@5@$0A@@std@@@std@@QEAA?AV?$_Tree_iterator@V?$_Tree_val@U?$_Tree_simple_types@U?$pair@$$CBGUfamily_entry_t@select_t@zmq@@@std@@@std@@@std@@@2@V?$_Tree_const_iterator@V?$_Tree_val@U?$_Tree_simple_types@U?$pair@$$CBGUfamily_entry_t@select_t@zmq@@@std@@@std@@@std@@@2@@Z 0000000180029fe0 f i libzmq:select.obj
 0001:00029460       ?get_fd_family@select_t@zmq@@CAG_K@Z 000000018002a460 f   libzmq:select.obj
 0001:00029520       ?is_retired_fd@select_t@zmq@@CA_NAEBUfd_entry_t@12@@Z 000000018002a520 f   libzmq:select.obj
 0001:00029530       ?loop@select_t@zmq@@AEAAXXZ 000000018002a530 f   libzmq:select.obj
 0001:00029b40       ?max_fds@select_t@zmq@@SAHXZ 000000018002ab40 f   libzmq:select.obj
 0001:00029b50       ?remove_fd@fds_set_t@select_t@zmq@@QEAAXAEB_K@Z 000000018002ab50 f   libzmq:select.obj
 0001:00029c80       ?reset_pollin@select_t@zmq@@QEAAX_K@Z 000000018002ac80 f   libzmq:select.obj
 0001:0002a030       ?reset_pollout@select_t@zmq@@QEAAX_K@Z 000000018002b030 f   libzmq:select.obj
 0001:0002a3f0       ?rm_fd@select_t@zmq@@QEAAX_K@Z 000000018002b3f0 f   libzmq:select.obj
 0001:0002a5f0       ?set_pollin@select_t@zmq@@QEAAX_K@Z 000000018002b5f0 f   libzmq:select.obj
 0001:0002a980       ?set_pollout@select_t@zmq@@QEAAX_K@Z 000000018002b980 f   libzmq:select.obj
 0001:0002ad20       ?start@select_t@zmq@@QEAAXXZ 000000018002bd20 f   libzmq:select.obj
 0001:0002ad40       ?stop@select_t@zmq@@QEAAXXZ 000000018002bd40 f   libzmq:select.obj
 0001:0002ad50       ?worker_routine@select_t@zmq@@CAXPEAX@Z 000000018002bd50 f   libzmq:select.obj
 0001:0002ad60       ??0?$ypipe_conflate_t@Vmsg_t@zmq@@@zmq@@QEAA@XZ 000000018002bd60 f i libzmq:pipe.obj
 0001:0002adf0       ??0?$ypipe_t@Vmsg_t@zmq@@$0BAA@@zmq@@QEAA@XZ 000000018002bdf0 f i libzmq:pipe.obj
 0001:0002ae70       ??0?$yqueue_t@Vmsg_t@zmq@@$0BAA@@zmq@@QEAA@XZ 000000018002be70 f i libzmq:pipe.obj
 0001:0002af00       ??0pipe_t@zmq@@AEAA@PEAVobject_t@1@PEAV?$ypipe_base_t@Vmsg_t@zmq@@@1@1HH_N@Z 000000018002bf00 f   libzmq:pipe.obj
 0001:0002b010       ??1?$basic_string@EU?$char_traits@E@std@@V?$allocator@E@2@@std@@QEAA@XZ 000000018002c010 f i libzmq:pipe.obj
 0001:0002b010       ??1?$basic_string@DU?$char_traits@D@std@@V?$allocator@D@2@@std@@QEAA@XZ 000000018002c010 f i libzmq:ctx.obj
 0001:0002b0a0       ??1?$ypipe_base_t@Vmsg_t@zmq@@@zmq@@UEAA@XZ 000000018002c0a0 f i libzmq:pipe.obj
 0001:0002b0b0       ??1?$yqueue_t@Vmsg_t@zmq@@$0BAA@@zmq@@QEAA@XZ 000000018002c0b0 f i libzmq:pipe.obj
 0001:0002b100       ??1pipe_t@zmq@@EEAA@XZ     000000018002c100 f   libzmq:pipe.obj
 0001:0002b180       ??4?$basic_string@EU?$char_traits@E@std@@V?$allocator@E@2@@std@@QEAAAEAV01@$$QEAV01@@Z 000000018002c180 f i libzmq:pipe.obj
 0001:0002b238       ??_Epipe_t@zmq@@GBI@EAAPEAXI@Z 000000018002c238 f i libzmq:pipe.obj
 0001:0002b244       ??_Epipe_t@zmq@@GCI@EAAPEAXI@Z 000000018002c244 f i libzmq:pipe.obj
 0001:0002b250       ??_Epipe_t@zmq@@GDI@EAAPEAXI@Z 000000018002c250 f i libzmq:pipe.obj
 0001:0002b260       ??_E?$array_item_t@$00@zmq@@UEAAPEAXI@Z 000000018002c260 f i libzmq:pipe.obj
 0001:0002b260       ??_G?$array_item_t@$00@zmq@@UEAAPEAXI@Z 000000018002c260 f i libzmq:pipe.obj
 0001:0002b290       ??_G?$array_item_t@$01@zmq@@UEAAPEAXI@Z 000000018002c290 f i libzmq:pipe.obj
 0001:0002b290       ??_E?$array_item_t@$01@zmq@@UEAAPEAXI@Z 000000018002c290 f i libzmq:pipe.obj
 0001:0002b2c0       ??_E?$array_item_t@$02@zmq@@UEAAPEAXI@Z 000000018002c2c0 f i libzmq:pipe.obj
 0001:0002b2c0       ??_G?$array_item_t@$02@zmq@@UEAAPEAXI@Z 000000018002c2c0 f i libzmq:pipe.obj
 0001:0002b2f0       ??_E?$ypipe_base_t@Vmsg_t@zmq@@@zmq@@UEAAPEAXI@Z 000000018002c2f0 f i libzmq:pipe.obj
 0001:0002b2f0       ??_G?$ypipe_base_t@Vmsg_t@zmq@@@zmq@@UEAAPEAXI@Z 000000018002c2f0 f i libzmq:pipe.obj
 0001:0002b320       ??_G?$ypipe_conflate_t@Vmsg_t@zmq@@@zmq@@UEAAPEAXI@Z 000000018002c320 f i libzmq:pipe.obj
 0001:0002b320       ??_E?$ypipe_conflate_t@Vmsg_t@zmq@@@zmq@@UEAAPEAXI@Z 000000018002c320 f i libzmq:pipe.obj
 0001:0002b3a0       ??_G?$ypipe_t@Vmsg_t@zmq@@$0BAA@@zmq@@UEAAPEAXI@Z 000000018002c3a0 f i libzmq:pipe.obj
 0001:0002b3a0       ??_E?$ypipe_t@Vmsg_t@zmq@@$0BAA@@zmq@@UEAAPEAXI@Z 000000018002c3a0 f i libzmq:pipe.obj
 0001:0002b430       ??_Gpipe_t@zmq@@EEAAPEAXI@Z 000000018002c430 f i libzmq:pipe.obj
 0001:0002b430       ??_Epipe_t@zmq@@EEAAPEAXI@Z 000000018002c430 f i libzmq:pipe.obj
 0001:0002b470       ?_Assign_rv@?$basic_string@EU?$char_traits@E@std@@V?$allocator@E@2@@std@@QEAAX$$QEAV12@@Z 000000018002c470 f i libzmq:pipe.obj
 0001:0002b4f0       ?_Copy@?$basic_string@EU?$char_traits@E@std@@V?$allocator@E@2@@std@@QEAAX_K0@Z 000000018002c4f0 f i libzmq:pipe.obj
 0001:0002b6a0       ?assign@?$basic_string@EU?$char_traits@E@std@@V?$allocator@E@2@@std@@QEAAAEAV12@AEBV12@_K1@Z 000000018002c6a0 f i libzmq:pipe.obj
 0001:0002b7e0       ?assign@?$basic_string@EU?$char_traits@E@std@@V?$allocator@E@2@@std@@QEAAAEAV12@PEBE_K@Z 000000018002c7e0 f i libzmq:pipe.obj
 0001:0002b930       ?check_hwm@pipe_t@zmq@@QEBA_NXZ 000000018002c930 f   libzmq:pipe.obj
 0001:0002b960       ?check_read@?$ypipe_conflate_t@Vmsg_t@zmq@@@zmq@@UEAA_NXZ 000000018002c960 f i libzmq:pipe.obj
 0001:0002b9c0       ?check_read@pipe_t@zmq@@QEAA_NXZ 000000018002c9c0 f   libzmq:pipe.obj
 0001:0002baa0       ?check_write@pipe_t@zmq@@QEAA_NXZ 000000018002caa0 f   libzmq:pipe.obj
 0001:0002bae0       ?compute_lwm@pipe_t@zmq@@CAHH@Z 000000018002cae0 f   libzmq:pipe.obj
 0001:0002baf0       ?erase@?$basic_string@EU?$char_traits@E@std@@V?$allocator@E@2@@std@@QEAAAEAV12@_K0@Z 000000018002caf0 f i libzmq:pipe.obj
 0001:0002bbc0       ?flush@?$ypipe_conflate_t@Vmsg_t@zmq@@@zmq@@UEAA_NXZ 000000018002cbc0 f i libzmq:pipe.obj
 0001:0002bbd0       ?flush@?$ypipe_t@Vmsg_t@zmq@@$0BAA@@zmq@@UEAA_NXZ 000000018002cbd0 f i libzmq:pipe.obj
 0001:0002bbd0       ?flush@?$ypipe_t@Ucommand_t@zmq@@$0BA@@zmq@@UEAA_NXZ 000000018002cbd0 f i libzmq:mailbox.obj
 0001:0002bc00       ?flush@pipe_t@zmq@@QEAAXXZ 000000018002cc00 f   libzmq:pipe.obj
 0001:0002bc40       ?get_credential@pipe_t@zmq@@QEBA?AV?$basic_string@EU?$char_traits@E@std@@V?$allocator@E@2@@std@@XZ 000000018002cc40 f   libzmq:pipe.obj
 0001:0002bc80       ?get_identity@pipe_t@zmq@@QEAA?AV?$basic_string@EU?$char_traits@E@std@@V?$allocator@E@2@@std@@XZ 000000018002cc80 f   libzmq:pipe.obj
 0001:0002bcc0       ?get_routing_id@pipe_t@zmq@@QEAAIXZ 000000018002ccc0 f   libzmq:pipe.obj
 0001:0002bcd0       ?hiccup@pipe_t@zmq@@QEAAXXZ 000000018002ccd0 f   libzmq:pipe.obj
 0001:0002bdc0       ?is_delimiter@pipe_t@zmq@@CA_NAEBVmsg_t@2@@Z 000000018002cdc0 f   libzmq:pipe.obj
 0001:0002bdd0       ?move@?$_Char_traits@EJ@std@@SAPEAEPEAEPEBE_K@Z 000000018002cdd0 f i libzmq:pipe.obj
 0001:0002be40       ?pipepair@zmq@@YAHQEAPEAVobject_t@1@QEAPEAVpipe_t@1@QEAHQEA_N@Z 000000018002ce40 f   libzmq:pipe.obj
 0001:0002c110       ?probe@?$ypipe_conflate_t@Vmsg_t@zmq@@@zmq@@UEAA_NP6A_NAEBVmsg_t@2@@Z@Z 000000018002d110 f i libzmq:pipe.obj
 0001:0002c170       ?process_activate_read@pipe_t@zmq@@EEAAXXZ 000000018002d170 f   libzmq:pipe.obj
 0001:0002c1a0       ?process_activate_write@pipe_t@zmq@@EEAAX_K@Z 000000018002d1a0 f   libzmq:pipe.obj
 0001:0002c1d0       ?process_delimiter@pipe_t@zmq@@AEAAXXZ 000000018002d1d0 f   libzmq:pipe.obj
 0001:0002c280       ?process_hiccup@pipe_t@zmq@@EEAAXPEAX@Z 000000018002d280 f   libzmq:pipe.obj
 0001:0002c460       ?process_pipe_hwm@pipe_t@zmq@@EEAAXHH@Z 000000018002d460 f   libzmq:pipe.obj
 0001:0002c470       ?process_pipe_term@pipe_t@zmq@@EEAAXXZ 000000018002d470 f   libzmq:pipe.obj
 0001:0002c540       ?process_pipe_term_ack@pipe_t@zmq@@EEAAXXZ 000000018002d540 f   libzmq:pipe.obj
 0001:0002c730       ?push@?$yqueue_t@Vmsg_t@zmq@@$0BAA@@zmq@@QEAAXXZ 000000018002d730 f i libzmq:pipe.obj
 0001:0002c810       ?read@?$dbuffer_t@Vmsg_t@zmq@@@zmq@@QEAA_NPEAVmsg_t@2@@Z 000000018002d810 f i libzmq:pipe.obj
 0001:0002c920       ?read@?$ypipe_conflate_t@Vmsg_t@zmq@@@zmq@@UEAA_NPEAVmsg_t@2@@Z 000000018002d920 f i libzmq:pipe.obj
 0001:0002c960       ?read@?$ypipe_t@Vmsg_t@zmq@@$0BAA@@zmq@@UEAA_NPEAVmsg_t@2@@Z 000000018002d960 f i libzmq:pipe.obj
 0001:0002c9f0       ?read@pipe_t@zmq@@QEAA_NPEAVmsg_t@2@@Z 000000018002d9f0 f   libzmq:pipe.obj
 0001:0002cc00       ?rollback@pipe_t@zmq@@QEAAXXZ 000000018002dc00 f   libzmq:pipe.obj
 0001:0002cd40       ?send_hwms_to_peer@pipe_t@zmq@@QEAAXHH@Z 000000018002dd40 f   libzmq:pipe.obj
 0001:0002cd60       ?set_event_sink@pipe_t@zmq@@QEAAXPEAUi_pipe_events@2@@Z 000000018002dd60 f   libzmq:pipe.obj
 0001:0002cdf0       ?set_hwms@pipe_t@zmq@@QEAAXHH@Z 000000018002ddf0 f   libzmq:pipe.obj
 0001:0002ce50       ?set_hwms_boost@pipe_t@zmq@@QEAAXHH@Z 000000018002de50 f   libzmq:pipe.obj
 0001:0002ce60       ?set_identity@pipe_t@zmq@@QEAAXAEBV?$basic_string@EU?$char_traits@E@std@@V?$allocator@E@2@@std@@@Z 000000018002de60 f   libzmq:pipe.obj
 0001:0002ce80       ?set_nodelay@pipe_t@zmq@@QEAAXXZ 000000018002de80 f   libzmq:pipe.obj
 0001:0002ce90       ?set_peer@pipe_t@zmq@@AEAAXPEAV12@@Z 000000018002de90 f   libzmq:pipe.obj
 0001:0002cf20       ?set_routing_id@pipe_t@zmq@@QEAAXI@Z 000000018002df20 f   libzmq:pipe.obj
 0001:0002cf30       ?terminate@pipe_t@zmq@@QEAAX_N@Z 000000018002df30 f   libzmq:pipe.obj
 0001:0002d060       ?unpush@?$yqueue_t@Vmsg_t@zmq@@$0BAA@@zmq@@QEAAXXZ 000000018002e060 f i libzmq:pipe.obj
 0001:0002d0e0       ?unwrite@?$ypipe_t@Vmsg_t@zmq@@$0BAA@@zmq@@UEAA_NPEAVmsg_t@2@@Z 000000018002e0e0 f i libzmq:pipe.obj
 0001:0002d160       ?write@?$dbuffer_t@Vmsg_t@zmq@@@zmq@@QEAAXAEBVmsg_t@2@@Z 000000018002e160 f i libzmq:pipe.obj
 0001:0002d290       ?write@?$ypipe_conflate_t@Vmsg_t@zmq@@@zmq@@UEAAXAEBVmsg_t@2@_N@Z 000000018002e290 f i libzmq:pipe.obj
 0001:0002d2a0       ?write@?$ypipe_t@Vmsg_t@zmq@@$0BAA@@zmq@@UEAAXAEBVmsg_t@2@_N@Z 000000018002e2a0 f i libzmq:pipe.obj
 0001:0002d320       ?write@pipe_t@zmq@@QEAA_NPEAVmsg_t@2@@Z 000000018002e320 f   libzmq:pipe.obj
 0001:0002d3a0       ??0io_thread_t@zmq@@QEAA@PEAVctx_t@1@I@Z 000000018002e3a0 f   libzmq:io_thread.obj
 0001:0002d4a0       ??1io_thread_t@zmq@@UEAA@XZ 000000018002e4a0 f   libzmq:io_thread.obj
 0001:0002d500       ??_Eio_thread_t@zmq@@WBI@EAAPEAXI@Z 000000018002e500 f i libzmq:io_thread.obj
 0001:0002d510       ??_Eio_thread_t@zmq@@UEAAPEAXI@Z 000000018002e510 f i libzmq:io_thread.obj
 0001:0002d510       ??_Gio_thread_t@zmq@@UEAAPEAXI@Z 000000018002e510 f i libzmq:io_thread.obj
 0001:0002d550       ?get_load@io_thread_t@zmq@@QEAAHXZ 000000018002e550 f   libzmq:io_thread.obj
 0001:0002d560       ?get_mailbox@reaper_t@zmq@@QEAAPEAVmailbox_t@2@XZ 000000018002e560 f   libzmq:reaper.obj
 0001:0002d560       ?dest_addr@udp_address_t@zmq@@QEBAPEBUsockaddr@@XZ 000000018002e560 f   libzmq:udp_address.obj
 0001:0002d560       ?get_mailbox@io_thread_t@zmq@@QEAAPEAVmailbox_t@2@XZ 000000018002e560 f   libzmq:io_thread.obj
 0001:0002d570       ?get_poller@io_thread_t@zmq@@QEAAPEAVselect_t@2@XZ 000000018002e570 f   libzmq:io_thread.obj
 0001:0002d5f0       ?in_event@io_thread_t@zmq@@UEAAXXZ 000000018002e5f0 f   libzmq:io_thread.obj
 0001:0002d6b0       ?out_event@io_thread_t@zmq@@UEAAXXZ 000000018002e6b0 f   libzmq:io_thread.obj
 0001:0002d710       ?process_stop@io_thread_t@zmq@@UEAAXXZ 000000018002e710 f   libzmq:io_thread.obj
 0001:0002d740       ?timer_event@io_thread_t@zmq@@UEAAXH@Z 000000018002e740 f   libzmq:io_thread.obj
 0001:0002d7a0       ??0reaper_t@zmq@@QEAA@PEAVctx_t@1@I@Z 000000018002e7a0 f   libzmq:reaper.obj
 0001:0002d8d0       ??1reaper_t@zmq@@UEAA@XZ   000000018002e8d0 f   libzmq:reaper.obj
 0001:0002d930       ??_Ereaper_t@zmq@@WBI@EAAPEAXI@Z 000000018002e930 f i libzmq:reaper.obj
 0001:0002d940       ??_Greaper_t@zmq@@UEAAPEAXI@Z 000000018002e940 f i libzmq:reaper.obj
 0001:0002d940       ??_Ereaper_t@zmq@@UEAAPEAXI@Z 000000018002e940 f i libzmq:reaper.obj
 0001:0002d980       ?in_event@reaper_t@zmq@@UEAAXXZ 000000018002e980 f   libzmq:reaper.obj
 0001:0002da50       ?out_event@reaper_t@zmq@@UEAAXXZ 000000018002ea50 f   libzmq:reaper.obj
 0001:0002dab0       ?process_reap@reaper_t@zmq@@EEAAXPEAVsocket_base_t@2@@Z 000000018002eab0 f   libzmq:reaper.obj
 0001:0002dae0       ?process_reaped@reaper_t@zmq@@EEAAXXZ 000000018002eae0 f   libzmq:reaper.obj
 0001:0002db30       ?process_stop@reaper_t@zmq@@EEAAXXZ 000000018002eb30 f   libzmq:reaper.obj
 0001:0002db80       ?start@reaper_t@zmq@@QEAAXXZ 000000018002eb80 f   libzmq:reaper.obj
 0001:0002db80       ?start@io_thread_t@zmq@@QEAAXXZ 000000018002eb80 f   libzmq:io_thread.obj
 0001:0002db90       ?timer_event@reaper_t@zmq@@UEAAXH@Z 000000018002eb90 f   libzmq:reaper.obj
 0001:0002dbf0       ??0signaler_t@zmq@@QEAA@XZ 000000018002ebf0 f   libzmq:signaler.obj
 0001:0002dc30       ??1signaler_t@zmq@@QEAA@XZ 000000018002ec30 f   libzmq:signaler.obj
 0001:0002ddd0       ?make_fdpair@signaler_t@zmq@@CAHPEA_K0@Z 000000018002edd0 f   libzmq:signaler.obj
 0001:0002e440       ?recv@signaler_t@zmq@@QEAAXXZ 000000018002f440 f   libzmq:signaler.obj
 0001:0002e570       ?recv_failable@signaler_t@zmq@@QEAAHXZ 000000018002f570 f   libzmq:signaler.obj
 0001:0002e6c0       ?send@signaler_t@zmq@@QEAAXXZ 000000018002f6c0 f   libzmq:signaler.obj
 0001:0002e7a0       ?wait@signaler_t@zmq@@QEAAHH@Z 000000018002f7a0 f   libzmq:signaler.obj
 0001:0002e910       ??0tcp_listener_t@zmq@@QEAA@PEAVio_thread_t@1@PEAVsocket_base_t@1@AEBUoptions_t@1@@Z 000000018002f910 f   libzmq:tcp_listener.obj
 0001:0002e9d0       ??1tcp_listener_t@zmq@@UEAA@XZ 000000018002f9d0 f   libzmq:tcp_listener.obj
 0001:0002ea94       ??_Etcp_listener_t@zmq@@WDCI@EAAPEAXI@Z 000000018002fa94 f i libzmq:tcp_listener.obj
 0001:0002eaa0       ??_Gtcp_listener_t@zmq@@UEAAPEAXI@Z 000000018002faa0 f i libzmq:tcp_listener.obj
 0001:0002eaa0       ??_Etcp_listener_t@zmq@@UEAAPEAXI@Z 000000018002faa0 f i libzmq:tcp_listener.obj
 0001:0002eae0       ?accept@tcp_listener_t@zmq@@AEAA_KXZ 000000018002fae0 f   libzmq:tcp_listener.obj
 0001:0002ee10       ?close@tcp_listener_t@zmq@@AEAAXXZ 000000018002fe10 f   libzmq:tcp_listener.obj
 0001:0002ef10       ?get_address@tcp_listener_t@zmq@@QEAAHAEAV?$basic_string@DU?$char_traits@D@std@@V?$allocator@D@2@@std@@@Z 000000018002ff10 f   libzmq:tcp_listener.obj
 0001:0002efc0       ?in_event@tcp_listener_t@zmq@@EEAAXXZ 000000018002ffc0 f   libzmq:tcp_listener.obj
 0001:0002f210       ?process_plug@tcp_listener_t@zmq@@EEAAXXZ 0000000180030210 f   libzmq:tcp_listener.obj
 0001:0002f250       ?process_term@tcp_listener_t@zmq@@EEAAXH@Z 0000000180030250 f   libzmq:tcp_listener.obj
 0001:0002f290       ?set_address@tcp_listener_t@zmq@@QEAAHPEBD@Z 0000000180030290 f   libzmq:tcp_listener.obj
 0001:0002f5c0       ??$_Buynode@AEBQEAVpipe_t@zmq@@@?$_Tree_comp_alloc@V?$_Tset_traits@PEAVpipe_t@zmq@@U?$less@PEAVpipe_t@zmq@@@std@@V?$allocator@PEAVpipe_t@zmq@@@4@$0A@@std@@@std@@QEAAPEAU?$_Tree_node@PEAVpipe_t@zmq@@PEAX@1@AEBQEAVpipe_t@zmq@@@Z 00000001800305c0 f i libzmq:session_base.obj
 0001:0002f600       ??$_Distance1@V?$_Tree_const_iterator@V?$_Tree_val@U?$_Tree_simple_types@PEAVpipe_t@zmq@@@std@@@std@@@std@@@std@@YA_JV?$_Tree_const_iterator@V?$_Tree_val@U?$_Tree_simple_types@PEAVpipe_t@zmq@@@std@@@std@@@0@0Uinput_iterator_tag@0@@Z 0000000180030600 f i libzmq:session_base.obj
 0001:0002f680       ??$_Insert_at@AEBQEAVpipe_t@zmq@@U_Nil@std@@@?$_Tree@V?$_Tset_traits@PEAVpipe_t@zmq@@U?$less@PEAVpipe_t@zmq@@@std@@V?$allocator@PEAVpipe_t@zmq@@@4@$0A@@std@@@std@@IEAA?AV?$_Tree_const_iterator@V?$_Tree_val@U?$_Tree_simple_types@PEAVpipe_t@zmq@@@std@@@std@@@1@_NPEAU?$_Tree_node@PEAVpipe_t@zmq@@PEAX@1@AEBQEAVpipe_t@zmq@@U_Nil@1@@Z 0000000180030680 f i libzmq:session_base.obj
 0001:0002f950       ??$_Insert_nohint@AEBQEAVpipe_t@zmq@@U_Nil@std@@@?$_Tree@V?$_Tset_traits@PEAVpipe_t@zmq@@U?$less@PEAVpipe_t@zmq@@@std@@V?$allocator@PEAVpipe_t@zmq@@@4@$0A@@std@@@std@@IEAA?AU?$pair@V?$_Tree_const_iterator@V?$_Tree_val@U?$_Tree_simple_types@PEAVpipe_t@zmq@@@std@@@std@@@std@@_N@1@_NAEBQEAVpipe_t@zmq@@U_Nil@1@@Z 0000000180030950 f i libzmq:session_base.obj
 0001:0002fab0       ??0session_base_t@zmq@@IEAA@PEAVio_thread_t@1@_NPEAVsocket_base_t@1@AEBUoptions_t@1@PEAUaddress_t@1@@Z 0000000180030ab0 f   libzmq:session_base.obj
 0001:0002fba0       ??1session_base_t@zmq@@MEAA@XZ 0000000180030ba0 f   libzmq:session_base.obj
 0001:0002fd5c       ??_Esession_base_t@zmq@@ODCI@EAAPEAXI@Z 0000000180030d5c f i libzmq:session_base.obj
 0001:0002fd68       ??_Esession_base_t@zmq@@ODDI@EAAPEAXI@Z 0000000180030d68 f i libzmq:session_base.obj
 0001:0002fd80       ??_Gsession_base_t@zmq@@MEAAPEAXI@Z 0000000180030d80 f i libzmq:session_base.obj
 0001:0002fd80       ??_Esession_base_t@zmq@@MEAAPEAXI@Z 0000000180030d80 f i libzmq:session_base.obj
 0001:0002fdc0       ?_Buyheadnode@?$_Tree_comp_alloc@V?$_Tset_traits@PEAVpipe_t@zmq@@U?$less@PEAVpipe_t@zmq@@@std@@V?$allocator@PEAVpipe_t@zmq@@@4@$0A@@std@@@std@@QEAAPEAU?$_Tree_node@PEAVpipe_t@zmq@@PEAX@2@XZ 0000000180030dc0 f i libzmq:session_base.obj
 0001:0002fe20       ?_Buynode0@?$_Tree_comp_alloc@V?$_Tset_traits@PEAVpipe_t@zmq@@U?$less@PEAVpipe_t@zmq@@@std@@V?$allocator@PEAVpipe_t@zmq@@@4@$0A@@std@@@std@@QEAAPEAU?$_Tree_node@PEAVpipe_t@zmq@@PEAX@2@XZ 0000000180030e20 f i libzmq:session_base.obj
 0001:0002fe80       ?attach_pipe@session_base_t@zmq@@QEAAXPEAVpipe_t@2@@Z 0000000180030e80 f   libzmq:session_base.obj
 0001:0002ffb0       ?clean_pipes@session_base_t@zmq@@AEAAXXZ 0000000180030fb0 f   libzmq:session_base.obj
 0001:000301b0       ?clear@?$_Tree@V?$_Tset_traits@PEAVpipe_t@zmq@@U?$less@PEAVpipe_t@zmq@@@std@@V?$allocator@PEAVpipe_t@zmq@@@4@$0A@@std@@@std@@QEAAXXZ 00000001800311b0 f i libzmq:session_base.obj
 0001:00030230       ?create@session_base_t@zmq@@SAPEAV12@PEAVio_thread_t@2@_NPEAVsocket_base_t@2@AEBUoptions_t@2@PEAUaddress_t@2@@Z 0000000180031230 f   libzmq:session_base.obj
 0001:00030450       ?engine_error@session_base_t@zmq@@QEAAXW4error_reason_t@stream_engine_t@2@@Z 0000000180031450 f   libzmq:session_base.obj
 0001:00030520       ?erase@?$_Tree@V?$_Tset_traits@PEAVpipe_t@zmq@@U?$less@PEAVpipe_t@zmq@@@std@@V?$allocator@PEAVpipe_t@zmq@@@4@$0A@@std@@@std@@QEAA?AV?$_Tree_const_iterator@V?$_Tree_val@U?$_Tree_simple_types@PEAVpipe_t@zmq@@@std@@@std@@@2@V32@0@Z 0000000180031520 f i libzmq:session_base.obj
 0001:00030600       ?erase@?$_Tree@V?$_Tset_traits@PEAVpipe_t@zmq@@U?$less@PEAVpipe_t@zmq@@@std@@V?$allocator@PEAVpipe_t@zmq@@@4@$0A@@std@@@std@@QEAA_KAEBQEAVpipe_t@zmq@@@Z 0000000180031600 f i libzmq:session_base.obj
 0001:000306d0       ?flush@session_base_t@zmq@@QEAAXXZ 00000001800316d0 f   libzmq:session_base.obj
 0001:000306f0       ?get_socket@session_base_t@zmq@@QEAAPEAVsocket_base_t@2@XZ 00000001800316f0 f   libzmq:session_base.obj
 0001:00030700       ?hiccuped@session_base_t@zmq@@UEAAXPEAVpipe_t@2@@Z 0000000180031700 f   libzmq:session_base.obj
 0001:00030760       ?pipe_terminated@session_base_t@zmq@@UEAAXPEAVpipe_t@2@@Z 0000000180031760 f   libzmq:session_base.obj
 0001:00030960       ?process_attach@session_base_t@zmq@@EEAAXPEAUi_engine@2@@Z 0000000180031960 f   libzmq:session_base.obj
 0001:00030bc0       ?process_plug@session_base_t@zmq@@EEAAXXZ 0000000180031bc0 f   libzmq:session_base.obj
 0001:00030be0       ?process_term@session_base_t@zmq@@EEAAXH@Z 0000000180031be0 f   libzmq:session_base.obj
 0001:00030d50       ?pull_msg@session_base_t@zmq@@UEAAHPEAVmsg_t@2@@Z 0000000180031d50 f   libzmq:session_base.obj
 0001:00030db0       ?push_msg@session_base_t@zmq@@UEAAHPEAVmsg_t@2@@Z 0000000180031db0 f   libzmq:session_base.obj
 0001:00030e70       ?read_activated@session_base_t@zmq@@UEAAXPEAVpipe_t@2@@Z 0000000180031e70 f   libzmq:session_base.obj
 0001:00030fe0       ?read_zap_msg@session_base_t@zmq@@QEAAHPEAVmsg_t@2@@Z 0000000180031fe0 f   libzmq:session_base.obj
 0001:00031030       ?reconnect@session_base_t@zmq@@AEAAXXZ 0000000180032030 f   libzmq:session_base.obj
 0001:00031200       ?start_connecting@session_base_t@zmq@@AEAAX_N@Z 0000000180032200 f   libzmq:session_base.obj
 0001:00031750       ?timer_event@session_base_t@zmq@@EEAAXH@Z 0000000180032750 f   libzmq:session_base.obj
 0001:00031820       ?write_activated@session_base_t@zmq@@UEAAXPEAVpipe_t@2@@Z 0000000180032820 f   libzmq:session_base.obj
 0001:00031970       ?write_zap_msg@session_base_t@zmq@@QEAAHPEAVmsg_t@2@@Z 0000000180032970 f   libzmq:session_base.obj
 0001:00031a80       ?zap_connect@session_base_t@zmq@@QEAAHXZ 0000000180032a80 f   libzmq:session_base.obj
 0001:00031da0       ?zap_enabled@session_base_t@zmq@@QEAA_NXZ 0000000180032da0 f   libzmq:session_base.obj
 0001:00031dc0       ??$?6DU?$char_traits@D@std@@V?$allocator@D@1@@std@@YAAEAV?$basic_ostream@DU?$char_traits@D@std@@@0@AEAV10@AEBV?$basic_string@DU?$char_traits@D@std@@V?$allocator@D@2@@0@@Z 0000000180032dc0 f i libzmq:address.obj
 0001:00032010       ??0address_t@zmq@@QEAA@AEBV?$basic_string@DU?$char_traits@D@std@@V?$allocator@D@2@@std@@0PEAVctx_t@1@@Z 0000000180033010 f   libzmq:address.obj
 0001:000320c0       ??1address_t@zmq@@QEAA@XZ  00000001800330c0 f   libzmq:address.obj
 0001:000321a0       ?to_string@address_t@zmq@@QEBAHAEAV?$basic_string@DU?$char_traits@D@std@@V?$allocator@D@2@@std@@@Z 00000001800331a0 f   libzmq:address.obj
 0001:00032420       ??0udp_address_t@zmq@@QEAA@XZ 0000000180033420 f   libzmq:udp_address.obj
 0001:00032460       ??1udp_address_t@zmq@@UEAA@XZ 0000000180033460 f   libzmq:udp_address.obj
 0001:00032480       ??_Gudp_address_t@zmq@@UEAAPEAXI@Z 0000000180033480 f i libzmq:udp_address.obj
 0001:00032480       ??_Eudp_address_t@zmq@@UEAAPEAXI@Z 0000000180033480 f i libzmq:udp_address.obj
 0001:000324c0       ?bind_addr@udp_address_t@zmq@@QEBAPEBUsockaddr@@XZ 00000001800334c0 f   libzmq:udp_address.obj
 0001:000324d0       ?bind_addrlen@udp_address_t@zmq@@QEBAHXZ 00000001800334d0 f   libzmq:udp_address.obj
 0001:000324d0       ?dest_addrlen@udp_address_t@zmq@@QEBAHXZ 00000001800334d0 f   libzmq:udp_address.obj
 0001:000324e0       ?family@udp_address_t@zmq@@QEBAGXZ 00000001800334e0 f   libzmq:udp_address.obj
 0001:000324f0       ?interface_ip@udp_address_t@zmq@@QEBA?BUin_addr@@XZ 00000001800334f0 f   libzmq:udp_address.obj
 0001:00032500       ?is_mcast@udp_address_t@zmq@@QEBA_NXZ 0000000180033500 f   libzmq:udp_address.obj
 0001:00032510       ?multicast_ip@udp_address_t@zmq@@QEBA?BUin_addr@@XZ 0000000180033510 f   libzmq:udp_address.obj
 0001:00032520       ?resolve@udp_address_t@zmq@@QEAAHPEBD_N@Z 0000000180033520 f   libzmq:udp_address.obj
 0001:00032810       ?to_string@udp_address_t@zmq@@UEAAHAEAV?$basic_string@DU?$char_traits@D@std@@V?$allocator@D@2@@std@@@Z 0000000180033810 f   libzmq:udp_address.obj
 0001:00032840       ??0mailbox_safe_t@zmq@@QEAA@PEAVmutex_t@1@@Z 0000000180033840 f   libzmq:mailbox_safe.obj
 0001:00032910       ??1mailbox_safe_t@zmq@@UEAA@XZ 0000000180033910 f   libzmq:mailbox_safe.obj
 0001:000329f0       ??_Gmailbox_safe_t@zmq@@UEAAPEAXI@Z 00000001800339f0 f i libzmq:mailbox_safe.obj
 0001:000329f0       ??_Emailbox_safe_t@zmq@@UEAAPEAXI@Z 00000001800339f0 f i libzmq:mailbox_safe.obj
 0001:00032a30       ?_Reallocate@?$vector@PEAVsignaler_t@zmq@@V?$allocator@PEAVsignaler_t@zmq@@@std@@@std@@IEAAX_K@Z 0000000180033a30 f i libzmq:mailbox_safe.obj
 0001:00032ac0       ?_Reserve@?$vector@PEAVsignaler_t@zmq@@V?$allocator@PEAVsignaler_t@zmq@@@std@@@std@@IEAAX_K@Z 0000000180033ac0 f i libzmq:mailbox_safe.obj
 0001:00032b50       ?add_signaler@mailbox_safe_t@zmq@@QEAAXPEAVsignaler_t@2@@Z 0000000180033b50 f   libzmq:mailbox_safe.obj
 0001:00032b70       ?clear_signalers@mailbox_safe_t@zmq@@QEAAXXZ 0000000180033b70 f   libzmq:mailbox_safe.obj
 0001:00032b80       ?push_back@?$vector@PEAVsignaler_t@zmq@@V?$allocator@PEAVsignaler_t@zmq@@@std@@@std@@QEAAXAEBQEAVsignaler_t@zmq@@@Z 0000000180033b80 f i libzmq:mailbox_safe.obj
 0001:00032c10       ?recv@mailbox_safe_t@zmq@@UEAAHPEAUcommand_t@2@H@Z 0000000180033c10 f   libzmq:mailbox_safe.obj
 0001:00032d00       ?remove_signaler@mailbox_safe_t@zmq@@QEAAXPEAVsignaler_t@2@@Z 0000000180033d00 f   libzmq:mailbox_safe.obj
 0001:00032d50       ?send@mailbox_safe_t@zmq@@UEAAXAEBUcommand_t@2@@Z 0000000180033d50 f   libzmq:mailbox_safe.obj
 0001:00032de0       ?wait@condition_variable_t@zmq@@QEAAHPEAVmutex_t@2@H@Z 0000000180033de0 f i libzmq:mailbox_safe.obj
 0001:00032eb0       ??0pair_t@zmq@@QEAA@PEAVctx_t@1@IH@Z 0000000180033eb0 f   libzmq:pair.obj
 0001:00032f30       ??1pair_t@zmq@@UEAA@XZ     0000000180033f30 f   libzmq:pair.obj
 0001:00032fec       ??_Epair_t@zmq@@WDCI@EAAPEAXI@Z 0000000180033fec f i libzmq:pair.obj
 0001:00032ff8       ??_Epair_t@zmq@@WDDI@EAAPEAXI@Z 0000000180033ff8 f i libzmq:pair.obj
 0001:00033004       ??_Epair_t@zmq@@WDEA@EAAPEAXI@Z 0000000180034004 f i libzmq:pair.obj
 0001:00033010       ??_Gpair_t@zmq@@UEAAPEAXI@Z 0000000180034010 f i libzmq:pair.obj
 0001:00033010       ??_Epair_t@zmq@@UEAAPEAXI@Z 0000000180034010 f i libzmq:pair.obj
 0001:00033050       ?get_credential@pair_t@zmq@@UEBA?AV?$basic_string@EU?$char_traits@E@std@@V?$allocator@E@2@@std@@XZ 0000000180034050 f   libzmq:pair.obj
 0001:00033200       ?xattach_pipe@pair_t@zmq@@UEAAXPEAVpipe_t@2@_N@Z 0000000180034200 f   libzmq:pair.obj
 0001:00033290       ?xhas_out@pair_t@zmq@@UEAA_NXZ 0000000180034290 f   libzmq:pair.obj
 0001:00033290       ?xhas_out@dgram_t@zmq@@UEAA_NXZ 0000000180034290 f   libzmq:dgram.obj
 0001:000332b0       ?xpipe_terminated@pair_t@zmq@@UEAAXPEAVpipe_t@2@@Z 00000001800342b0 f   libzmq:pair.obj
 0001:000332b0       ?xpipe_terminated@dgram_t@zmq@@UEAAXPEAVpipe_t@2@@Z 00000001800342b0 f   libzmq:dgram.obj
 0001:00033380       ?xrecv@pair_t@zmq@@UEAAHPEAVmsg_t@2@@Z 0000000180034380 f   libzmq:pair.obj
 0001:000334b0       ?xsend@pair_t@zmq@@UEAAHPEAVmsg_t@2@@Z 00000001800344b0 f   libzmq:pair.obj
 0001:00033580       ??0xpub_t@zmq@@QEAA@PEAVctx_t@1@IH@Z 0000000180034580 f   libzmq:xpub.obj
 0001:00033780       ??1?$deque@EV?$allocator@E@std@@@std@@QEAA@XZ 0000000180034780 f i libzmq:xpub.obj
 0001:00033780       ??1?$deque@PEAVmetadata_t@zmq@@V?$allocator@PEAVmetadata_t@zmq@@@std@@@std@@QEAA@XZ 0000000180034780 f i libzmq:xpub.obj
 0001:00033780       ??1?$deque@PEAVpipe_t@zmq@@V?$allocator@PEAVpipe_t@zmq@@@std@@@std@@QEAA@XZ 0000000180034780 f i libzmq:xpub.obj
 0001:000337b0       ??1?$deque@V?$basic_string@EU?$char_traits@E@std@@V?$allocator@E@2@@std@@V?$allocator@V?$basic_string@EU?$char_traits@E@std@@V?$allocator@E@2@@std@@@2@@std@@QEAA@XZ 00000001800347b0 f i libzmq:xpub.obj
 0001:000337e0       ??1xpub_t@zmq@@UEAA@XZ     00000001800347e0 f   libzmq:xpub.obj
 0001:00033904       ??_Expub_t@zmq@@WDCI@EAAPEAXI@Z 0000000180034904 f i libzmq:xpub.obj
 0001:00033910       ??_Expub_t@zmq@@WDDI@EAAPEAXI@Z 0000000180034910 f i libzmq:xpub.obj
 0001:0003391c       ??_Expub_t@zmq@@WDEA@EAAPEAXI@Z 000000018003491c f i libzmq:xpub.obj
 0001:00033930       ??_Gxpub_t@zmq@@UEAAPEAXI@Z 0000000180034930 f i libzmq:xpub.obj
 0001:00033930       ??_Expub_t@zmq@@UEAAPEAXI@Z 0000000180034930 f i libzmq:xpub.obj
 0001:00033970       ?_Growmap@?$deque@EV?$allocator@E@std@@@std@@IEAAX_K@Z 0000000180034970 f i libzmq:xpub.obj
 0001:00033bd0       ?_Growmap@?$deque@PEAVpipe_t@zmq@@V?$allocator@PEAVpipe_t@zmq@@@std@@@std@@IEAAX_K@Z 0000000180034bd0 f i libzmq:xpub.obj
 0001:00033bd0       ?_Growmap@?$deque@PEAVmetadata_t@zmq@@V?$allocator@PEAVmetadata_t@zmq@@@std@@@std@@IEAAX_K@Z 0000000180034bd0 f i libzmq:xpub.obj
 0001:00033e30       ?_Growmap@?$deque@V?$basic_string@EU?$char_traits@E@std@@V?$allocator@E@2@@std@@V?$allocator@V?$basic_string@EU?$char_traits@E@std@@V?$allocator@E@2@@std@@@2@@std@@IEAAX_K@Z 0000000180034e30 f i libzmq:xpub.obj
 0001:00034080       ?_Tidy@?$deque@PEAVpipe_t@zmq@@V?$allocator@PEAVpipe_t@zmq@@@std@@@std@@IEAAXXZ 0000000180035080 f i libzmq:xpub.obj
 0001:00034080       ?_Tidy@?$deque@PEAVmetadata_t@zmq@@V?$allocator@PEAVmetadata_t@zmq@@@std@@@std@@IEAAXXZ 0000000180035080 f i libzmq:xpub.obj
 0001:00034080       ?_Tidy@?$deque@EV?$allocator@E@std@@@std@@IEAAXXZ 0000000180035080 f i libzmq:xpub.obj
 0001:00034170       ?_Tidy@?$deque@V?$basic_string@EU?$char_traits@E@std@@V?$allocator@E@2@@std@@V?$allocator@V?$basic_string@EU?$char_traits@E@std@@V?$allocator@E@2@@std@@@2@@std@@IEAAXXZ 0000000180035170 f i libzmq:xpub.obj
 0001:00034300       ?assign@?$basic_string@EU?$char_traits@E@std@@V?$allocator@E@2@@std@@QEAAAEAV12@_KE@Z 0000000180035300 f i libzmq:xpub.obj
 0001:00034410       ?begin@?$deque@EV?$allocator@E@std@@@std@@QEAA?AV?$_Deque_iterator@V?$_Deque_val@U?$_Deque_simple_types@E@std@@@std@@@2@XZ 0000000180035410 f i libzmq:xpub.obj
 0001:00034410       ?begin@?$deque@PEAVmetadata_t@zmq@@V?$allocator@PEAVmetadata_t@zmq@@@std@@@std@@QEAA?AV?$_Deque_iterator@V?$_Deque_val@U?$_Deque_simple_types@PEAVmetadata_t@zmq@@@std@@@std@@@2@XZ 0000000180035410 f i libzmq:xpub.obj
 0001:00034410       ?begin@?$deque@PEAVpipe_t@zmq@@V?$allocator@PEAVpipe_t@zmq@@@std@@@std@@QEAA?AV?$_Deque_iterator@V?$_Deque_val@U?$_Deque_simple_types@PEAVpipe_t@zmq@@@std@@@std@@@2@XZ 0000000180035410 f i libzmq:xpub.obj
 0001:00034410       ?begin@?$deque@V?$basic_string@EU?$char_traits@E@std@@V?$allocator@E@2@@std@@V?$allocator@V?$basic_string@EU?$char_traits@E@std@@V?$allocator@E@2@@std@@@2@@std@@QEAA?AV?$_Deque_iterator@V?$_Deque_val@U?$_Deque_simple_types@V?$basic_string@EU?$char_traits@E@std@@V?$allocator@E@2@@std@@@std@@@std@@@2@XZ 0000000180035410 f i libzmq:xpub.obj
 0001:00034430       ?front@?$deque@PEAVpipe_t@zmq@@V?$allocator@PEAVpipe_t@zmq@@@std@@@std@@QEAAAEAPEAVpipe_t@zmq@@XZ 0000000180035430 f i libzmq:xpub.obj
 0001:00034480       ?mark_as_matching@xpub_t@zmq@@CAXPEAVpipe_t@2@PEAX@Z 0000000180035480 f   libzmq:xpub.obj
 0001:000344a0       ?push_back@?$deque@EV?$allocator@E@std@@@std@@QEAAX$$QEAE@Z 00000001800354a0 f i libzmq:xpub.obj
 0001:00034570       ?push_back@?$deque@PEAVmetadata_t@zmq@@V?$allocator@PEAVmetadata_t@zmq@@@std@@@std@@QEAAXAEBQEAVmetadata_t@zmq@@@Z 0000000180035570 f i libzmq:xpub.obj
 0001:00034570       ?push_back@?$deque@PEAVpipe_t@zmq@@V?$allocator@PEAVpipe_t@zmq@@@std@@@std@@QEAAXAEBQEAVpipe_t@zmq@@@Z 0000000180035570 f i libzmq:xpub.obj
 0001:00034570       ?push_back@?$deque@PEAVmetadata_t@zmq@@V?$allocator@PEAVmetadata_t@zmq@@@std@@@std@@QEAAX$$QEAPEAVmetadata_t@zmq@@@Z 0000000180035570 f i libzmq:xpub.obj
 0001:00034570       ?push_back@?$deque@PEAVpipe_t@zmq@@V?$allocator@PEAVpipe_t@zmq@@@std@@@std@@QEAAX$$QEAPEAVpipe_t@zmq@@@Z 0000000180035570 f i libzmq:xpub.obj
 0001:00034650       ?push_back@?$deque@V?$basic_string@EU?$char_traits@E@std@@V?$allocator@E@2@@std@@V?$allocator@V?$basic_string@EU?$char_traits@E@std@@V?$allocator@E@2@@std@@@2@@std@@QEAAX$$QEAV?$basic_string@EU?$char_traits@E@std@@V?$allocator@E@2@@2@@Z 0000000180035650 f i libzmq:xpub.obj
 0001:00034710       ?push_back@?$deque@V?$basic_string@EU?$char_traits@E@std@@V?$allocator@E@2@@std@@V?$allocator@V?$basic_string@EU?$char_traits@E@std@@V?$allocator@E@2@@std@@@2@@std@@QEAAXAEBV?$basic_string@EU?$char_traits@E@std@@V?$allocator@E@2@@2@@Z 0000000180035710 f i libzmq:xpub.obj
 0001:00034800       ?send_unsubscription@xpub_t@zmq@@CAXPEAE_KPEAX@Z 0000000180035800 f   libzmq:xpub.obj
 0001:00034a00       ?xattach_pipe@xpub_t@zmq@@UEAAXPEAVpipe_t@2@_N@Z 0000000180035a00 f   libzmq:xpub.obj
 0001:00034b20       ?xhas_in@xpub_t@zmq@@UEAA_NXZ 0000000180035b20 f   libzmq:xpub.obj
 0001:00034b30       ?xhas_out@xpub_t@zmq@@UEAA_NXZ 0000000180035b30 f   libzmq:xpub.obj
 0001:00034b40       ?xpipe_terminated@xpub_t@zmq@@UEAAXPEAVpipe_t@2@@Z 0000000180035b40 f   libzmq:xpub.obj
 0001:00034bb0       ?xread_activated@xpub_t@zmq@@UEAAXPEAVpipe_t@2@@Z 0000000180035bb0 f   libzmq:xpub.obj
 0001:000350c0       ?xrecv@xpub_t@zmq@@UEAAHPEAVmsg_t@2@@Z 00000001800360c0 f   libzmq:xpub.obj
 0001:00035400       ?xsend@xpub_t@zmq@@UEAAHPEAVmsg_t@2@@Z 0000000180036400 f   libzmq:xpub.obj
 0001:000354f0       ?xsetsockopt@xpub_t@zmq@@UEAAHHPEBX_K@Z 00000001800364f0 f   libzmq:xpub.obj
 0001:00035740       ?xwrite_activated@xpub_t@zmq@@UEAAXPEAVpipe_t@2@@Z 0000000180036740 f   libzmq:xpub.obj
 0001:00035750       ??0pub_t@zmq@@QEAA@PEAVctx_t@1@IH@Z 0000000180036750 f   libzmq:pub.obj
 0001:000357b0       ??1pub_t@zmq@@UEAA@XZ      00000001800367b0 f   libzmq:pub.obj
 0001:000357ec       ??_Epub_t@zmq@@WDCI@EAAPEAXI@Z 00000001800367ec f i libzmq:pub.obj
 0001:000357f8       ??_Epub_t@zmq@@WDDI@EAAPEAXI@Z 00000001800367f8 f i libzmq:pub.obj
 0001:00035804       ??_Epub_t@zmq@@WDEA@EAAPEAXI@Z 0000000180036804 f i libzmq:pub.obj
 0001:00035810       ??_Gpub_t@zmq@@UEAAPEAXI@Z 0000000180036810 f i libzmq:pub.obj
 0001:00035810       ??_Epub_t@zmq@@UEAAPEAXI@Z 0000000180036810 f i libzmq:pub.obj
 0001:00035850       ?xattach_pipe@pub_t@zmq@@UEAAXPEAVpipe_t@2@_N@Z 0000000180036850 f   libzmq:pub.obj
 0001:000358e0       ??0xsub_t@zmq@@QEAA@PEAVctx_t@1@IH@Z 00000001800368e0 f   libzmq:xsub.obj
 0001:000359f0       ??1xsub_t@zmq@@UEAA@XZ     00000001800369f0 f   libzmq:xsub.obj
 0001:00035ae0       ??_Exsub_t@zmq@@WDCI@EAAPEAXI@Z 0000000180036ae0 f i libzmq:xsub.obj
 0001:00035aec       ??_Exsub_t@zmq@@WDDI@EAAPEAXI@Z 0000000180036aec f i libzmq:xsub.obj
 0001:00035af8       ??_Exsub_t@zmq@@WDEA@EAAPEAXI@Z 0000000180036af8 f i libzmq:xsub.obj
 0001:00035b10       ??_Gxsub_t@zmq@@UEAAPEAXI@Z 0000000180036b10 f i libzmq:xsub.obj
 0001:00035b10       ??_Exsub_t@zmq@@UEAAPEAXI@Z 0000000180036b10 f i libzmq:xsub.obj
 0001:00035b50       ?match@xsub_t@zmq@@AEAA_NPEAVmsg_t@2@@Z 0000000180036b50 f   libzmq:xsub.obj
 0001:00035ba0       ?send_subscription@xsub_t@zmq@@CAXPEAE_KPEAX@Z 0000000180036ba0 f   libzmq:xsub.obj
 0001:00035cb0       ?xattach_pipe@xsub_t@zmq@@MEAAXPEAVpipe_t@2@_N@Z 0000000180036cb0 f   libzmq:xsub.obj
 0001:00035d60       ?xhas_in@xsub_t@zmq@@MEAA_NXZ 0000000180036d60 f   libzmq:xsub.obj
 0001:00035ef0       ?xhiccuped@xsub_t@zmq@@MEAAXPEAVpipe_t@2@@Z 0000000180036ef0 f   libzmq:xsub.obj
 0001:00035f20       ?xpipe_terminated@dish_t@zmq@@MEAAXPEAVpipe_t@2@@Z 0000000180036f20 f   libzmq:dish.obj
 0001:00035f20       ?xpipe_terminated@xsub_t@zmq@@MEAAXPEAVpipe_t@2@@Z 0000000180036f20 f   libzmq:xsub.obj
 0001:00035f60       ?xrecv@xsub_t@zmq@@MEAAHPEAVmsg_t@2@@Z 0000000180036f60 f   libzmq:xsub.obj
 0001:00036130       ?xsend@xsub_t@zmq@@MEAAHPEAVmsg_t@2@@Z 0000000180037130 f   libzmq:xsub.obj
 0001:00036290       ??0sub_t@zmq@@QEAA@PEAVctx_t@1@IH@Z 0000000180037290 f   libzmq:sub.obj
 0001:000362f0       ??1sub_t@zmq@@UEAA@XZ      00000001800372f0 f   libzmq:sub.obj
 0001:0003632c       ??_Esub_t@zmq@@WDCI@EAAPEAXI@Z 000000018003732c f i libzmq:sub.obj
 0001:00036338       ??_Esub_t@zmq@@WDDI@EAAPEAXI@Z 0000000180037338 f i libzmq:sub.obj
 0001:00036344       ??_Esub_t@zmq@@WDEA@EAAPEAXI@Z 0000000180037344 f i libzmq:sub.obj
 0001:00036350       ??_Gsub_t@zmq@@UEAAPEAXI@Z 0000000180037350 f i libzmq:sub.obj
 0001:00036350       ??_Esub_t@zmq@@UEAAPEAXI@Z 0000000180037350 f i libzmq:sub.obj
 0001:00036390       ?xsetsockopt@sub_t@zmq@@MEAAHHPEBX_K@Z 0000000180037390 f   libzmq:sub.obj
 0001:00036520       ??0dealer_t@zmq@@QEAA@PEAVctx_t@1@IH@Z 0000000180037520 f   libzmq:dealer.obj
 0001:000365b0       ??1dealer_t@zmq@@UEAA@XZ   00000001800375b0 f   libzmq:dealer.obj
 0001:00036614       ??_Edealer_t@zmq@@WDCI@EAAPEAXI@Z 0000000180037614 f i libzmq:dealer.obj
 0001:00036620       ??_Edealer_t@zmq@@WDDI@EAAPEAXI@Z 0000000180037620 f i libzmq:dealer.obj
 0001:0003662c       ??_Edealer_t@zmq@@WDEA@EAAPEAXI@Z 000000018003762c f i libzmq:dealer.obj
 0001:00036640       ??_Gdealer_t@zmq@@UEAAPEAXI@Z 0000000180037640 f i libzmq:dealer.obj
 0001:00036640       ??_Edealer_t@zmq@@UEAAPEAXI@Z 0000000180037640 f i libzmq:dealer.obj
 0001:00036680       ?recvpipe@dealer_t@zmq@@IEAAHPEAVmsg_t@2@PEAPEAVpipe_t@2@@Z 0000000180037680 f   libzmq:dealer.obj
 0001:00036690       ?sendpipe@dealer_t@zmq@@IEAAHPEAVmsg_t@2@PEAPEAVpipe_t@2@@Z 0000000180037690 f   libzmq:dealer.obj
 0001:000366a0       ?xattach_pipe@dealer_t@zmq@@MEAAXPEAVpipe_t@2@_N@Z 00000001800376a0 f   libzmq:dealer.obj
 0001:00036850       ?xhas_in@server_t@zmq@@UEAA_NXZ 0000000180037850 f   libzmq:server.obj
 0001:00036850       ?xhas_in@pull_t@zmq@@MEAA_NXZ 0000000180037850 f   libzmq:pull.obj
 0001:00036850       ?xhas_in@dealer_t@zmq@@MEAA_NXZ 0000000180037850 f   libzmq:dealer.obj
 0001:00036850       ?xhas_in@client_t@zmq@@MEAA_NXZ 0000000180037850 f   libzmq:client.obj
 0001:00036850       ?xhas_in@gather_t@zmq@@MEAA_NXZ 0000000180037850 f   libzmq:gather.obj
 0001:00036860       ?xpipe_terminated@client_t@zmq@@MEAAXPEAVpipe_t@2@@Z 0000000180037860 f   libzmq:client.obj
 0001:00036860       ?xpipe_terminated@dealer_t@zmq@@MEAAXPEAVpipe_t@2@@Z 0000000180037860 f   libzmq:dealer.obj
 0001:000368a0       ?xrecv@dealer_t@zmq@@MEAAHPEAVmsg_t@2@@Z 00000001800378a0 f   libzmq:dealer.obj
 0001:000368b0       ?xsend@dealer_t@zmq@@MEAAHPEAVmsg_t@2@@Z 00000001800378b0 f   libzmq:dealer.obj
 0001:000368c0       ?xsetsockopt@dealer_t@zmq@@MEAAHHPEBX_K@Z 00000001800378c0 f   libzmq:dealer.obj
 0001:00036910       ??0req_session_t@zmq@@QEAA@PEAVio_thread_t@1@_NPEAVsocket_base_t@1@AEBUoptions_t@1@PEAUaddress_t@1@@Z 0000000180037910 f   libzmq:req.obj
 0001:00036970       ??0req_t@zmq@@QEAA@PEAVctx_t@1@IH@Z 0000000180037970 f   libzmq:req.obj
 0001:00036a00       ??1req_session_t@zmq@@UEAA@XZ 0000000180037a00 f   libzmq:req.obj
 0001:00036a30       ??1req_t@zmq@@UEAA@XZ      0000000180037a30 f   libzmq:req.obj
 0001:00036a6c       ??_Ereq_session_t@zmq@@WDCI@EAAPEAXI@Z 0000000180037a6c f i libzmq:req.obj
 0001:00036a78       ??_Ereq_session_t@zmq@@WDDI@EAAPEAXI@Z 0000000180037a78 f i libzmq:req.obj
 0001:00036a84       ??_Ereq_t@zmq@@WDCI@EAAPEAXI@Z 0000000180037a84 f i libzmq:req.obj
 0001:00036a90       ??_Ereq_t@zmq@@WDDI@EAAPEAXI@Z 0000000180037a90 f i libzmq:req.obj
 0001:00036a9c       ??_Ereq_t@zmq@@WDEA@EAAPEAXI@Z 0000000180037a9c f i libzmq:req.obj
 0001:00036ab0       ??_Greq_session_t@zmq@@UEAAPEAXI@Z 0000000180037ab0 f i libzmq:req.obj
 0001:00036ab0       ??_Ereq_session_t@zmq@@UEAAPEAXI@Z 0000000180037ab0 f i libzmq:req.obj
 0001:00036af0       ??_Ereq_t@zmq@@UEAAPEAXI@Z 0000000180037af0 f i libzmq:req.obj
 0001:00036af0       ??_Greq_t@zmq@@UEAAPEAXI@Z 0000000180037af0 f i libzmq:req.obj
 0001:00036b30       ?push_msg@req_session_t@zmq@@UEAAHPEAVmsg_t@2@@Z 0000000180037b30 f   libzmq:req.obj
 0001:00036c30       ?recv_reply_pipe@req_t@zmq@@IEAAHPEAVmsg_t@2@@Z 0000000180037c30 f   libzmq:req.obj
 0001:00036cb0       ?xhas_in@req_t@zmq@@UEAA_NXZ 0000000180037cb0 f   libzmq:req.obj
 0001:00036cd0       ?xhas_out@req_t@zmq@@UEAA_NXZ 0000000180037cd0 f   libzmq:req.obj
 0001:00036cf0       ?xpipe_terminated@req_t@zmq@@UEAAXPEAVpipe_t@2@@Z 0000000180037cf0 f   libzmq:req.obj
 0001:00036d10       ?xrecv@req_t@zmq@@UEAAHPEAVmsg_t@2@@Z 0000000180037d10 f   libzmq:req.obj
 0001:00036f30       ?xsend@req_t@zmq@@UEAAHPEAVmsg_t@2@@Z 0000000180037f30 f   libzmq:req.obj
 0001:00037240       ?xsetsockopt@req_t@zmq@@UEAAHHPEBX_K@Z 0000000180038240 f   libzmq:req.obj
 0001:00037290       ??$_Buynode@U?$pair@$$CBV?$basic_string@EU?$char_traits@E@std@@V?$allocator@E@2@@std@@Uoutpipe_t@router_t@zmq@@@std@@@?$_Tree_comp_alloc@V?$_Tmap_traits@V?$basic_string@EU?$char_traits@E@std@@V?$allocator@E@2@@std@@Uoutpipe_t@router_t@zmq@@U?$less@V?$basic_string@EU?$char_traits@E@std@@V?$allocator@E@2@@std@@@2@V?$allocator@U?$pair@$$CBV?$basic_string@EU?$char_traits@E@std@@V?$allocator@E@2@@std@@Uoutpipe_t@router_t@zmq@@@std@@@2@$0A@@std@@@std@@QEAAPEAU?$_Tree_node@U?$pair@$$CBV?$basic_string@EU?$char_traits@E@std@@V?$allocator@E@2@@std@@Uoutpipe_t@router_t@zmq@@@std@@PEAX@1@$$QEAU?$pair@$$CBV?$basic_string@EU?$char_traits@E@std@@V?$allocator@E@2@@std@@Uoutpipe_t@router_t@zmq@@@1@@Z 0000000180038290 f i libzmq:router.obj
 0001:000372f0       ??$_Insert_at@U?$pair@$$CBV?$basic_string@EU?$char_traits@E@std@@V?$allocator@E@2@@std@@Uoutpipe_t@router_t@zmq@@@std@@U_Nil@2@@?$_Tree@V?$_Tmap_traits@V?$basic_string@EU?$char_traits@E@std@@V?$allocator@E@2@@std@@Uoutpipe_t@router_t@zmq@@U?$less@V?$basic_string@EU?$char_traits@E@std@@V?$allocator@E@2@@std@@@2@V?$allocator@U?$pair@$$CBV?$basic_string@EU?$char_traits@E@std@@V?$allocator@E@2@@std@@Uoutpipe_t@router_t@zmq@@@std@@@2@$0A@@std@@@std@@IEAA?AV?$_Tree_iterator@V?$_Tree_val@U?$_Tree_simple_types@U?$pair@$$CBV?$basic_string@EU?$char_traits@E@std@@V?$allocator@E@2@@std@@Uoutpipe_t@router_t@zmq@@@std@@@std@@@std@@@1@_NPEAU?$_Tree_node@U?$pair@$$CBV?$basic_string@EU?$char_traits@E@std@@V?$allocator@E@2@@std@@Uoutpipe_t@router_t@zmq@@@std@@PEAX@1@$$QEAU?$pair@$$CBV?$basic_string@EU?$char_traits@E@std@@V?$allocator@E@2@@std@@Uoutpipe_t@router_t@zmq@@@1@U_Nil@1@@Z 00000001800382f0 f i libzmq:router.obj
 0001:000375c0       ??$_Insert_nohint@U?$pair@$$CBV?$basic_string@EU?$char_traits@E@std@@V?$allocator@E@2@@std@@Uoutpipe_t@router_t@zmq@@@std@@U_Nil@2@@?$_Tree@V?$_Tmap_traits@V?$basic_string@EU?$char_traits@E@std@@V?$allocator@E@2@@std@@Uoutpipe_t@router_t@zmq@@U?$less@V?$basic_string@EU?$char_traits@E@std@@V?$allocator@E@2@@std@@@2@V?$allocator@U?$pair@$$CBV?$basic_string@EU?$char_traits@E@std@@V?$allocator@E@2@@std@@Uoutpipe_t@router_t@zmq@@@std@@@2@$0A@@std@@@std@@IEAA?AU?$pair@V?$_Tree_iterator@V?$_Tree_val@U?$_Tree_simple_types@U?$pair@$$CBV?$basic_string@EU?$char_traits@E@std@@V?$allocator@E@2@@std@@Uoutpipe_t@router_t@zmq@@@std@@@std@@@std@@@std@@_N@1@_N$$QEAU?$pair@$$CBV?$basic_string@EU?$char_traits@E@std@@V?$allocator@E@2@@std@@Uoutpipe_t@router_t@zmq@@@1@U_Nil@1@@Z 00000001800385c0 f i libzmq:router.obj
 0001:00037840       ??$_Lbound@V?$basic_string@EU?$char_traits@E@std@@V?$allocator@E@2@@std@@@?$_Tree@V?$_Tmap_traits@V?$basic_string@EU?$char_traits@E@std@@V?$allocator@E@2@@std@@Uoutpipe_t@router_t@zmq@@U?$less@V?$basic_string@EU?$char_traits@E@std@@V?$allocator@E@2@@std@@@2@V?$allocator@U?$pair@$$CBV?$basic_string@EU?$char_traits@E@std@@V?$allocator@E@2@@std@@Uoutpipe_t@router_t@zmq@@@std@@@2@$0A@@std@@@std@@IEBAPEAU?$_Tree_node@U?$pair@$$CBV?$basic_string@EU?$char_traits@E@std@@V?$allocator@E@2@@std@@Uoutpipe_t@router_t@zmq@@@std@@PEAX@1@AEBV?$basic_string@EU?$char_traits@E@std@@V?$allocator@E@2@@1@@Z 0000000180038840 f i libzmq:router.obj
 0001:00037840       ??$_Lbound@V?$basic_string@EU?$char_traits@E@std@@V?$allocator@E@2@@std@@@?$_Tree@V?$_Tmap_traits@V?$basic_string@EU?$char_traits@E@std@@V?$allocator@E@2@@std@@Uoutpipe_t@stream_t@zmq@@U?$less@V?$basic_string@EU?$char_traits@E@std@@V?$allocator@E@2@@std@@@2@V?$allocator@U?$pair@$$CBV?$basic_string@EU?$char_traits@E@std@@V?$allocator@E@2@@std@@Uoutpipe_t@stream_t@zmq@@@std@@@2@$0A@@std@@@std@@IEBAPEAU?$_Tree_node@U?$pair@$$CBV?$basic_string@EU?$char_traits@E@std@@V?$allocator@E@2@@std@@Uoutpipe_t@stream_t@zmq@@@std@@PEAX@1@AEBV?$basic_string@EU?$char_traits@E@std@@V?$allocator@E@2@@1@@Z 0000000180038840 f i libzmq:stream.obj
 0001:00037900       ??$construct@U?$pair@$$CBV?$basic_string@EU?$char_traits@E@std@@V?$allocator@E@2@@std@@Uoutpipe_t@router_t@zmq@@@std@@U12@@?$_Wrap_alloc@V?$allocator@U?$_Tree_node@U?$pair@$$CBV?$basic_string@EU?$char_traits@E@std@@V?$allocator@E@2@@std@@Uoutpipe_t@router_t@zmq@@@std@@PEAX@std@@@std@@@std@@QEAAXPEAU?$pair@$$CBV?$basic_string@EU?$char_traits@E@std@@V?$allocator@E@2@@std@@Uoutpipe_t@router_t@zmq@@@1@$$QEAU21@@Z 0000000180038900 f i libzmq:router.obj
 0001:00037970       ??0router_t@zmq@@QEAA@PEAVctx_t@1@IH@Z 0000000180038970 f   libzmq:router.obj
 0001:00037a90       ??1?$map@V?$basic_string@EU?$char_traits@E@std@@V?$allocator@E@2@@std@@Uoutpipe_t@router_t@zmq@@U?$less@V?$basic_string@EU?$char_traits@E@std@@V?$allocator@E@2@@std@@@2@V?$allocator@U?$pair@$$CBV?$basic_string@EU?$char_traits@E@std@@V?$allocator@E@2@@std@@Uoutpipe_t@router_t@zmq@@@std@@@2@@std@@QEAA@XZ 0000000180038a90 f i libzmq:router.obj
 0001:00037ad0       ??1?$pair@$$CBV?$basic_string@DU?$char_traits@D@std@@V?$allocator@D@2@@std@@U?$pair@PEAVown_t@zmq@@PEAVpipe_t@2@@2@@std@@QEAA@XZ 0000000180038ad0 f i libzmq:socket_base.obj
 0001:00037ad0       ??1?$pair@$$CBV?$basic_string@EU?$char_traits@E@std@@V?$allocator@E@2@@std@@Uoutpipe_t@stream_t@zmq@@@std@@QEAA@XZ 0000000180038ad0 f i libzmq:stream.obj
 0001:00037ad0       ??1?$pair@$$CBV?$basic_string@EU?$char_traits@E@std@@V?$allocator@E@2@@std@@Uoutpipe_t@router_t@zmq@@@std@@QEAA@XZ 0000000180038ad0 f i libzmq:router.obj
 0001:00037ad0       ??1?$pair@$$CBV?$basic_string@DU?$char_traits@D@std@@V?$allocator@D@2@@std@@PEAVpipe_t@zmq@@@std@@QEAA@XZ 0000000180038ad0 f i libzmq:socket_base.obj
 0001:00037ae0       ??1?$set@PEAVpipe_t@zmq@@U?$less@PEAVpipe_t@zmq@@@std@@V?$allocator@PEAVpipe_t@zmq@@@4@@std@@QEAA@XZ 0000000180038ae0 f i libzmq:router.obj
 0001:00037b10       ??1router_t@zmq@@UEAA@XZ   0000000180038b10 f   libzmq:router.obj
 0001:00037ca4       ??_Erouter_t@zmq@@WDCI@EAAPEAXI@Z 0000000180038ca4 f i libzmq:router.obj
 0001:00037cb0       ??_Erouter_t@zmq@@WDDI@EAAPEAXI@Z 0000000180038cb0 f i libzmq:router.obj
 0001:00037cbc       ??_Erouter_t@zmq@@WDEA@EAAPEAXI@Z 0000000180038cbc f i libzmq:router.obj
 0001:00037cd0       ??_Grouter_t@zmq@@UEAAPEAXI@Z 0000000180038cd0 f i libzmq:router.obj
 0001:00037cd0       ??_Erouter_t@zmq@@UEAAPEAXI@Z 0000000180038cd0 f i libzmq:router.obj
 0001:00037d10       ?_Buyheadnode@?$_Tree_comp_alloc@V?$_Tmap_traits@V?$basic_string@EU?$char_traits@E@std@@V?$allocator@E@2@@std@@Uoutpipe_t@router_t@zmq@@U?$less@V?$basic_string@EU?$char_traits@E@std@@V?$allocator@E@2@@std@@@2@V?$allocator@U?$pair@$$CBV?$basic_string@EU?$char_traits@E@std@@V?$allocator@E@2@@std@@Uoutpipe_t@router_t@zmq@@@std@@@2@$0A@@std@@@std@@QEAAPEAU?$_Tree_node@U?$pair@$$CBV?$basic_string@EU?$char_traits@E@std@@V?$allocator@E@2@@std@@Uoutpipe_t@router_t@zmq@@@std@@PEAX@2@XZ 0000000180038d10 f i libzmq:router.obj
 0001:00037d70       ?_Buynode0@?$_Tree_comp_alloc@V?$_Tmap_traits@V?$basic_string@EU?$char_traits@E@std@@V?$allocator@E@2@@std@@Uoutpipe_t@router_t@zmq@@U?$less@V?$basic_string@EU?$char_traits@E@std@@V?$allocator@E@2@@std@@@2@V?$allocator@U?$pair@$$CBV?$basic_string@EU?$char_traits@E@std@@V?$allocator@E@2@@std@@Uoutpipe_t@router_t@zmq@@@std@@@2@$0A@@std@@@std@@QEAAPEAU?$_Tree_node@U?$pair@$$CBV?$basic_string@EU?$char_traits@E@std@@V?$allocator@E@2@@std@@Uoutpipe_t@router_t@zmq@@@std@@PEAX@2@XZ 0000000180038d70 f i libzmq:router.obj
 0001:00037dd0       ?_Traits_compare@?$basic_string@EU?$char_traits@E@std@@V?$allocator@E@2@@std@@SAHQEBE_K01@Z 0000000180038dd0 f i libzmq:router.obj
 0001:00037e30       ?compare@?$basic_string@EU?$char_traits@E@std@@V?$allocator@E@2@@std@@QEBAHAEBV12@@Z 0000000180038e30 f i libzmq:router.obj
 0001:00037ea0       ?erase@?$_Tree@V?$_Tmap_traits@V?$basic_string@EU?$char_traits@E@std@@V?$allocator@E@2@@std@@Uoutpipe_t@router_t@zmq@@U?$less@V?$basic_string@EU?$char_traits@E@std@@V?$allocator@E@2@@std@@@2@V?$allocator@U?$pair@$$CBV?$basic_string@EU?$char_traits@E@std@@V?$allocator@E@2@@std@@Uoutpipe_t@router_t@zmq@@@std@@@2@$0A@@std@@@std@@QEAA?AV?$_Tree_iterator@V?$_Tree_val@U?$_Tree_simple_types@U?$pair@$$CBV?$basic_string@EU?$char_traits@E@std@@V?$allocator@E@2@@std@@Uoutpipe_t@router_t@zmq@@@std@@@std@@@std@@@2@V?$_Tree_const_iterator@V?$_Tree_val@U?$_Tree_simple_types@U?$pair@$$CBV?$basic_string@EU?$char_traits@E@std@@V?$allocator@E@2@@std@@Uoutpipe_t@router_t@zmq@@@std@@@std@@@std@@@2@0@Z 0000000180038ea0 f i libzmq:router.obj
 0001:00037f90       ?identify_peer@router_t@zmq@@AEAA_NPEAVpipe_t@2@@Z 0000000180038f90 f   libzmq:router.obj
 0001:00038640       ?rollback@router_t@zmq@@IEAAHXZ 0000000180039640 f   libzmq:router.obj
 0001:00038680       ?xattach_pipe@router_t@zmq@@UEAAXPEAVpipe_t@2@_N@Z 0000000180039680 f   libzmq:router.obj
 0001:00038860       ?xhas_in@router_t@zmq@@UEAA_NXZ 0000000180039860 f   libzmq:router.obj
 0001:00038a60       ?xpipe_terminated@router_t@zmq@@UEAAXPEAVpipe_t@2@@Z 0000000180039a60 f   libzmq:router.obj
 0001:00038c50       ?xread_activated@router_t@zmq@@UEAAXPEAVpipe_t@2@@Z 0000000180039c50 f   libzmq:router.obj
 0001:00038d00       ?xrecv@router_t@zmq@@UEAAHPEAVmsg_t@2@@Z 0000000180039d00 f   libzmq:router.obj
 0001:000390e0       ?xsend@router_t@zmq@@UEAAHPEAVmsg_t@2@@Z 000000018003a0e0 f   libzmq:router.obj
 0001:000396a0       ?xsetsockopt@router_t@zmq@@UEAAHHPEBX_K@Z 000000018003a6a0 f   libzmq:router.obj
 0001:00039790       ?xwrite_activated@router_t@zmq@@UEAAXPEAVpipe_t@2@@Z 000000018003a790 f   libzmq:router.obj
 0001:000398c0       ??0rep_t@zmq@@QEAA@PEAVctx_t@1@IH@Z 000000018003a8c0 f   libzmq:rep.obj
 0001:00039920       ??1rep_t@zmq@@UEAA@XZ      000000018003a920 f   libzmq:rep.obj
 0001:0003995c       ??_Erep_t@zmq@@WDCI@EAAPEAXI@Z 000000018003a95c f i libzmq:rep.obj
 0001:00039968       ??_Erep_t@zmq@@WDDI@EAAPEAXI@Z 000000018003a968 f i libzmq:rep.obj
 0001:00039974       ??_Erep_t@zmq@@WDEA@EAAPEAXI@Z 000000018003a974 f i libzmq:rep.obj
 0001:00039980       ??_Grep_t@zmq@@UEAAPEAXI@Z 000000018003a980 f i libzmq:rep.obj
 0001:00039980       ??_Erep_t@zmq@@UEAAPEAXI@Z 000000018003a980 f i libzmq:rep.obj
 0001:000399c0       ?xhas_in@rep_t@zmq@@UEAA_NXZ 000000018003a9c0 f   libzmq:rep.obj
 0001:000399e0       ?xhas_out@rep_t@zmq@@UEAA_NXZ 000000018003a9e0 f   libzmq:rep.obj
 0001:00039a00       ?xrecv@rep_t@zmq@@UEAAHPEAVmsg_t@2@@Z 000000018003aa00 f   libzmq:rep.obj
 0001:00039ba0       ?xsend@rep_t@zmq@@UEAAHPEAVmsg_t@2@@Z 000000018003aba0 f   libzmq:rep.obj
 0001:00039c20       ??0pull_t@zmq@@QEAA@PEAVctx_t@1@IH@Z 000000018003ac20 f   libzmq:pull.obj
 0001:00039ca0       ??1pull_t@zmq@@UEAA@XZ     000000018003aca0 f   libzmq:pull.obj
 0001:00039cf8       ??_Epull_t@zmq@@WDCI@EAAPEAXI@Z 000000018003acf8 f i libzmq:pull.obj
 0001:00039d04       ??_Epull_t@zmq@@WDDI@EAAPEAXI@Z 000000018003ad04 f i libzmq:pull.obj
 0001:00039d10       ??_Epull_t@zmq@@WDEA@EAAPEAXI@Z 000000018003ad10 f i libzmq:pull.obj
 0001:00039d20       ??_Epull_t@zmq@@UEAAPEAXI@Z 000000018003ad20 f i libzmq:pull.obj
 0001:00039d20       ??_Gpull_t@zmq@@UEAAPEAXI@Z 000000018003ad20 f i libzmq:pull.obj
 0001:00039d60       ?xattach_pipe@pull_t@zmq@@MEAAXPEAVpipe_t@2@_N@Z 000000018003ad60 f   libzmq:pull.obj
 0001:00039de0       ?xpipe_terminated@pull_t@zmq@@MEAAXPEAVpipe_t@2@@Z 000000018003ade0 f   libzmq:pull.obj
 0001:00039de0       ?xpipe_terminated@gather_t@zmq@@MEAAXPEAVpipe_t@2@@Z 000000018003ade0 f   libzmq:gather.obj
 0001:00039df0       ?xrecv@pull_t@zmq@@MEAAHPEAVmsg_t@2@@Z 000000018003adf0 f   libzmq:pull.obj
 0001:00039e00       ??0push_t@zmq@@QEAA@PEAVctx_t@1@IH@Z 000000018003ae00 f   libzmq:push.obj
 0001:00039e80       ??1push_t@zmq@@UEAA@XZ     000000018003ae80 f   libzmq:push.obj
 0001:00039ed8       ??_Epush_t@zmq@@WDCI@EAAPEAXI@Z 000000018003aed8 f i libzmq:push.obj
 0001:00039ee4       ??_Epush_t@zmq@@WDDI@EAAPEAXI@Z 000000018003aee4 f i libzmq:push.obj
 0001:00039ef0       ??_Epush_t@zmq@@WDEA@EAAPEAXI@Z 000000018003aef0 f i libzmq:push.obj
 0001:00039f00       ??_Epush_t@zmq@@UEAAPEAXI@Z 000000018003af00 f i libzmq:push.obj
 0001:00039f00       ??_Gpush_t@zmq@@UEAAPEAXI@Z 000000018003af00 f i libzmq:push.obj
 0001:00039f40       ?xattach_pipe@push_t@zmq@@MEAAXPEAVpipe_t@2@_N@Z 000000018003af40 f   libzmq:push.obj
 0001:00039fc0       ?xhas_out@push_t@zmq@@MEAA_NXZ 000000018003afc0 f   libzmq:push.obj
 0001:00039fc0       ?xhas_out@scatter_t@zmq@@MEAA_NXZ 000000018003afc0 f   libzmq:scatter.obj
 0001:00039fd0       ?xpipe_terminated@push_t@zmq@@MEAAXPEAVpipe_t@2@@Z 000000018003afd0 f   libzmq:push.obj
 0001:00039fd0       ?xpipe_terminated@scatter_t@zmq@@MEAAXPEAVpipe_t@2@@Z 000000018003afd0 f   libzmq:scatter.obj
 0001:00039fe0       ?xsend@push_t@zmq@@MEAAHPEAVmsg_t@2@@Z 000000018003afe0 f   libzmq:push.obj
 0001:00039ff0       ?xwrite_activated@push_t@zmq@@MEAAXPEAVpipe_t@2@@Z 000000018003aff0 f   libzmq:push.obj
 0001:00039ff0       ?xwrite_activated@scatter_t@zmq@@MEAAXPEAVpipe_t@2@@Z 000000018003aff0 f   libzmq:scatter.obj
 0001:0003a000       ??$_Buynode@U?$pair@$$CBV?$basic_string@EU?$char_traits@E@std@@V?$allocator@E@2@@std@@Uoutpipe_t@stream_t@zmq@@@std@@@?$_Tree_comp_alloc@V?$_Tmap_traits@V?$basic_string@EU?$char_traits@E@std@@V?$allocator@E@2@@std@@Uoutpipe_t@stream_t@zmq@@U?$less@V?$basic_string@EU?$char_traits@E@std@@V?$allocator@E@2@@std@@@2@V?$allocator@U?$pair@$$CBV?$basic_string@EU?$char_traits@E@std@@V?$allocator@E@2@@std@@Uoutpipe_t@stream_t@zmq@@@std@@@2@$0A@@std@@@std@@QEAAPEAU?$_Tree_node@U?$pair@$$CBV?$basic_string@EU?$char_traits@E@std@@V?$allocator@E@2@@std@@Uoutpipe_t@stream_t@zmq@@@std@@PEAX@1@$$QEAU?$pair@$$CBV?$basic_string@EU?$char_traits@E@std@@V?$allocator@E@2@@std@@Uoutpipe_t@stream_t@zmq@@@1@@Z 000000018003b000 f i libzmq:stream.obj
 0001:0003a060       ??$_Insert_at@U?$pair@$$CBV?$basic_string@EU?$char_traits@E@std@@V?$allocator@E@2@@std@@Uoutpipe_t@stream_t@zmq@@@std@@U_Nil@2@@?$_Tree@V?$_Tmap_traits@V?$basic_string@EU?$char_traits@E@std@@V?$allocator@E@2@@std@@Uoutpipe_t@stream_t@zmq@@U?$less@V?$basic_string@EU?$char_traits@E@std@@V?$allocator@E@2@@std@@@2@V?$allocator@U?$pair@$$CBV?$basic_string@EU?$char_traits@E@std@@V?$allocator@E@2@@std@@Uoutpipe_t@stream_t@zmq@@@std@@@2@$0A@@std@@@std@@IEAA?AV?$_Tree_iterator@V?$_Tree_val@U?$_Tree_simple_types@U?$pair@$$CBV?$basic_string@EU?$char_traits@E@std@@V?$allocator@E@2@@std@@Uoutpipe_t@stream_t@zmq@@@std@@@std@@@std@@@1@_NPEAU?$_Tree_node@U?$pair@$$CBV?$basic_string@EU?$char_traits@E@std@@V?$allocator@E@2@@std@@Uoutpipe_t@stream_t@zmq@@@std@@PEAX@1@$$QEAU?$pair@$$CBV?$basic_string@EU?$char_traits@E@std@@V?$allocator@E@2@@std@@Uoutpipe_t@stream_t@zmq@@@1@U_Nil@1@@Z 000000018003b060 f i libzmq:stream.obj
 0001:0003a330       ??$_Insert_nohint@U?$pair@$$CBV?$basic_string@EU?$char_traits@E@std@@V?$allocator@E@2@@std@@Uoutpipe_t@stream_t@zmq@@@std@@U_Nil@2@@?$_Tree@V?$_Tmap_traits@V?$basic_string@EU?$char_traits@E@std@@V?$allocator@E@2@@std@@Uoutpipe_t@stream_t@zmq@@U?$less@V?$basic_string@EU?$char_traits@E@std@@V?$allocator@E@2@@std@@@2@V?$allocator@U?$pair@$$CBV?$basic_string@EU?$char_traits@E@std@@V?$allocator@E@2@@std@@Uoutpipe_t@stream_t@zmq@@@std@@@2@$0A@@std@@@std@@IEAA?AU?$pair@V?$_Tree_iterator@V?$_Tree_val@U?$_Tree_simple_types@U?$pair@$$CBV?$basic_string@EU?$char_traits@E@std@@V?$allocator@E@2@@std@@Uoutpipe_t@stream_t@zmq@@@std@@@std@@@std@@@std@@_N@1@_N$$QEAU?$pair@$$CBV?$basic_string@EU?$char_traits@E@std@@V?$allocator@E@2@@std@@Uoutpipe_t@stream_t@zmq@@@1@U_Nil@1@@Z 000000018003b330 f i libzmq:stream.obj
 0001:0003a5b0       ??$construct@U?$pair@$$CBV?$basic_string@EU?$char_traits@E@std@@V?$allocator@E@2@@std@@Uoutpipe_t@stream_t@zmq@@@std@@U12@@?$_Wrap_alloc@V?$allocator@U?$_Tree_node@U?$pair@$$CBV?$basic_string@EU?$char_traits@E@std@@V?$allocator@E@2@@std@@Uoutpipe_t@stream_t@zmq@@@std@@PEAX@std@@@std@@@std@@QEAAXPEAU?$pair@$$CBV?$basic_string@EU?$char_traits@E@std@@V?$allocator@E@2@@std@@Uoutpipe_t@stream_t@zmq@@@1@$$QEAU21@@Z 000000018003b5b0 f i libzmq:stream.obj
 0001:0003a620       ??0stream_t@zmq@@QEAA@PEAVctx_t@1@IH@Z 000000018003b620 f   libzmq:stream.obj
 0001:0003a710       ??1?$map@V?$basic_string@EU?$char_traits@E@std@@V?$allocator@E@2@@std@@Uoutpipe_t@stream_t@zmq@@U?$less@V?$basic_string@EU?$char_traits@E@std@@V?$allocator@E@2@@std@@@2@V?$allocator@U?$pair@$$CBV?$basic_string@EU?$char_traits@E@std@@V?$allocator@E@2@@std@@Uoutpipe_t@stream_t@zmq@@@std@@@2@@std@@QEAA@XZ 000000018003b710 f i libzmq:stream.obj
 0001:0003a750       ??1stream_t@zmq@@UEAA@XZ   000000018003b750 f   libzmq:stream.obj
 0001:0003a85c       ??_Estream_t@zmq@@WDCI@EAAPEAXI@Z 000000018003b85c f i libzmq:stream.obj
 0001:0003a868       ??_Estream_t@zmq@@WDDI@EAAPEAXI@Z 000000018003b868 f i libzmq:stream.obj
 0001:0003a874       ??_Estream_t@zmq@@WDEA@EAAPEAXI@Z 000000018003b874 f i libzmq:stream.obj
 0001:0003a880       ??_Gstream_t@zmq@@UEAAPEAXI@Z 000000018003b880 f i libzmq:stream.obj
 0001:0003a880       ??_Estream_t@zmq@@UEAAPEAXI@Z 000000018003b880 f i libzmq:stream.obj
 0001:0003a8c0       ?_Buyheadnode@?$_Tree_comp_alloc@V?$_Tmap_traits@V?$basic_string@EU?$char_traits@E@std@@V?$allocator@E@2@@std@@Uoutpipe_t@stream_t@zmq@@U?$less@V?$basic_string@EU?$char_traits@E@std@@V?$allocator@E@2@@std@@@2@V?$allocator@U?$pair@$$CBV?$basic_string@EU?$char_traits@E@std@@V?$allocator@E@2@@std@@Uoutpipe_t@stream_t@zmq@@@std@@@2@$0A@@std@@@std@@QEAAPEAU?$_Tree_node@U?$pair@$$CBV?$basic_string@EU?$char_traits@E@std@@V?$allocator@E@2@@std@@Uoutpipe_t@stream_t@zmq@@@std@@PEAX@2@XZ 000000018003b8c0 f i libzmq:stream.obj
 0001:0003a920       ?_Buynode0@?$_Tree_comp_alloc@V?$_Tmap_traits@V?$basic_string@EU?$char_traits@E@std@@V?$allocator@E@2@@std@@Uoutpipe_t@stream_t@zmq@@U?$less@V?$basic_string@EU?$char_traits@E@std@@V?$allocator@E@2@@std@@@2@V?$allocator@U?$pair@$$CBV?$basic_string@EU?$char_traits@E@std@@V?$allocator@E@2@@std@@Uoutpipe_t@stream_t@zmq@@@std@@@2@$0A@@std@@@std@@QEAAPEAU?$_Tree_node@U?$pair@$$CBV?$basic_string@EU?$char_traits@E@std@@V?$allocator@E@2@@std@@Uoutpipe_t@stream_t@zmq@@@std@@PEAX@2@XZ 000000018003b920 f i libzmq:stream.obj
 0001:0003a980       ?erase@?$_Tree@V?$_Tmap_traits@V?$basic_string@EU?$char_traits@E@std@@V?$allocator@E@2@@std@@Uoutpipe_t@stream_t@zmq@@U?$less@V?$basic_string@EU?$char_traits@E@std@@V?$allocator@E@2@@std@@@2@V?$allocator@U?$pair@$$CBV?$basic_string@EU?$char_traits@E@std@@V?$allocator@E@2@@std@@Uoutpipe_t@stream_t@zmq@@@std@@@2@$0A@@std@@@std@@QEAA?AV?$_Tree_iterator@V?$_Tree_val@U?$_Tree_simple_types@U?$pair@$$CBV?$basic_string@EU?$char_traits@E@std@@V?$allocator@E@2@@std@@Uoutpipe_t@stream_t@zmq@@@std@@@std@@@std@@@2@V?$_Tree_const_iterator@V?$_Tree_val@U?$_Tree_simple_types@U?$pair@$$CBV?$basic_string@EU?$char_traits@E@std@@V?$allocator@E@2@@std@@Uoutpipe_t@stream_t@zmq@@@std@@@std@@@std@@@2@0@Z 000000018003b980 f i libzmq:stream.obj
 0001:0003aa70       ?erase@?$_Tree@V?$_Tset_traits@V?$basic_string@DU?$char_traits@D@std@@V?$allocator@D@2@@std@@U?$less@V?$basic_string@DU?$char_traits@D@std@@V?$allocator@D@2@@std@@@2@V?$allocator@V?$basic_string@DU?$char_traits@D@std@@V?$allocator@D@2@@std@@@2@$0A@@std@@@std@@QEAA?AV?$_Tree_const_iterator@V?$_Tree_val@U?$_Tree_simple_types@V?$basic_string@DU?$char_traits@D@std@@V?$allocator@D@2@@std@@@std@@@std@@@2@V32@@Z 000000018003ba70 f i libzmq:dish.obj
 0001:0003aa70       ?erase@?$_Tree@V?$_Tmap_traits@V?$basic_string@DU?$char_traits@D@std@@V?$allocator@D@2@@std@@PEAVpipe_t@zmq@@U?$less@V?$basic_string@DU?$char_traits@D@std@@V?$allocator@D@2@@std@@@2@V?$allocator@U?$pair@$$CBV?$basic_string@DU?$char_traits@D@std@@V?$allocator@D@2@@std@@PEAVpipe_t@zmq@@@std@@@2@$00@std@@@std@@QEAA?AV?$_Tree_iterator@V?$_Tree_val@U?$_Tree_simple_types@U?$pair@$$CBV?$basic_string@DU?$char_traits@D@std@@V?$allocator@D@2@@std@@PEAVpipe_t@zmq@@@std@@@std@@@std@@@2@V?$_Tree_const_iterator@V?$_Tree_val@U?$_Tree_simple_types@U?$pair@$$CBV?$basic_string@DU?$char_traits@D@std@@V?$allocator@D@2@@std@@PEAVpipe_t@zmq@@@std@@@std@@@std@@@2@@Z 000000018003ba70 f i libzmq:socket_base.obj
 0001:0003aa70       ?erase@?$_Tree@V?$_Tmap_traits@V?$basic_string@EU?$char_traits@E@std@@V?$allocator@E@2@@std@@Uoutpipe_t@router_t@zmq@@U?$less@V?$basic_string@EU?$char_traits@E@std@@V?$allocator@E@2@@std@@@2@V?$allocator@U?$pair@$$CBV?$basic_string@EU?$char_traits@E@std@@V?$allocator@E@2@@std@@Uoutpipe_t@router_t@zmq@@@std@@@2@$0A@@std@@@std@@QEAA?AV?$_Tree_iterator@V?$_Tree_val@U?$_Tree_simple_types@U?$pair@$$CBV?$basic_string@EU?$char_traits@E@std@@V?$allocator@E@2@@std@@Uoutpipe_t@router_t@zmq@@@std@@@std@@@std@@@2@V?$_Tree_const_iterator@V?$_Tree_val@U?$_Tree_simple_types@U?$pair@$$CBV?$basic_string@EU?$char_traits@E@std@@V?$allocator@E@2@@std@@Uoutpipe_t@router_t@zmq@@@std@@@std@@@std@@@2@@Z 000000018003ba70 f i libzmq:router.obj
 0001:0003aa70       ?erase@?$_Tree@V?$_Tmap_traits@V?$basic_string@DU?$char_traits@D@std@@V?$allocator@D@2@@std@@U?$pair@PEAVown_t@zmq@@PEAVpipe_t@2@@2@U?$less@V?$basic_string@DU?$char_traits@D@std@@V?$allocator@D@2@@std@@@2@V?$allocator@U?$pair@$$CBV?$basic_string@DU?$char_traits@D@std@@V?$allocator@D@2@@std@@U?$pair@PEAVown_t@zmq@@PEAVpipe_t@2@@2@@std@@@2@$00@std@@@std@@QEAA?AV?$_Tree_iterator@V?$_Tree_val@U?$_Tree_simple_types@U?$pair@$$CBV?$basic_string@DU?$char_traits@D@std@@V?$allocator@D@2@@std@@U?$pair@PEAVown_t@zmq@@PEAVpipe_t@2@@2@@std@@@std@@@std@@@2@V?$_Tree_const_iterator@V?$_Tree_val@U?$_Tree_simple_types@U?$pair@$$CBV?$basic_string@DU?$char_traits@D@std@@V?$allocator@D@2@@std@@U?$pair@PEAVown_t@zmq@@PEAVpipe_t@2@@2@@std@@@std@@@std@@@2@@Z 000000018003ba70 f i libzmq:socket_base.obj
 0001:0003aa70       ?erase@?$_Tree@V?$_Tmap_traits@V?$basic_string@EU?$char_traits@E@std@@V?$allocator@E@2@@std@@Uoutpipe_t@stream_t@zmq@@U?$less@V?$basic_string@EU?$char_traits@E@std@@V?$allocator@E@2@@std@@@2@V?$allocator@U?$pair@$$CBV?$basic_string@EU?$char_traits@E@std@@V?$allocator@E@2@@std@@Uoutpipe_t@stream_t@zmq@@@std@@@2@$0A@@std@@@std@@QEAA?AV?$_Tree_iterator@V?$_Tree_val@U?$_Tree_simple_types@U?$pair@$$CBV?$basic_string@EU?$char_traits@E@std@@V?$allocator@E@2@@std@@Uoutpipe_t@stream_t@zmq@@@std@@@std@@@std@@@2@V?$_Tree_const_iterator@V?$_Tree_val@U?$_Tree_simple_types@U?$pair@$$CBV?$basic_string@EU?$char_traits@E@std@@V?$allocator@E@2@@std@@Uoutpipe_t@stream_t@zmq@@@std@@@std@@@std@@@2@@Z 000000018003ba70 f i libzmq:stream.obj
 0001:0003aec0       ?identify_peer@stream_t@zmq@@AEAAXPEAVpipe_t@2@@Z 000000018003bec0 f   libzmq:stream.obj
 0001:0003b300       ?xattach_pipe@stream_t@zmq@@UEAAXPEAVpipe_t@2@_N@Z 000000018003c300 f   libzmq:stream.obj
 0001:0003b390       ?xhas_in@stream_t@zmq@@UEAA_NXZ 000000018003c390 f   libzmq:stream.obj
 0001:0003b610       ?xpipe_terminated@stream_t@zmq@@UEAAXPEAVpipe_t@2@@Z 000000018003c610 f   libzmq:stream.obj
 0001:0003b7a0       ?xrecv@stream_t@zmq@@UEAAHPEAVmsg_t@2@@Z 000000018003c7a0 f   libzmq:stream.obj
 0001:0003bb50       ?xsend@stream_t@zmq@@UEAAHPEAVmsg_t@2@@Z 000000018003cb50 f   libzmq:stream.obj
 0001:0003c040       ?xsetsockopt@stream_t@zmq@@UEAAHHPEBX_K@Z 000000018003d040 f   libzmq:stream.obj
 0001:0003c0b0       ?xwrite_activated@stream_t@zmq@@UEAAXPEAVpipe_t@2@@Z 000000018003d0b0 f   libzmq:stream.obj
 0001:0003c1e0       ??$_Buynode@U?$pair@$$CBIUoutpipe_t@server_t@zmq@@@std@@@?$_Tree_comp_alloc@V?$_Tmap_traits@IUoutpipe_t@server_t@zmq@@U?$less@I@std@@V?$allocator@U?$pair@$$CBIUoutpipe_t@server_t@zmq@@@std@@@5@$0A@@std@@@std@@QEAAPEAU?$_Tree_node@U?$pair@$$CBIUoutpipe_t@server_t@zmq@@@std@@PEAX@1@$$QEAU?$pair@$$CBIUoutpipe_t@server_t@zmq@@@1@@Z 000000018003d1e0 f i libzmq:server.obj
 0001:0003c230       ??$_Insert_at@U?$pair@$$CBIUoutpipe_t@server_t@zmq@@@std@@U_Nil@2@@?$_Tree@V?$_Tmap_traits@IUoutpipe_t@server_t@zmq@@U?$less@I@std@@V?$allocator@U?$pair@$$CBIUoutpipe_t@server_t@zmq@@@std@@@5@$0A@@std@@@std@@IEAA?AV?$_Tree_iterator@V?$_Tree_val@U?$_Tree_simple_types@U?$pair@$$CBIUoutpipe_t@server_t@zmq@@@std@@@std@@@std@@@1@_NPEAU?$_Tree_node@U?$pair@$$CBIUoutpipe_t@server_t@zmq@@@std@@PEAX@1@$$QEAU?$pair@$$CBIUoutpipe_t@server_t@zmq@@@1@U_Nil@1@@Z 000000018003d230 f i libzmq:server.obj
 0001:0003c500       ??$_Insert_nohint@U?$pair@$$CBIUoutpipe_t@server_t@zmq@@@std@@U_Nil@2@@?$_Tree@V?$_Tmap_traits@IUoutpipe_t@server_t@zmq@@U?$less@I@std@@V?$allocator@U?$pair@$$CBIUoutpipe_t@server_t@zmq@@@std@@@5@$0A@@std@@@std@@IEAA?AU?$pair@V?$_Tree_iterator@V?$_Tree_val@U?$_Tree_simple_types@U?$pair@$$CBIUoutpipe_t@server_t@zmq@@@std@@@std@@@std@@@std@@_N@1@_N$$QEAU?$pair@$$CBIUoutpipe_t@server_t@zmq@@@1@U_Nil@1@@Z 000000018003d500 f i libzmq:server.obj
 0001:0003c660       ??0server_t@zmq@@QEAA@PEAVctx_t@1@IH@Z 000000018003d660 f   libzmq:server.obj
 0001:0003c710       ??1?$map@IUoutpipe_t@server_t@zmq@@U?$less@I@std@@V?$allocator@U?$pair@$$CBIUoutpipe_t@server_t@zmq@@@std@@@5@@std@@QEAA@XZ 000000018003d710 f i libzmq:server.obj
 0001:0003c740       ??1server_t@zmq@@UEAA@XZ   000000018003d740 f   libzmq:server.obj
 0001:0003c834       ??_Eserver_t@zmq@@WDCI@EAAPEAXI@Z 000000018003d834 f i libzmq:server.obj
 0001:0003c840       ??_Eserver_t@zmq@@WDDI@EAAPEAXI@Z 000000018003d840 f i libzmq:server.obj
 0001:0003c84c       ??_Eserver_t@zmq@@WDEA@EAAPEAXI@Z 000000018003d84c f i libzmq:server.obj
 0001:0003c860       ??_Gserver_t@zmq@@UEAAPEAXI@Z 000000018003d860 f i libzmq:server.obj
 0001:0003c860       ??_Eserver_t@zmq@@UEAAPEAXI@Z 000000018003d860 f i libzmq:server.obj
 0001:0003c8a0       ?_Buyheadnode@?$_Tree_comp_alloc@V?$_Tmap_traits@IUoutpipe_t@server_t@zmq@@U?$less@I@std@@V?$allocator@U?$pair@$$CBIUoutpipe_t@server_t@zmq@@@std@@@5@$0A@@std@@@std@@QEAAPEAU?$_Tree_node@U?$pair@$$CBIUoutpipe_t@server_t@zmq@@@std@@PEAX@2@XZ 000000018003d8a0 f i libzmq:server.obj
 0001:0003c900       ?_Buynode0@?$_Tree_comp_alloc@V?$_Tmap_traits@IUoutpipe_t@server_t@zmq@@U?$less@I@std@@V?$allocator@U?$pair@$$CBIUoutpipe_t@server_t@zmq@@@std@@@5@$0A@@std@@@std@@QEAAPEAU?$_Tree_node@U?$pair@$$CBIUoutpipe_t@server_t@zmq@@@std@@PEAX@2@XZ 000000018003d900 f i libzmq:server.obj
 0001:0003c960       ?clear@?$_Tree@V?$_Tmap_traits@IUoutpipe_t@server_t@zmq@@U?$less@I@std@@V?$allocator@U?$pair@$$CBIUoutpipe_t@server_t@zmq@@@std@@@5@$0A@@std@@@std@@QEAAXXZ 000000018003d960 f i libzmq:server.obj
 0001:0003c9e0       ?erase@?$_Tree@V?$_Tmap_traits@IUoutpipe_t@server_t@zmq@@U?$less@I@std@@V?$allocator@U?$pair@$$CBIUoutpipe_t@server_t@zmq@@@std@@@5@$0A@@std@@@std@@QEAA?AV?$_Tree_iterator@V?$_Tree_val@U?$_Tree_simple_types@U?$pair@$$CBIUoutpipe_t@server_t@zmq@@@std@@@std@@@std@@@2@V?$_Tree_const_iterator@V?$_Tree_val@U?$_Tree_simple_types@U?$pair@$$CBIUoutpipe_t@server_t@zmq@@@std@@@std@@@std@@@2@0@Z 000000018003d9e0 f i libzmq:server.obj
 0001:0003cac0       ?erase@?$_Tree@V?$_Tset_traits@PEAVpipe_t@zmq@@U?$less@PEAVpipe_t@zmq@@@std@@V?$allocator@PEAVpipe_t@zmq@@@4@$0A@@std@@@std@@QEAA?AV?$_Tree_const_iterator@V?$_Tree_val@U?$_Tree_simple_types@PEAVpipe_t@zmq@@@std@@@std@@@2@V32@@Z 000000018003dac0 f i libzmq:session_base.obj
 0001:0003cac0       ?erase@?$_Tree@V?$_Tset_traits@PEAVown_t@zmq@@U?$less@PEAVown_t@zmq@@@std@@V?$allocator@PEAVown_t@zmq@@@4@$0A@@std@@@std@@QEAA?AV?$_Tree_const_iterator@V?$_Tree_val@U?$_Tree_simple_types@PEAVown_t@zmq@@@std@@@std@@@2@V32@@Z 000000018003dac0 f i libzmq:own.obj
 0001:0003cac0       ?erase@?$_Tree@V?$_Tmap_traits@_KUtimer_info_t@poller_base_t@zmq@@U?$less@_K@std@@V?$allocator@U?$pair@$$CB_KUtimer_info_t@poller_base_t@zmq@@@std@@@5@$00@std@@@std@@QEAA?AV?$_Tree_iterator@V?$_Tree_val@U?$_Tree_simple_types@U?$pair@$$CB_KUtimer_info_t@poller_base_t@zmq@@@std@@@std@@@std@@@2@V?$_Tree_const_iterator@V?$_Tree_val@U?$_Tree_simple_types@U?$pair@$$CB_KUtimer_info_t@poller_base_t@zmq@@@std@@@std@@@std@@@2@@Z 000000018003dac0 f i libzmq:poller_base.obj
 0001:0003cac0       ?erase@?$_Tree@V?$_Tmap_traits@IUoutpipe_t@server_t@zmq@@U?$less@I@std@@V?$allocator@U?$pair@$$CBIUoutpipe_t@server_t@zmq@@@std@@@5@$0A@@std@@@std@@QEAA?AV?$_Tree_iterator@V?$_Tree_val@U?$_Tree_simple_types@U?$pair@$$CBIUoutpipe_t@server_t@zmq@@@std@@@std@@@std@@@2@V?$_Tree_const_iterator@V?$_Tree_val@U?$_Tree_simple_types@U?$pair@$$CBIUoutpipe_t@server_t@zmq@@@std@@@std@@@std@@@2@@Z 000000018003dac0 f i libzmq:server.obj
 0001:0003cea0       ?get_credential@server_t@zmq@@MEBA?AV?$basic_string@EU?$char_traits@E@std@@V?$allocator@E@2@@std@@XZ 000000018003dea0 f   libzmq:server.obj
 0001:0003cea0       ?get_credential@xsub_t@zmq@@MEBA?AV?$basic_string@EU?$char_traits@E@std@@V?$allocator@E@2@@std@@XZ 000000018003dea0 f   libzmq:xsub.obj
 0001:0003cea0       ?get_credential@dish_t@zmq@@MEBA?AV?$basic_string@EU?$char_traits@E@std@@V?$allocator@E@2@@std@@XZ 000000018003dea0 f   libzmq:dish.obj
 0001:0003cea0       ?get_credential@dealer_t@zmq@@MEBA?AV?$basic_string@EU?$char_traits@E@std@@V?$allocator@E@2@@std@@XZ 000000018003dea0 f   libzmq:dealer.obj
 0001:0003cea0       ?get_credential@client_t@zmq@@MEBA?AV?$basic_string@EU?$char_traits@E@std@@V?$allocator@E@2@@std@@XZ 000000018003dea0 f   libzmq:client.obj
 0001:0003cea0       ?get_credential@pull_t@zmq@@MEBA?AV?$basic_string@EU?$char_traits@E@std@@V?$allocator@E@2@@std@@XZ 000000018003dea0 f   libzmq:pull.obj
 0001:0003cea0       ?get_credential@gather_t@zmq@@MEBA?AV?$basic_string@EU?$char_traits@E@std@@V?$allocator@E@2@@std@@XZ 000000018003dea0 f   libzmq:gather.obj
 0001:0003cea0       ?get_credential@router_t@zmq@@MEBA?AV?$basic_string@EU?$char_traits@E@std@@V?$allocator@E@2@@std@@XZ 000000018003dea0 f   libzmq:router.obj
 0001:0003ced0       ?xattach_pipe@server_t@zmq@@UEAAXPEAVpipe_t@2@_N@Z 000000018003ded0 f   libzmq:server.obj
 0001:0003d010       ?xhas_out@xsub_t@zmq@@MEAA_NXZ 000000018003e010 f   libzmq:xsub.obj
 0001:0003d010       ?has_out@dist_t@zmq@@QEAA_NXZ 000000018003e010 f   libzmq:dist.obj
 0001:0003d010       ?xhas_out@stream_t@zmq@@UEAA_NXZ 000000018003e010 f   libzmq:stream.obj
 0001:0003d010       ?xhas_out@server_t@zmq@@UEAA_NXZ 000000018003e010 f   libzmq:server.obj
 0001:0003d010       ?xhas_out@router_t@zmq@@UEAA_NXZ 000000018003e010 f   libzmq:router.obj
 0001:0003d010       ?xhas_out@dish_t@zmq@@MEAA_NXZ 000000018003e010 f   libzmq:dish.obj
 0001:0003d010       __acrt_uninitialize_command_line 000000018003e010 f   libucrt:argv_data.obj
 0001:0003d010       ?is_valid@options_t@zmq@@QEBA_NH@Z 000000018003e010 f   libzmq:options.obj
 0001:0003d020       ?xpipe_terminated@server_t@zmq@@UEAAXPEAVpipe_t@2@@Z 000000018003e020 f   libzmq:server.obj
 0001:0003d110       ?xrecv@server_t@zmq@@UEAAHPEAVmsg_t@2@@Z 000000018003e110 f   libzmq:server.obj
 0001:0003d220       ?xsend@server_t@zmq@@UEAAHPEAVmsg_t@2@@Z 000000018003e220 f   libzmq:server.obj
 0001:0003d440       ?xwrite_activated@server_t@zmq@@UEAAXPEAVpipe_t@2@@Z 000000018003e440 f   libzmq:server.obj
 0001:0003d570       ??0client_t@zmq@@QEAA@PEAVctx_t@1@IH@Z 000000018003e570 f   libzmq:client.obj
 0001:0003d600       ??1client_t@zmq@@UEAA@XZ   000000018003e600 f   libzmq:client.obj
 0001:0003d664       ??_Eclient_t@zmq@@WDCI@EAAPEAXI@Z 000000018003e664 f i libzmq:client.obj
 0001:0003d670       ??_Eclient_t@zmq@@WDDI@EAAPEAXI@Z 000000018003e670 f i libzmq:client.obj
 0001:0003d67c       ??_Eclient_t@zmq@@WDEA@EAAPEAXI@Z 000000018003e67c f i libzmq:client.obj
 0001:0003d690       ??_Gclient_t@zmq@@UEAAPEAXI@Z 000000018003e690 f i libzmq:client.obj
 0001:0003d690       ??_Eclient_t@zmq@@UEAAPEAXI@Z 000000018003e690 f i libzmq:client.obj
 0001:0003d6d0       ?xattach_pipe@client_t@zmq@@MEAAXPEAVpipe_t@2@_N@Z 000000018003e6d0 f   libzmq:client.obj
 0001:0003d760       ?xhas_out@client_t@zmq@@MEAA_NXZ 000000018003e760 f   libzmq:client.obj
 0001:0003d760       ?xhas_out@dealer_t@zmq@@MEAA_NXZ 000000018003e760 f   libzmq:dealer.obj
 0001:0003d770       ?xrecv@client_t@zmq@@MEAAHPEAVmsg_t@2@@Z 000000018003e770 f   libzmq:client.obj
 0001:0003d770       ?xrecv@gather_t@zmq@@MEAAHPEAVmsg_t@2@@Z 000000018003e770 f   libzmq:gather.obj
 0001:0003d820       ?xsend@client_t@zmq@@MEAAHPEAVmsg_t@2@@Z 000000018003e820 f   libzmq:client.obj
 0001:0003d880       ?xwrite_activated@dealer_t@zmq@@MEAAXPEAVpipe_t@2@@Z 000000018003e880 f   libzmq:dealer.obj
 0001:0003d880       ?xwrite_activated@client_t@zmq@@MEAAXPEAVpipe_t@2@@Z 000000018003e880 f   libzmq:client.obj
 0001:0003d890       ??0radio_session_t@zmq@@QEAA@PEAVio_thread_t@1@_NPEAVsocket_base_t@1@AEBUoptions_t@1@PEAUaddress_t@1@@Z 000000018003e890 f   libzmq:radio.obj
 0001:0003d8f0       ??0radio_t@zmq@@QEAA@PEAVctx_t@1@IH@Z 000000018003e8f0 f   libzmq:radio.obj
 0001:0003d9b0       ??1?$vector@PEAVpipe_t@zmq@@V?$allocator@PEAVpipe_t@zmq@@@std@@@std@@QEAA@XZ 000000018003e9b0 f i libzmq:radio.obj
 0001:0003d9b0       ??1?$vector@PEAVsignaler_t@zmq@@V?$allocator@PEAVsignaler_t@zmq@@@std@@@std@@QEAA@XZ 000000018003e9b0 f i libzmq:mailbox_safe.obj
 0001:0003d9b0       ??1?$array_t@Vsocket_base_t@zmq@@$0A@@zmq@@QEAA@XZ 000000018003e9b0 f i libzmq:ctx.obj
 0001:0003d9b0       ??1?$array_t@Vpipe_t@zmq@@$02@zmq@@QEAA@XZ 000000018003e9b0 f i libzmq:socket_base.obj
 0001:0003d9b0       ??1?$vector@PEAVio_thread_t@zmq@@V?$allocator@PEAVio_thread_t@zmq@@@std@@@std@@QEAA@XZ 000000018003e9b0 f i libzmq:ctx.obj
 0001:0003d9f0       ??1radio_session_t@zmq@@UEAA@XZ 000000018003e9f0 f   libzmq:radio.obj
 0001:0003da20       ??1radio_t@zmq@@UEAA@XZ    000000018003ea20 f   libzmq:radio.obj
 0001:0003dae8       ??_Eradio_session_t@zmq@@WDCI@EAAPEAXI@Z 000000018003eae8 f i libzmq:radio.obj
 0001:0003daf4       ??_Eradio_session_t@zmq@@WDDI@EAAPEAXI@Z 000000018003eaf4 f i libzmq:radio.obj
 0001:0003db00       ??_Eradio_t@zmq@@WDCI@EAAPEAXI@Z 000000018003eb00 f i libzmq:radio.obj
 0001:0003db0c       ??_Eradio_t@zmq@@WDDI@EAAPEAXI@Z 000000018003eb0c f i libzmq:radio.obj
 0001:0003db18       ??_Eradio_t@zmq@@WDEA@EAAPEAXI@Z 000000018003eb18 f i libzmq:radio.obj
 0001:0003db30       ??_Eradio_session_t@zmq@@UEAAPEAXI@Z 000000018003eb30 f i libzmq:radio.obj
 0001:0003db30       ??_Gradio_session_t@zmq@@UEAAPEAXI@Z 000000018003eb30 f i libzmq:radio.obj
 0001:0003db70       ??_Gradio_t@zmq@@UEAAPEAXI@Z 000000018003eb70 f i libzmq:radio.obj
 0001:0003db70       ??_Eradio_t@zmq@@UEAAPEAXI@Z 000000018003eb70 f i libzmq:radio.obj
 0001:0003dbb0       ?pull_msg@radio_session_t@zmq@@UEAAHPEAVmsg_t@2@@Z 000000018003ebb0 f   libzmq:radio.obj
 0001:0003dd00       ?push_msg@radio_session_t@zmq@@UEAAHPEAVmsg_t@2@@Z 000000018003ed00 f   libzmq:radio.obj
 0001:0003df60       ?xattach_pipe@radio_t@zmq@@UEAAXPEAVpipe_t@2@_N@Z 000000018003ef60 f   libzmq:radio.obj
 0001:0003e030       ?xhas_out@radio_t@zmq@@UEAA_NXZ 000000018003f030 f   libzmq:radio.obj
 0001:0003e040       ?xpipe_terminated@radio_t@zmq@@UEAAXPEAVpipe_t@2@@Z 000000018003f040 f   libzmq:radio.obj
 0001:0003e1a0       ?xread_activated@radio_t@zmq@@UEAAXPEAVpipe_t@2@@Z 000000018003f1a0 f   libzmq:radio.obj
 0001:0003e3f0       ?xsend@radio_t@zmq@@UEAAHPEAVmsg_t@2@@Z 000000018003f3f0 f   libzmq:radio.obj
 0001:0003e610       ?xwrite_activated@radio_t@zmq@@UEAAXPEAVpipe_t@2@@Z 000000018003f610 f   libzmq:radio.obj
 0001:0003e620       ??$_Buynode@AEBV?$basic_string@DU?$char_traits@D@std@@V?$allocator@D@2@@std@@@?$_Tree_comp_alloc@V?$_Tset_traits@V?$basic_string@DU?$char_traits@D@std@@V?$allocator@D@2@@std@@U?$less@V?$basic_string@DU?$char_traits@D@std@@V?$allocator@D@2@@std@@@2@V?$allocator@V?$basic_string@DU?$char_traits@D@std@@V?$allocator@D@2@@std@@@2@$0A@@std@@@std@@QEAAPEAU?$_Tree_node@V?$basic_string@DU?$char_traits@D@std@@V?$allocator@D@2@@std@@PEAX@1@AEBV?$basic_string@DU?$char_traits@D@std@@V?$allocator@D@2@@1@@Z 000000018003f620 f i libzmq:dish.obj
 0001:0003e6a0       ??$_Find_unchecked1@V?$_Tree_unchecked_const_iterator@V?$_Tree_val@U?$_Tree_simple_types@V?$basic_string@DU?$char_traits@D@std@@V?$allocator@D@2@@std@@@std@@@std@@U_Iterator_base0@2@@std@@V?$basic_string@DU?$char_traits@D@std@@V?$allocator@D@2@@2@@std@@YA?AV?$_Tree_unchecked_const_iterator@V?$_Tree_val@U?$_Tree_simple_types@V?$basic_string@DU?$char_traits@D@std@@V?$allocator@D@2@@std@@@std@@@std@@U_Iterator_base0@2@@0@V10@0AEBV?$basic_string@DU?$char_traits@D@std@@V?$allocator@D@2@@0@U?$integral_constant@_N$0A@@0@@Z 000000018003f6a0 f i libzmq:dish.obj
 0001:0003e7c0       ??$_Insert_at@AEBV?$basic_string@DU?$char_traits@D@std@@V?$allocator@D@2@@std@@U_Nil@2@@?$_Tree@V?$_Tset_traits@V?$basic_string@DU?$char_traits@D@std@@V?$allocator@D@2@@std@@U?$less@V?$basic_string@DU?$char_traits@D@std@@V?$allocator@D@2@@std@@@2@V?$allocator@V?$basic_string@DU?$char_traits@D@std@@V?$allocator@D@2@@std@@@2@$0A@@std@@@std@@IEAA?AV?$_Tree_const_iterator@V?$_Tree_val@U?$_Tree_simple_types@V?$basic_string@DU?$char_traits@D@std@@V?$allocator@D@2@@std@@@std@@@std@@@1@_NPEAU?$_Tree_node@V?$basic_string@DU?$char_traits@D@std@@V?$allocator@D@2@@std@@PEAX@1@AEBV?$basic_string@DU?$char_traits@D@std@@V?$allocator@D@2@@1@U_Nil@1@@Z 000000018003f7c0 f i libzmq:dish.obj
 0001:0003ea90       ??$_Insert_nohint@AEBV?$basic_string@DU?$char_traits@D@std@@V?$allocator@D@2@@std@@U_Nil@2@@?$_Tree@V?$_Tset_traits@V?$basic_string@DU?$char_traits@D@std@@V?$allocator@D@2@@std@@U?$less@V?$basic_string@DU?$char_traits@D@std@@V?$allocator@D@2@@std@@@2@V?$allocator@V?$basic_string@DU?$char_traits@D@std@@V?$allocator@D@2@@std@@@2@$0A@@std@@@std@@IEAA?AU?$pair@V?$_Tree_const_iterator@V?$_Tree_val@U?$_Tree_simple_types@V?$basic_string@DU?$char_traits@D@std@@V?$allocator@D@2@@std@@@std@@@std@@@std@@_N@1@_NAEBV?$basic_string@DU?$char_traits@D@std@@V?$allocator@D@2@@1@U_Nil@1@@Z 000000018003fa90 f i libzmq:dish.obj
 0001:0003ece0       ??$_Lbound@V?$basic_string@DU?$char_traits@D@std@@V?$allocator@D@2@@std@@@?$_Tree@V?$_Tmap_traits@V?$basic_string@DU?$char_traits@D@std@@V?$allocator@D@2@@std@@Uendpoint_t@zmq@@U?$less@V?$basic_string@DU?$char_traits@D@std@@V?$allocator@D@2@@std@@@2@V?$allocator@U?$pair@$$CBV?$basic_string@DU?$char_traits@D@std@@V?$allocator@D@2@@std@@Uendpoint_t@zmq@@@std@@@2@$0A@@std@@@std@@IEBAPEAU?$_Tree_node@U?$pair@$$CBV?$basic_string@DU?$char_traits@D@std@@V?$allocator@D@2@@std@@Uendpoint_t@zmq@@@std@@PEAX@1@AEBV?$basic_string@DU?$char_traits@D@std@@V?$allocator@D@2@@1@@Z 000000018003fce0 f i libzmq:ctx.obj
 0001:0003ece0       ??$_Lbound@V?$basic_string@DU?$char_traits@D@std@@V?$allocator@D@2@@std@@@?$_Tree@V?$_Tset_traits@V?$basic_string@DU?$char_traits@D@std@@V?$allocator@D@2@@std@@U?$less@V?$basic_string@DU?$char_traits@D@std@@V?$allocator@D@2@@std@@@2@V?$allocator@V?$basic_string@DU?$char_traits@D@std@@V?$allocator@D@2@@std@@@2@$0A@@std@@@std@@IEBAPEAU?$_Tree_node@V?$basic_string@DU?$char_traits@D@std@@V?$allocator@D@2@@std@@PEAX@1@AEBV?$basic_string@DU?$char_traits@D@std@@V?$allocator@D@2@@1@@Z 000000018003fce0 f i libzmq:dish.obj
 0001:0003ece0       ??$_Lbound@V?$basic_string@DU?$char_traits@D@std@@V?$allocator@D@2@@std@@@?$_Tree@V?$_Tmap_traits@V?$basic_string@DU?$char_traits@D@std@@V?$allocator@D@2@@std@@V12@U?$less@V?$basic_string@DU?$char_traits@D@std@@V?$allocator@D@2@@std@@@2@V?$allocator@U?$pair@$$CBV?$basic_string@DU?$char_traits@D@std@@V?$allocator@D@2@@std@@V12@@std@@@2@$0A@@std@@@std@@IEBAPEAU?$_Tree_node@U?$pair@$$CBV?$basic_string@DU?$char_traits@D@std@@V?$allocator@D@2@@std@@V12@@std@@PEAX@1@AEBV?$basic_string@DU?$char_traits@D@std@@V?$allocator@D@2@@1@@Z 000000018003fce0 f i libzmq:metadata.obj
 0001:0003ed80       ??0dish_session_t@zmq@@QEAA@PEAVio_thread_t@1@_NPEAVsocket_base_t@1@AEBUoptions_t@1@PEAUaddress_t@1@@Z 000000018003fd80 f   libzmq:dish.obj
 0001:0003ede0       ??0dish_t@zmq@@QEAA@PEAVctx_t@1@IH@Z 000000018003fde0 f   libzmq:dish.obj
 0001:0003ef00       ??1?$set@V?$basic_string@DU?$char_traits@D@std@@V?$allocator@D@2@@std@@U?$less@V?$basic_string@DU?$char_traits@D@std@@V?$allocator@D@2@@std@@@2@V?$allocator@V?$basic_string@DU?$char_traits@D@std@@V?$allocator@D@2@@std@@@2@@std@@QEAA@XZ 000000018003ff00 f i libzmq:dish.obj
 0001:0003ef40       ??1dish_session_t@zmq@@UEAA@XZ 000000018003ff40 f   libzmq:dish.obj
 0001:0003ef70       ??1dish_t@zmq@@UEAA@XZ     000000018003ff70 f   libzmq:dish.obj
 0001:0003f080       ??_Edish_session_t@zmq@@WDCI@EAAPEAXI@Z 0000000180040080 f i libzmq:dish.obj
 0001:0003f08c       ??_Edish_session_t@zmq@@WDDI@EAAPEAXI@Z 000000018004008c f i libzmq:dish.obj
 0001:0003f098       ??_Edish_t@zmq@@WDCI@EAAPEAXI@Z 0000000180040098 f i libzmq:dish.obj
 0001:0003f0a4       ??_Edish_t@zmq@@WDDI@EAAPEAXI@Z 00000001800400a4 f i libzmq:dish.obj
 0001:0003f0b0       ??_Edish_t@zmq@@WDEA@EAAPEAXI@Z 00000001800400b0 f i libzmq:dish.obj
 0001:0003f0c0       ??_Gdish_session_t@zmq@@UEAAPEAXI@Z 00000001800400c0 f i libzmq:dish.obj
 0001:0003f0c0       ??_Edish_session_t@zmq@@UEAAPEAXI@Z 00000001800400c0 f i libzmq:dish.obj
 0001:0003f100       ??_Gdish_t@zmq@@UEAAPEAXI@Z 0000000180040100 f i libzmq:dish.obj
 0001:0003f100       ??_Edish_t@zmq@@UEAAPEAXI@Z 0000000180040100 f i libzmq:dish.obj
 0001:0003f140       ?_Buyheadnode@?$_Tree_comp_alloc@V?$_Tset_traits@V?$basic_string@DU?$char_traits@D@std@@V?$allocator@D@2@@std@@U?$less@V?$basic_string@DU?$char_traits@D@std@@V?$allocator@D@2@@std@@@2@V?$allocator@V?$basic_string@DU?$char_traits@D@std@@V?$allocator@D@2@@std@@@2@$0A@@std@@@std@@QEAAPEAU?$_Tree_node@V?$basic_string@DU?$char_traits@D@std@@V?$allocator@D@2@@std@@PEAX@2@XZ 0000000180040140 f i libzmq:dish.obj
 0001:0003f1a0       ?_Buynode0@?$_Tree_comp_alloc@V?$_Tset_traits@V?$basic_string@DU?$char_traits@D@std@@V?$allocator@D@2@@std@@U?$less@V?$basic_string@DU?$char_traits@D@std@@V?$allocator@D@2@@std@@@2@V?$allocator@V?$basic_string@DU?$char_traits@D@std@@V?$allocator@D@2@@std@@@2@$0A@@std@@@std@@QEAAPEAU?$_Tree_node@V?$basic_string@DU?$char_traits@D@std@@V?$allocator@D@2@@std@@PEAX@2@XZ 00000001800401a0 f i libzmq:dish.obj
 0001:0003f200       ?_Lrotate@?$_Tree@V?$_Tmap_traits@V?$basic_string@DU?$char_traits@D@std@@V?$allocator@D@2@@std@@Upending_connection_t@ctx_t@zmq@@U?$less@V?$basic_string@DU?$char_traits@D@std@@V?$allocator@D@2@@std@@@2@V?$allocator@U?$pair@$$CBV?$basic_string@DU?$char_traits@D@std@@V?$allocator@D@2@@std@@Upending_connection_t@ctx_t@zmq@@@std@@@2@$00@std@@@std@@IEAAXPEAU?$_Tree_node@U?$pair@$$CBV?$basic_string@DU?$char_traits@D@std@@V?$allocator@D@2@@std@@Upending_connection_t@ctx_t@zmq@@@std@@PEAX@2@@Z 0000000180040200 f i libzmq:ctx.obj
 0001:0003f200       ?_Lrotate@?$_Tree@V?$_Tmap_traits@V?$basic_string@DU?$char_traits@D@std@@V?$allocator@D@2@@std@@V12@U?$less@V?$basic_string@DU?$char_traits@D@std@@V?$allocator@D@2@@std@@@2@V?$allocator@U?$pair@$$CBV?$basic_string@DU?$char_traits@D@std@@V?$allocator@D@2@@std@@V12@@std@@@2@$0A@@std@@@std@@IEAAXPEAU?$_Tree_node@U?$pair@$$CBV?$basic_string@DU?$char_traits@D@std@@V?$allocator@D@2@@std@@V12@@std@@PEAX@2@@Z 0000000180040200 f i libzmq:metadata.obj
 0001:0003f200       ?_Lrotate@?$_Tree@V?$_Tmap_traits@V?$basic_string@DU?$char_traits@D@std@@V?$allocator@D@2@@std@@U?$pair@PEAVown_t@zmq@@PEAVpipe_t@2@@2@U?$less@V?$basic_string@DU?$char_traits@D@std@@V?$allocator@D@2@@std@@@2@V?$allocator@U?$pair@$$CBV?$basic_string@DU?$char_traits@D@std@@V?$allocator@D@2@@std@@U?$pair@PEAVown_t@zmq@@PEAVpipe_t@2@@2@@std@@@2@$00@std@@@std@@IEAAXPEAU?$_Tree_node@U?$pair@$$CBV?$basic_string@DU?$char_traits@D@std@@V?$allocator@D@2@@std@@U?$pair@PEAVown_t@zmq@@PEAVpipe_t@2@@2@@std@@PEAX@2@@Z 0000000180040200 f i libzmq:socket_base.obj
 0001:0003f200       ?_Lrotate@?$_Tree@V?$_Tmap_traits@V?$basic_string@DU?$char_traits@D@std@@V?$allocator@D@2@@std@@PEAVpipe_t@zmq@@U?$less@V?$basic_string@DU?$char_traits@D@std@@V?$allocator@D@2@@std@@@2@V?$allocator@U?$pair@$$CBV?$basic_string@DU?$char_traits@D@std@@V?$allocator@D@2@@std@@PEAVpipe_t@zmq@@@std@@@2@$00@std@@@std@@IEAAXPEAU?$_Tree_node@U?$pair@$$CBV?$basic_string@DU?$char_traits@D@std@@V?$allocator@D@2@@std@@PEAVpipe_t@zmq@@@std@@PEAX@2@@Z 0000000180040200 f i libzmq:socket_base.obj
 0001:0003f200       ?_Lrotate@?$_Tree@V?$_Tset_traits@V?$basic_string@DU?$char_traits@D@std@@V?$allocator@D@2@@std@@U?$less@V?$basic_string@DU?$char_traits@D@std@@V?$allocator@D@2@@std@@@2@V?$allocator@V?$basic_string@DU?$char_traits@D@std@@V?$allocator@D@2@@std@@@2@$0A@@std@@@std@@IEAAXPEAU?$_Tree_node@V?$basic_string@DU?$char_traits@D@std@@V?$allocator@D@2@@std@@PEAX@2@@Z 0000000180040200 f i libzmq:dish.obj
 0001:0003f200       ?_Lrotate@?$_Tree@V?$_Tmap_traits@V?$basic_string@EU?$char_traits@E@std@@V?$allocator@E@2@@std@@Uoutpipe_t@router_t@zmq@@U?$less@V?$basic_string@EU?$char_traits@E@std@@V?$allocator@E@2@@std@@@2@V?$allocator@U?$pair@$$CBV?$basic_string@EU?$char_traits@E@std@@V?$allocator@E@2@@std@@Uoutpipe_t@router_t@zmq@@@std@@@2@$0A@@std@@@std@@IEAAXPEAU?$_Tree_node@U?$pair@$$CBV?$basic_string@EU?$char_traits@E@std@@V?$allocator@E@2@@std@@Uoutpipe_t@router_t@zmq@@@std@@PEAX@2@@Z 0000000180040200 f i libzmq:router.obj
 0001:0003f200       ?_Lrotate@?$_Tree@V?$_Tset_traits@PEAVpipe_t@zmq@@U?$less@PEAVpipe_t@zmq@@@std@@V?$allocator@PEAVpipe_t@zmq@@@4@$0A@@std@@@std@@IEAAXPEAU?$_Tree_node@PEAVpipe_t@zmq@@PEAX@2@@Z 0000000180040200 f i libzmq:session_base.obj
 0001:0003f200       ?_Lrotate@?$_Tree@V?$_Tset_traits@PEAVown_t@zmq@@U?$less@PEAVown_t@zmq@@@std@@V?$allocator@PEAVown_t@zmq@@@4@$0A@@std@@@std@@IEAAXPEAU?$_Tree_node@PEAVown_t@zmq@@PEAX@2@@Z 0000000180040200 f i libzmq:own.obj
 0001:0003f200       ?_Lrotate@?$_Tree@V?$_Tmap_traits@V?$basic_string@EU?$char_traits@E@std@@V?$allocator@E@2@@std@@Uoutpipe_t@stream_t@zmq@@U?$less@V?$basic_string@EU?$char_traits@E@std@@V?$allocator@E@2@@std@@@2@V?$allocator@U?$pair@$$CBV?$basic_string@EU?$char_traits@E@std@@V?$allocator@E@2@@std@@Uoutpipe_t@stream_t@zmq@@@std@@@2@$0A@@std@@@std@@IEAAXPEAU?$_Tree_node@U?$pair@$$CBV?$basic_string@EU?$char_traits@E@std@@V?$allocator@E@2@@std@@Uoutpipe_t@stream_t@zmq@@@std@@PEAX@2@@Z 0000000180040200 f i libzmq:stream.obj
 0001:0003f200       ?_Lrotate@?$_Tree@V?$_Tmap_traits@V?$basic_string@DU?$char_traits@D@std@@V?$allocator@D@2@@std@@Uendpoint_t@zmq@@U?$less@V?$basic_string@DU?$char_traits@D@std@@V?$allocator@D@2@@std@@@2@V?$allocator@U?$pair@$$CBV?$basic_string@DU?$char_traits@D@std@@V?$allocator@D@2@@std@@Uendpoint_t@zmq@@@std@@@2@$0A@@std@@@std@@IEAAXPEAU?$_Tree_node@U?$pair@$$CBV?$basic_string@DU?$char_traits@D@std@@V?$allocator@D@2@@std@@Uendpoint_t@zmq@@@std@@PEAX@2@@Z 0000000180040200 f i libzmq:ctx.obj
 0001:0003f200       ?_Lrotate@?$_Tree@V?$_Tmap_traits@GUfamily_entry_t@select_t@zmq@@U?$less@G@std@@V?$allocator@U?$pair@$$CBGUfamily_entry_t@select_t@zmq@@@std@@@5@$0A@@std@@@std@@IEAAXPEAU?$_Tree_node@U?$pair@$$CBGUfamily_entry_t@select_t@zmq@@@std@@PEAX@2@@Z 0000000180040200 f i libzmq:select.obj
 0001:0003f200       ?_Lrotate@?$_Tree@V?$_Tmap_traits@_KUtimer_info_t@poller_base_t@zmq@@U?$less@_K@std@@V?$allocator@U?$pair@$$CB_KUtimer_info_t@poller_base_t@zmq@@@std@@@5@$00@std@@@std@@IEAAXPEAU?$_Tree_node@U?$pair@$$CB_KUtimer_info_t@poller_base_t@zmq@@@std@@PEAX@2@@Z 0000000180040200 f i libzmq:poller_base.obj
 0001:0003f200       ?_Lrotate@?$_Tree@V?$_Tmap_traits@IUoutpipe_t@server_t@zmq@@U?$less@I@std@@V?$allocator@U?$pair@$$CBIUoutpipe_t@server_t@zmq@@@std@@@5@$0A@@std@@@std@@IEAAXPEAU?$_Tree_node@U?$pair@$$CBIUoutpipe_t@server_t@zmq@@@std@@PEAX@2@@Z 0000000180040200 f i libzmq:server.obj
 0001:0003f260       ?erase@?$_Tree@V?$_Tset_traits@V?$basic_string@DU?$char_traits@D@std@@V?$allocator@D@2@@std@@U?$less@V?$basic_string@DU?$char_traits@D@std@@V?$allocator@D@2@@std@@@2@V?$allocator@V?$basic_string@DU?$char_traits@D@std@@V?$allocator@D@2@@std@@@2@$0A@@std@@@std@@QEAA?AV?$_Tree_const_iterator@V?$_Tree_val@U?$_Tree_simple_types@V?$basic_string@DU?$char_traits@D@std@@V?$allocator@D@2@@std@@@std@@@std@@@2@V32@0@Z 0000000180040260 f i libzmq:dish.obj
 0001:0003f350       ?pull_msg@dish_session_t@zmq@@UEAAHPEAVmsg_t@2@@Z 0000000180040350 f   libzmq:dish.obj
 0001:0003f5e0       ?push_msg@dish_session_t@zmq@@UEAAHPEAVmsg_t@2@@Z 00000001800405e0 f   libzmq:dish.obj
 0001:0003f810       ?reset@dish_session_t@zmq@@UEAAXXZ 0000000180040810 f   libzmq:dish.obj
 0001:0003f810       ?reset@req_session_t@zmq@@UEAAXXZ 0000000180040810 f   libzmq:req.obj
 0001:0003f810       ?reset@radio_session_t@zmq@@UEAAXXZ 0000000180040810 f   libzmq:radio.obj
 0001:0003f830       ?send_subscriptions@dish_t@zmq@@AEAAXPEAVpipe_t@2@@Z 0000000180040830 f   libzmq:dish.obj
 0001:0003f9f0       ?xattach_pipe@dish_t@zmq@@MEAAXPEAVpipe_t@2@_N@Z 00000001800409f0 f   libzmq:dish.obj
 0001:0003fa90       ?xhas_in@dish_t@zmq@@MEAA_NXZ 0000000180040a90 f   libzmq:dish.obj
 0001:0003fd20       ?xhiccuped@dish_t@zmq@@MEAAXPEAVpipe_t@2@@Z 0000000180040d20 f   libzmq:dish.obj
 0001:0003fd30       ?xjoin@dish_t@zmq@@MEAAHPEBD@Z 0000000180040d30 f   libzmq:dish.obj
 0001:00040100       ?xleave@dish_t@zmq@@MEAAHPEBD@Z 0000000180041100 f   libzmq:dish.obj
 0001:000403c0       ?xread_activated@gather_t@zmq@@MEAAXPEAVpipe_t@2@@Z 00000001800413c0 f   libzmq:gather.obj
 0001:000403c0       ?xread_activated@client_t@zmq@@MEAAXPEAVpipe_t@2@@Z 00000001800413c0 f   libzmq:client.obj
 0001:000403c0       ?xread_activated@stream_t@zmq@@UEAAXPEAVpipe_t@2@@Z 00000001800413c0 f   libzmq:stream.obj
 0001:000403c0       ?xread_activated@pull_t@zmq@@MEAAXPEAVpipe_t@2@@Z 00000001800413c0 f   libzmq:pull.obj
 0001:000403c0       ?xread_activated@xsub_t@zmq@@MEAAXPEAVpipe_t@2@@Z 00000001800413c0 f   libzmq:xsub.obj
 0001:000403c0       ?xread_activated@server_t@zmq@@UEAAXPEAVpipe_t@2@@Z 00000001800413c0 f   libzmq:server.obj
 0001:000403c0       ?xread_activated@dish_t@zmq@@MEAAXPEAVpipe_t@2@@Z 00000001800413c0 f   libzmq:dish.obj
 0001:000403c0       ?xread_activated@dealer_t@zmq@@MEAAXPEAVpipe_t@2@@Z 00000001800413c0 f   libzmq:dealer.obj
 0001:000403d0       ?xrecv@dish_t@zmq@@MEAAHPEAVmsg_t@2@@Z 00000001800413d0 f   libzmq:dish.obj
 0001:00040620       ?xwrite_activated@dish_t@zmq@@MEAAXPEAVpipe_t@2@@Z 0000000180041620 f   libzmq:dish.obj
 0001:00040620       ?xwrite_activated@xsub_t@zmq@@MEAAXPEAVpipe_t@2@@Z 0000000180041620 f   libzmq:xsub.obj
 0001:00040630       ??0gather_t@zmq@@QEAA@PEAVctx_t@1@IH@Z 0000000180041630 f   libzmq:gather.obj
 0001:000406b0       ??1gather_t@zmq@@UEAA@XZ   00000001800416b0 f   libzmq:gather.obj
 0001:00040708       ??_Egather_t@zmq@@WDCI@EAAPEAXI@Z 0000000180041708 f i libzmq:gather.obj
 0001:00040714       ??_Egather_t@zmq@@WDDI@EAAPEAXI@Z 0000000180041714 f i libzmq:gather.obj
 0001:00040720       ??_Egather_t@zmq@@WDEA@EAAPEAXI@Z 0000000180041720 f i libzmq:gather.obj
 0001:00040730       ??_Egather_t@zmq@@UEAAPEAXI@Z 0000000180041730 f i libzmq:gather.obj
 0001:00040730       ??_Ggather_t@zmq@@UEAAPEAXI@Z 0000000180041730 f i libzmq:gather.obj
 0001:00040770       ?xattach_pipe@gather_t@zmq@@MEAAXPEAVpipe_t@2@_N@Z 0000000180041770 f   libzmq:gather.obj
 0001:000407f0       ??0scatter_t@zmq@@QEAA@PEAVctx_t@1@IH@Z 00000001800417f0 f   libzmq:scatter.obj
 0001:00040870       ??1scatter_t@zmq@@UEAA@XZ  0000000180041870 f   libzmq:scatter.obj
 0001:000408c8       ??_Escatter_t@zmq@@WDCI@EAAPEAXI@Z 00000001800418c8 f i libzmq:scatter.obj
 0001:000408d4       ??_Escatter_t@zmq@@WDDI@EAAPEAXI@Z 00000001800418d4 f i libzmq:scatter.obj
 0001:000408e0       ??_Escatter_t@zmq@@WDEA@EAAPEAXI@Z 00000001800418e0 f i libzmq:scatter.obj
 0001:000408f0       ??_Escatter_t@zmq@@UEAAPEAXI@Z 00000001800418f0 f i libzmq:scatter.obj
 0001:000408f0       ??_Gscatter_t@zmq@@UEAAPEAXI@Z 00000001800418f0 f i libzmq:scatter.obj
 0001:00040930       ?xattach_pipe@scatter_t@zmq@@MEAAXPEAVpipe_t@2@_N@Z 0000000180041930 f   libzmq:scatter.obj
 0001:000409b0       ?xsend@scatter_t@zmq@@MEAAHPEAVmsg_t@2@@Z 00000001800419b0 f   libzmq:scatter.obj
 0001:00040a00       ??0dgram_t@zmq@@QEAA@PEAVctx_t@1@IH@Z 0000000180041a00 f   libzmq:dgram.obj
 0001:00040a90       ??1dgram_t@zmq@@UEAA@XZ    0000000180041a90 f   libzmq:dgram.obj
 0001:00040b4c       ??_Edgram_t@zmq@@WDCI@EAAPEAXI@Z 0000000180041b4c f i libzmq:dgram.obj
 0001:00040b58       ??_Edgram_t@zmq@@WDDI@EAAPEAXI@Z 0000000180041b58 f i libzmq:dgram.obj
 0001:00040b64       ??_Edgram_t@zmq@@WDEA@EAAPEAXI@Z 0000000180041b64 f i libzmq:dgram.obj
 0001:00040b70       ??_Edgram_t@zmq@@UEAAPEAXI@Z 0000000180041b70 f i libzmq:dgram.obj
 0001:00040b70       ??_Gdgram_t@zmq@@UEAAPEAXI@Z 0000000180041b70 f i libzmq:dgram.obj
 0001:00040bb0       ?get_credential@dgram_t@zmq@@UEBA?AV?$basic_string@EU?$char_traits@E@std@@V?$allocator@E@2@@std@@XZ 0000000180041bb0 f   libzmq:dgram.obj
 0001:00040d60       ?xattach_pipe@dgram_t@zmq@@UEAAXPEAVpipe_t@2@_N@Z 0000000180041d60 f   libzmq:dgram.obj
 0001:00040df0       ?xhas_in@pair_t@zmq@@UEAA_NXZ 0000000180041df0 f   libzmq:pair.obj
 0001:00040df0       ?xhas_in@dgram_t@zmq@@UEAA_NXZ 0000000180041df0 f   libzmq:dgram.obj
 0001:00040e10       ?xrecv@dgram_t@zmq@@UEAAHPEAVmsg_t@2@@Z 0000000180041e10 f   libzmq:dgram.obj
 0001:00040f40       ?xsend@dgram_t@zmq@@UEAAHPEAVmsg_t@2@@Z 0000000180041f40 f   libzmq:dgram.obj
 0001:000410c0       ??$_Buynode@U?$pair@$$CB_KUtimer_info_t@poller_base_t@zmq@@@std@@@?$_Tree_comp_alloc@V?$_Tmap_traits@_KUtimer_info_t@poller_base_t@zmq@@U?$less@_K@std@@V?$allocator@U?$pair@$$CB_KUtimer_info_t@poller_base_t@zmq@@@std@@@5@$00@std@@@std@@QEAAPEAU?$_Tree_node@U?$pair@$$CB_KUtimer_info_t@poller_base_t@zmq@@@std@@PEAX@1@$$QEAU?$pair@$$CB_KUtimer_info_t@poller_base_t@zmq@@@1@@Z 00000001800420c0 f i libzmq:poller_base.obj
 0001:00041110       ??$_Insert_at@U?$pair@$$CB_KUtimer_info_t@poller_base_t@zmq@@@std@@U_Nil@2@@?$_Tree@V?$_Tmap_traits@_KUtimer_info_t@poller_base_t@zmq@@U?$less@_K@std@@V?$allocator@U?$pair@$$CB_KUtimer_info_t@poller_base_t@zmq@@@std@@@5@$00@std@@@std@@IEAA?AV?$_Tree_iterator@V?$_Tree_val@U?$_Tree_simple_types@U?$pair@$$CB_KUtimer_info_t@poller_base_t@zmq@@@std@@@std@@@std@@@1@_NPEAU?$_Tree_node@U?$pair@$$CB_KUtimer_info_t@poller_base_t@zmq@@@std@@PEAX@1@$$QEAU?$pair@$$CB_KUtimer_info_t@poller_base_t@zmq@@@1@U_Nil@1@@Z 0000000180042110 f i libzmq:poller_base.obj
 0001:000413e0       ??$_Insert_nohint@U?$pair@$$CB_KUtimer_info_t@poller_base_t@zmq@@@std@@U_Nil@2@@?$_Tree@V?$_Tmap_traits@_KUtimer_info_t@poller_base_t@zmq@@U?$less@_K@std@@V?$allocator@U?$pair@$$CB_KUtimer_info_t@poller_base_t@zmq@@@std@@@5@$00@std@@@std@@IEAA?AU?$pair@V?$_Tree_iterator@V?$_Tree_val@U?$_Tree_simple_types@U?$pair@$$CB_KUtimer_info_t@poller_base_t@zmq@@@std@@@std@@@std@@@std@@_N@1@_N$$QEAU?$pair@$$CB_KUtimer_info_t@poller_base_t@zmq@@@1@U_Nil@1@@Z 00000001800423e0 f i libzmq:poller_base.obj
 0001:00041480       ??0poller_base_t@zmq@@QEAA@XZ 0000000180042480 f   libzmq:poller_base.obj
 0001:000414f0       ??1poller_base_t@zmq@@UEAA@XZ 00000001800424f0 f   libzmq:poller_base.obj
 0001:000415b0       ??_Gpoller_base_t@zmq@@UEAAPEAXI@Z 00000001800425b0 f i libzmq:poller_base.obj
 0001:000415b0       ??_Epoller_base_t@zmq@@UEAAPEAXI@Z 00000001800425b0 f i libzmq:poller_base.obj
 0001:000415f0       ?_Buyheadnode@?$_Tree_comp_alloc@V?$_Tmap_traits@_KUtimer_info_t@poller_base_t@zmq@@U?$less@_K@std@@V?$allocator@U?$pair@$$CB_KUtimer_info_t@poller_base_t@zmq@@@std@@@5@$00@std@@@std@@QEAAPEAU?$_Tree_node@U?$pair@$$CB_KUtimer_info_t@poller_base_t@zmq@@@std@@PEAX@2@XZ 00000001800425f0 f i libzmq:poller_base.obj
 0001:00041650       ?_Buynode0@?$_Tree_comp_alloc@V?$_Tmap_traits@_KUtimer_info_t@poller_base_t@zmq@@U?$less@_K@std@@V?$allocator@U?$pair@$$CB_KUtimer_info_t@poller_base_t@zmq@@@std@@@5@$00@std@@@std@@QEAAPEAU?$_Tree_node@U?$pair@$$CB_KUtimer_info_t@poller_base_t@zmq@@@std@@PEAX@2@XZ 0000000180042650 f i libzmq:poller_base.obj
 0001:000416b0       ?add_timer@poller_base_t@zmq@@QEAAXHPEAUi_poll_events@2@H@Z 00000001800426b0 f   libzmq:poller_base.obj
 0001:00041730       ?adjust_load@poller_base_t@zmq@@IEAAXH@Z 0000000180042730 f   libzmq:poller_base.obj
 0001:00041740       ?cancel_timer@poller_base_t@zmq@@QEAAXPEAUi_poll_events@2@H@Z 0000000180042740 f   libzmq:poller_base.obj
 0001:00041820       ?clear@?$_Tree@V?$_Tmap_traits@_KUtimer_info_t@poller_base_t@zmq@@U?$less@_K@std@@V?$allocator@U?$pair@$$CB_KUtimer_info_t@poller_base_t@zmq@@@std@@@5@$00@std@@@std@@QEAAXXZ 0000000180042820 f i libzmq:poller_base.obj
 0001:000418a0       ?erase@?$_Tree@V?$_Tmap_traits@_KUtimer_info_t@poller_base_t@zmq@@U?$less@_K@std@@V?$allocator@U?$pair@$$CB_KUtimer_info_t@poller_base_t@zmq@@@std@@@5@$00@std@@@std@@QEAA?AV?$_Tree_iterator@V?$_Tree_val@U?$_Tree_simple_types@U?$pair@$$CB_KUtimer_info_t@poller_base_t@zmq@@@std@@@std@@@std@@@2@V?$_Tree_const_iterator@V?$_Tree_val@U?$_Tree_simple_types@U?$pair@$$CB_KUtimer_info_t@poller_base_t@zmq@@@std@@@std@@@std@@@2@0@Z 00000001800428a0 f i libzmq:poller_base.obj
 0001:00041980       ?execute_timers@poller_base_t@zmq@@IEAA_KXZ 0000000180042980 f   libzmq:poller_base.obj
 0001:00041a70       ?get_load@poller_base_t@zmq@@QEAAHXZ 0000000180042a70 f   libzmq:poller_base.obj
 0001:00041a80       ?enable_ipv4_mapping@zmq@@YAX_K@Z 0000000180042a80 f   libzmq:ip.obj
 0001:00041b10       ?get_peer_ip_address@zmq@@YAH_KAEAV?$basic_string@DU?$char_traits@D@std@@V?$allocator@D@2@@std@@@Z 0000000180042b10 f   libzmq:ip.obj
 0001:00041c60       ?open_socket@zmq@@YA_KHHH@Z 0000000180042c60 f   libzmq:ip.obj
 0001:00041d90       ?set_ip_type_of_service@zmq@@YAX_KH@Z 0000000180042d90 f   libzmq:ip.obj
 0001:00041e20       ?unblock_socket@zmq@@YAX_K@Z 0000000180042e20 f   libzmq:ip.obj
 0001:00041eb0       ??0io_object_t@zmq@@QEAA@PEAVio_thread_t@1@@Z 0000000180042eb0 f   libzmq:io_object.obj
 0001:00041ef0       ??_Gio_object_t@zmq@@UEAAPEAXI@Z 0000000180042ef0 f i libzmq:io_object.obj
 0001:00041ef0       ??_Eio_object_t@zmq@@UEAAPEAXI@Z 0000000180042ef0 f i libzmq:io_object.obj
 0001:00041f30       ?add_fd@io_object_t@zmq@@IEAA_K_K@Z 0000000180042f30 f   libzmq:io_object.obj
 0001:00041f40       ?add_timer@io_object_t@zmq@@IEAAXHH@Z 0000000180042f40 f   libzmq:io_object.obj
 0001:00041f50       ?cancel_timer@io_object_t@zmq@@IEAAXH@Z 0000000180042f50 f   libzmq:io_object.obj
 0001:00041f60       ?in_event@io_object_t@zmq@@MEAAXXZ 0000000180042f60 f   libzmq:io_object.obj
 0001:00041fc0       ?out_event@io_object_t@zmq@@MEAAXXZ 0000000180042fc0 f   libzmq:io_object.obj
 0001:00042020       ?plug@io_object_t@zmq@@QEAAXPEAVio_thread_t@2@@Z 0000000180043020 f   libzmq:io_object.obj
 0001:000420f0       ?reset_pollin@io_object_t@zmq@@IEAAX_K@Z 00000001800430f0 f   libzmq:io_object.obj
 0001:00042100       ?reset_pollout@io_object_t@zmq@@IEAAX_K@Z 0000000180043100 f   libzmq:io_object.obj
 0001:00042110       ?rm_fd@io_object_t@zmq@@IEAAX_K@Z 0000000180043110 f   libzmq:io_object.obj
 0001:00042120       ?set_pollin@io_object_t@zmq@@IEAAX_K@Z 0000000180043120 f   libzmq:io_object.obj
 0001:00042130       ?set_pollout@io_object_t@zmq@@IEAAX_K@Z 0000000180043130 f   libzmq:io_object.obj
 0001:00042140       ?timer_event@io_object_t@zmq@@MEAAXH@Z 0000000180043140 f   libzmq:io_object.obj
 0001:000421a0       ?unplug@io_object_t@zmq@@QEAAXXZ 00000001800431a0 f   libzmq:io_object.obj
 0001:00042220       ??$?0PEBDV?$basic_string@DU?$char_traits@D@std@@V?$allocator@D@2@@std@@X$0A@@?$pair@$$CBV?$basic_string@DU?$char_traits@D@std@@V?$allocator@D@2@@std@@V12@@std@@QEAA@$$QEAU?$pair@PEBDV?$basic_string@DU?$char_traits@D@std@@V?$allocator@D@2@@std@@@1@@Z 0000000180043220 f i libzmq:stream_engine.obj
 0001:000422a0       ??$_Buynode@AEBU?$pair@$$CBV?$basic_string@DU?$char_traits@D@std@@V?$allocator@D@2@@std@@V12@@std@@@?$_Tree_comp_alloc@V?$_Tmap_traits@V?$basic_string@DU?$char_traits@D@std@@V?$allocator@D@2@@std@@V12@U?$less@V?$basic_string@DU?$char_traits@D@std@@V?$allocator@D@2@@std@@@2@V?$allocator@U?$pair@$$CBV?$basic_string@DU?$char_traits@D@std@@V?$allocator@D@2@@std@@V12@@std@@@2@$0A@@std@@@std@@QEAAPEAU?$_Tree_node@U?$pair@$$CBV?$basic_string@DU?$char_traits@D@std@@V?$allocator@D@2@@std@@V12@@std@@PEAX@1@AEBU?$pair@$$CBV?$basic_string@DU?$char_traits@D@std@@V?$allocator@D@2@@std@@V12@@1@@Z 00000001800432a0 f i libzmq:stream_engine.obj
 0001:00042300       ??$_Buynode@U?$pair@PEBDV?$basic_string@DU?$char_traits@D@std@@V?$allocator@D@2@@std@@@std@@@?$_Tree_comp_alloc@V?$_Tmap_traits@V?$basic_string@DU?$char_traits@D@std@@V?$allocator@D@2@@std@@V12@U?$less@V?$basic_string@DU?$char_traits@D@std@@V?$allocator@D@2@@std@@@2@V?$allocator@U?$pair@$$CBV?$basic_string@DU?$char_traits@D@std@@V?$allocator@D@2@@std@@V12@@std@@@2@$0A@@std@@@std@@QEAAPEAU?$_Tree_node@U?$pair@$$CBV?$basic_string@DU?$char_traits@D@std@@V?$allocator@D@2@@std@@V12@@std@@PEAX@1@$$QEAU?$pair@PEBDV?$basic_string@DU?$char_traits@D@std@@V?$allocator@D@2@@std@@@1@@Z 0000000180043300 f i libzmq:stream_engine.obj
 0001:00042360       ??$_Insert_at@AEAU?$pair@$$CBV?$basic_string@DU?$char_traits@D@std@@V?$allocator@D@2@@std@@V12@@std@@PEAU?$_Tree_node@U?$pair@$$CBV?$basic_string@DU?$char_traits@D@std@@V?$allocator@D@2@@std@@V12@@std@@PEAX@2@@?$_Tree@V?$_Tmap_traits@V?$basic_string@DU?$char_traits@D@std@@V?$allocator@D@2@@std@@V12@U?$less@V?$basic_string@DU?$char_traits@D@std@@V?$allocator@D@2@@std@@@2@V?$allocator@U?$pair@$$CBV?$basic_string@DU?$char_traits@D@std@@V?$allocator@D@2@@std@@V12@@std@@@2@$0A@@std@@@std@@IEAA?AV?$_Tree_iterator@V?$_Tree_val@U?$_Tree_simple_types@U?$pair@$$CBV?$basic_string@DU?$char_traits@D@std@@V?$allocator@D@2@@std@@V12@@std@@@std@@@std@@@1@_NPEAU?$_Tree_node@U?$pair@$$CBV?$basic_string@DU?$char_traits@D@std@@V?$allocator@D@2@@std@@V12@@std@@PEAX@1@AEAU?$pair@$$CBV?$basic_string@DU?$char_traits@D@std@@V?$allocator@D@2@@std@@V12@@1@1@Z 0000000180043360 f i libzmq:stream_engine.obj
 0001:00042620       ??$_Insert_hint@AEAU?$pair@$$CBV?$basic_string@DU?$char_traits@D@std@@V?$allocator@D@2@@std@@V12@@std@@PEAU?$_Tree_node@U?$pair@$$CBV?$basic_string@DU?$char_traits@D@std@@V?$allocator@D@2@@std@@V12@@std@@PEAX@2@@?$_Tree@V?$_Tmap_traits@V?$basic_string@DU?$char_traits@D@std@@V?$allocator@D@2@@std@@V12@U?$less@V?$basic_string@DU?$char_traits@D@std@@V?$allocator@D@2@@std@@@2@V?$allocator@U?$pair@$$CBV?$basic_string@DU?$char_traits@D@std@@V?$allocator@D@2@@std@@V12@@std@@@2@$0A@@std@@@std@@IEAA?AV?$_Tree_iterator@V?$_Tree_val@U?$_Tree_simple_types@U?$pair@$$CBV?$basic_string@DU?$char_traits@D@std@@V?$allocator@D@2@@std@@V12@@std@@@std@@@std@@@1@V?$_Tree_const_iterator@V?$_Tree_val@U?$_Tree_simple_types@U?$pair@$$CBV?$basic_string@DU?$char_traits@D@std@@V?$allocator@D@2@@std@@V12@@std@@@std@@@std@@@1@AEAU?$pair@$$CBV?$basic_string@DU?$char_traits@D@std@@V?$allocator@D@2@@std@@V12@@1@PEAU?$_Tree_node@U?$pair@$$CBV?$basic_string@DU?$char_traits@D@std@@V?$allocator@D@2@@std@@V12@@std@@PEAX@1@@Z 0000000180043620 f i libzmq:stream_engine.obj
 0001:000428e0       ??$_Insert_nohint@AEAU?$pair@$$CBV?$basic_string@DU?$char_traits@D@std@@V?$allocator@D@2@@std@@V12@@std@@PEAU?$_Tree_node@U?$pair@$$CBV?$basic_string@DU?$char_traits@D@std@@V?$allocator@D@2@@std@@V12@@std@@PEAX@2@@?$_Tree@V?$_Tmap_traits@V?$basic_string@DU?$char_traits@D@std@@V?$allocator@D@2@@std@@V12@U?$less@V?$basic_string@DU?$char_traits@D@std@@V?$allocator@D@2@@std@@@2@V?$allocator@U?$pair@$$CBV?$basic_string@DU?$char_traits@D@std@@V?$allocator@D@2@@std@@V12@@std@@@2@$0A@@std@@@std@@IEAA?AU?$pair@V?$_Tree_iterator@V?$_Tree_val@U?$_Tree_simple_types@U?$pair@$$CBV?$basic_string@DU?$char_traits@D@std@@V?$allocator@D@2@@std@@V12@@std@@@std@@@std@@@std@@_N@1@_NAEAU?$pair@$$CBV?$basic_string@DU?$char_traits@D@std@@V?$allocator@D@2@@std@@V12@@1@PEAU?$_Tree_node@U?$pair@$$CBV?$basic_string@DU?$char_traits@D@std@@V?$allocator@D@2@@std@@V12@@std@@PEAX@1@@Z 00000001800438e0 f i libzmq:stream_engine.obj
 0001:00042b60       ??$insert@V?$_Tree_const_iterator@V?$_Tree_val@U?$_Tree_simple_types@U?$pair@$$CBV?$basic_string@DU?$char_traits@D@std@@V?$allocator@D@2@@std@@V12@@std@@@std@@@std@@@std@@@?$_Tree@V?$_Tmap_traits@V?$basic_string@DU?$char_traits@D@std@@V?$allocator@D@2@@std@@V12@U?$less@V?$basic_string@DU?$char_traits@D@std@@V?$allocator@D@2@@std@@@2@V?$allocator@U?$pair@$$CBV?$basic_string@DU?$char_traits@D@std@@V?$allocator@D@2@@std@@V12@@std@@@2@$0A@@std@@@std@@QEAAXV?$_Tree_const_iterator@V?$_Tree_val@U?$_Tree_simple_types@U?$pair@$$CBV?$basic_string@DU?$char_traits@D@std@@V?$allocator@D@2@@std@@V12@@std@@@std@@@std@@@1@0@Z 0000000180043b60 f i libzmq:stream_engine.obj
 0001:00042c30       ??$make_pair@AEAY0N@$$CBDAEAV?$basic_string@DU?$char_traits@D@std@@V?$allocator@D@2@@std@@@std@@YA?AU?$pair@PEBDV?$basic_string@DU?$char_traits@D@std@@V?$allocator@D@2@@std@@@0@AEAY0N@$$CBDAEAV?$basic_string@DU?$char_traits@D@std@@V?$allocator@D@2@@0@@Z 0000000180043c30 f i libzmq:stream_engine.obj
 0001:00042c30       ??$make_pair@AEAY04$$CBDAEAV?$basic_string@DU?$char_traits@D@std@@V?$allocator@D@2@@std@@@std@@YA?AU?$pair@PEBDV?$basic_string@DU?$char_traits@D@std@@V?$allocator@D@2@@std@@@0@AEAY04$$CBDAEAV?$basic_string@DU?$char_traits@D@std@@V?$allocator@D@2@@0@@Z 0000000180043c30 f i libzmq:stream_engine.obj
 0001:00042c70       ??0?$basic_stringbuf@DU?$char_traits@D@std@@V?$allocator@D@2@@std@@QEAA@H@Z 0000000180043c70 f i libzmq:stream_engine.obj
 0001:00042cf0       ??0stream_engine_t@zmq@@QEAA@_KAEBUoptions_t@1@AEBV?$basic_string@DU?$char_traits@D@std@@V?$allocator@D@2@@std@@@Z 0000000180043cf0 f   libzmq:stream_engine.obj
 0001:00042f30       ??1?$basic_ostringstream@DU?$char_traits@D@std@@V?$allocator@D@2@@std@@UEAA@XZ 0000000180043f30 f i libzmq:stream_engine.obj
 0001:00042fb0       ??1?$map@V?$basic_string@DU?$char_traits@D@std@@V?$allocator@D@2@@std@@V12@U?$less@V?$basic_string@DU?$char_traits@D@std@@V?$allocator@D@2@@std@@@2@V?$allocator@U?$pair@$$CBV?$basic_string@DU?$char_traits@D@std@@V?$allocator@D@2@@std@@V12@@std@@@2@@std@@QEAA@XZ 0000000180043fb0 f i libzmq:stream_engine.obj
 0001:00042ff0       ??1i_engine@zmq@@UEAA@XZ   0000000180043ff0 f i libzmq:stream_engine.obj
 0001:00043000       ??1stream_engine_t@zmq@@UEAA@XZ 0000000180044000 f   libzmq:stream_engine.obj
 0001:000432c0       ??_D?$basic_ostringstream@DU?$char_traits@D@std@@V?$allocator@D@2@@std@@QEAAXXZ 00000001800442c0 f i libzmq:stream_engine.obj
 0001:000432f8       ??_E?$basic_ostringstream@DU?$char_traits@D@std@@V?$allocator@D@2@@std@@$4PPPPPPPM@A@EAAPEAXI@Z 00000001800442f8 f i libzmq:stream_engine.obj
 0001:00043304       ??_Estream_engine_t@zmq@@WBA@EAAPEAXI@Z 0000000180044304 f i libzmq:stream_engine.obj
 0001:00043310       ??_G?$basic_ostringstream@DU?$char_traits@D@std@@V?$allocator@D@2@@std@@UEAAPEAXI@Z 0000000180044310 f i libzmq:stream_engine.obj
 0001:00043310       ??_E?$basic_ostringstream@DU?$char_traits@D@std@@V?$allocator@D@2@@std@@UEAAPEAXI@Z 0000000180044310 f i libzmq:stream_engine.obj
 0001:00043370       ??_Ei_engine@zmq@@UEAAPEAXI@Z 0000000180044370 f i libzmq:stream_engine.obj
 0001:00043370       ??_Gi_engine@zmq@@UEAAPEAXI@Z 0000000180044370 f i libzmq:stream_engine.obj
 0001:000433a0       ??_Estream_engine_t@zmq@@UEAAPEAXI@Z 00000001800443a0 f i libzmq:stream_engine.obj
 0001:000433a0       ??_Gstream_engine_t@zmq@@UEAAPEAXI@Z 00000001800443a0 f i libzmq:stream_engine.obj
 0001:000433e0       ?_Destroy_if_not_nil@?$_Tree@V?$_Tmap_traits@V?$basic_string@DU?$char_traits@D@std@@V?$allocator@D@2@@std@@V12@U?$less@V?$basic_string@DU?$char_traits@D@std@@V?$allocator@D@2@@std@@@2@V?$allocator@U?$pair@$$CBV?$basic_string@DU?$char_traits@D@std@@V?$allocator@D@2@@std@@V12@@std@@@2@$0A@@std@@@std@@IEAAXPEAU?$_Tree_node@U?$pair@$$CBV?$basic_string@DU?$char_traits@D@std@@V?$allocator@D@2@@std@@V12@@std@@PEAX@2@@Z 00000001800443e0 f i libzmq:stream_engine.obj
 0001:00043420       ?decode_and_push@stream_engine_t@zmq@@AEAAHPEAVmsg_t@2@@Z 0000000180044420 f   libzmq:stream_engine.obj
 0001:00043570       ?error@stream_engine_t@zmq@@AEAAXW4error_reason_t@12@@Z 0000000180044570 f   libzmq:stream_engine.obj
 0001:00043690       ?handshake@stream_engine_t@zmq@@AEAA_NXZ 0000000180044690 f   libzmq:stream_engine.obj
 0001:000442d0       ?identity_msg@stream_engine_t@zmq@@AEAAHPEAVmsg_t@2@@Z 00000001800452d0 f   libzmq:stream_engine.obj
 0001:000443b0       ?in_event@stream_engine_t@zmq@@UEAAXXZ 00000001800453b0 f   libzmq:stream_engine.obj
 0001:00044650       ?init_properties@stream_engine_t@zmq@@AEAA_NAEAV?$map@V?$basic_string@DU?$char_traits@D@std@@V?$allocator@D@2@@std@@V12@U?$less@V?$basic_string@DU?$char_traits@D@std@@V?$allocator@D@2@@std@@@2@V?$allocator@U?$pair@$$CBV?$basic_string@DU?$char_traits@D@std@@V?$allocator@D@2@@std@@V12@@std@@@2@@std@@@Z 0000000180045650 f   libzmq:stream_engine.obj
 0001:00044870       ?mechanism_ready@stream_engine_t@zmq@@AEAAXXZ 0000000180045870 f   libzmq:stream_engine.obj
 0001:00044ae0       ?next_handshake_command@stream_engine_t@zmq@@AEAAHPEAVmsg_t@2@@Z 0000000180045ae0 f   libzmq:stream_engine.obj
 0001:00044bd0       ?out_event@stream_engine_t@zmq@@UEAAXXZ 0000000180045bd0 f   libzmq:stream_engine.obj
 0001:00044e50       ?plug@stream_engine_t@zmq@@UEAAXPEAVio_thread_t@2@PEAVsession_base_t@2@@Z 0000000180045e50 f   libzmq:stream_engine.obj
 0001:00045320       ?process_handshake_command@stream_engine_t@zmq@@AEAAHPEAVmsg_t@2@@Z 0000000180046320 f   libzmq:stream_engine.obj
 0001:00045410       ?process_heartbeat_message@stream_engine_t@zmq@@AEAAHPEAVmsg_t@2@@Z 0000000180046410 f   libzmq:stream_engine.obj
 0001:000454c0       ?process_identity_msg@stream_engine_t@zmq@@AEAAHPEAVmsg_t@2@@Z 00000001800464c0 f   libzmq:stream_engine.obj
 0001:00045740       ?produce_ping_message@stream_engine_t@zmq@@AEAAHPEAVmsg_t@2@@Z 0000000180046740 f   libzmq:stream_engine.obj
 0001:000458c0       ?produce_pong_message@stream_engine_t@zmq@@AEAAHPEAVmsg_t@2@@Z 00000001800468c0 f   libzmq:stream_engine.obj
 0001:00045a00       ?pull_and_encode@stream_engine_t@zmq@@AEAAHPEAVmsg_t@2@@Z 0000000180046a00 f   libzmq:stream_engine.obj
 0001:00045ac0       ?pull_msg_from_session@stream_engine_t@zmq@@AEAAHPEAVmsg_t@2@@Z 0000000180046ac0 f   libzmq:stream_engine.obj
 0001:00045ae0       ?push_msg_to_session@stream_engine_t@zmq@@AEAAHPEAVmsg_t@2@@Z 0000000180046ae0 f   libzmq:stream_engine.obj
 0001:00045b00       ?push_one_then_decode_and_push@stream_engine_t@zmq@@AEAAHPEAVmsg_t@2@@Z 0000000180046b00 f   libzmq:stream_engine.obj
 0001:00045b40       ?push_raw_msg_to_session@stream_engine_t@zmq@@AEAAHPEAVmsg_t@2@@Z 0000000180046b40 f   libzmq:stream_engine.obj
 0001:00045ba0       ?restart_input@stream_engine_t@zmq@@UEAAXXZ 0000000180046ba0 f   libzmq:stream_engine.obj
 0001:00045e80       ?restart_output@stream_engine_t@zmq@@UEAAXXZ 0000000180046e80 f   libzmq:stream_engine.obj
 0001:00045ed0       ?set_handshake_timer@stream_engine_t@zmq@@AEAAXXZ 0000000180046ed0 f   libzmq:stream_engine.obj
 0001:00045f60       ?str@?$basic_ostringstream@DU?$char_traits@D@std@@V?$allocator@D@2@@std@@QEBA?AV?$basic_string@DU?$char_traits@D@std@@V?$allocator@D@2@@2@XZ 0000000180046f60 f i libzmq:stream_engine.obj
 0001:00045f90       ?terminate@stream_engine_t@zmq@@UEAAXXZ 0000000180046f90 f   libzmq:stream_engine.obj
 0001:00045fc0       ?timer_event@stream_engine_t@zmq@@UEAAXH@Z 0000000180046fc0 f   libzmq:stream_engine.obj
 0001:00046070       ?unplug@stream_engine_t@zmq@@AEAAXXZ 0000000180047070 f   libzmq:stream_engine.obj
 0001:00046180       ?write_credential@stream_engine_t@zmq@@AEAAHPEAVmsg_t@2@@Z 0000000180047180 f   libzmq:stream_engine.obj
 0001:00046450       ?zap_msg_available@stream_engine_t@zmq@@UEAAXXZ 0000000180047450 f   libzmq:stream_engine.obj
 0001:00046510       ?set_tcp_receive_buffer@zmq@@YAX_KH@Z 0000000180047510 f   libzmq:tcp.obj
 0001:000465a0       ?set_tcp_send_buffer@zmq@@YAX_KH@Z 00000001800475a0 f   libzmq:tcp.obj
 0001:00046630       ?tcp_read@zmq@@YAH_KPEAX0@Z 0000000180047630 f   libzmq:tcp.obj
 0001:00046710       ?tcp_write@zmq@@YAH_KPEBX0@Z 0000000180047710 f   libzmq:tcp.obj
 0001:000467d0       ?tune_tcp_keepalives@zmq@@YAX_KHHHH@Z 00000001800477d0 f   libzmq:tcp.obj
 0001:000468e0       ?tune_tcp_maxrt@zmq@@YAX_KH@Z 00000001800478e0 f   libzmq:tcp.obj
 0001:00046990       ?tune_tcp_socket@zmq@@YAX_K@Z 0000000180047990 f   libzmq:tcp.obj
 0001:00046a20       ??0tcp_connecter_t@zmq@@QEAA@PEAVio_thread_t@1@PEAVsession_base_t@1@AEBUoptions_t@1@PEAUaddress_t@1@_N@Z 0000000180047a20 f   libzmq:tcp_connecter.obj
 0001:00046c10       ??1tcp_connecter_t@zmq@@UEAA@XZ 0000000180047c10 f   libzmq:tcp_connecter.obj
 0001:00046dd8       ??_Etcp_connecter_t@zmq@@WDCI@EAAPEAXI@Z 0000000180047dd8 f i libzmq:tcp_connecter.obj
 0001:00046df0       ??_Gtcp_connecter_t@zmq@@UEAAPEAXI@Z 0000000180047df0 f i libzmq:tcp_connecter.obj
 0001:00046df0       ??_Etcp_connecter_t@zmq@@UEAAPEAXI@Z 0000000180047df0 f i libzmq:tcp_connecter.obj
 0001:00046e30       ?add_connect_timer@tcp_connecter_t@zmq@@AEAAXXZ 0000000180047e30 f   libzmq:tcp_connecter.obj
 0001:00046e70       ?add_reconnect_timer@tcp_connecter_t@zmq@@AEAAXXZ 0000000180047e70 f   libzmq:tcp_connecter.obj
 0001:00046ec0       ?close@tcp_connecter_t@zmq@@AEAAXXZ 0000000180047ec0 f   libzmq:tcp_connecter.obj
 0001:00046fc0       ?connect@tcp_connecter_t@zmq@@AEAA_KXZ 0000000180047fc0 f   libzmq:tcp_connecter.obj
 0001:000470f0       ?get_new_reconnect_ivl@tcp_connecter_t@zmq@@AEAAHXZ 00000001800480f0 f   libzmq:tcp_connecter.obj
 0001:00047150       ?in_event@tcp_connecter_t@zmq@@EEAAXXZ 0000000180048150 f   libzmq:tcp_connecter.obj
 0001:00047160       ?open@tcp_connecter_t@zmq@@AEAAHXZ 0000000180048160 f   libzmq:tcp_connecter.obj
 0001:000475b0       ?out_event@tcp_connecter_t@zmq@@EEAAXXZ 00000001800485b0 f   libzmq:tcp_connecter.obj
 0001:00047730       ?process_plug@tcp_connecter_t@zmq@@EEAAXXZ 0000000180048730 f   libzmq:tcp_connecter.obj
 0001:00047750       ?process_term@tcp_connecter_t@zmq@@EEAAXH@Z 0000000180048750 f   libzmq:tcp_connecter.obj
 0001:000477f0       ?start_connecting@tcp_connecter_t@zmq@@AEAAXXZ 00000001800487f0 f   libzmq:tcp_connecter.obj
 0001:000478e0       ?timer_event@tcp_connecter_t@zmq@@EEAAXH@Z 00000001800488e0 f   libzmq:tcp_connecter.obj
 0001:000479b0       ??0socks_connecter_t@zmq@@QEAA@PEAVio_thread_t@1@PEAVsession_base_t@1@AEBUoptions_t@1@PEAUaddress_t@1@3_N@Z 00000001800489b0 f   libzmq:socks_connecter.obj
 0001:00047bf0       ??1socks_connecter_t@zmq@@UEAA@XZ 0000000180048bf0 f   libzmq:socks_connecter.obj
 0001:00047ce0       ??1socks_request_t@zmq@@QEAA@XZ 0000000180048ce0 f i libzmq:socks_connecter.obj
 0001:00047ce0       ??1socks_response_t@zmq@@QEAA@XZ 0000000180048ce0 f i libzmq:socks_connecter.obj
 0001:00047ce0       ??1?$pair@PEBDV?$basic_string@DU?$char_traits@D@std@@V?$allocator@D@2@@std@@@std@@QEAA@XZ 0000000180048ce0 f i libzmq:stream_engine.obj
 0001:00047cec       ??_Esocks_connecter_t@zmq@@WDCI@EAAPEAXI@Z 0000000180048cec f i libzmq:socks_connecter.obj
 0001:00047d00       ??_Gsocks_connecter_t@zmq@@UEAAPEAXI@Z 0000000180048d00 f i libzmq:socks_connecter.obj
 0001:00047d00       ??_Esocks_connecter_t@zmq@@UEAAPEAXI@Z 0000000180048d00 f i libzmq:socks_connecter.obj
 0001:00047d40       ?check_proxy_connection@socks_connecter_t@zmq@@AEAA_KXZ 0000000180048d40 f   libzmq:socks_connecter.obj
 0001:00047e90       ?close@socks_connecter_t@zmq@@AEAAXXZ 0000000180048e90 f   libzmq:socks_connecter.obj
 0001:00047f90       ?connect_to_proxy@socks_connecter_t@zmq@@AEAAHXZ 0000000180048f90 f   libzmq:socks_connecter.obj
 0001:000482c0       ?error@socks_connecter_t@zmq@@AEAAXXZ 00000001800492c0 f   libzmq:socks_connecter.obj
 0001:00048330       ?get_new_reconnect_ivl@socks_connecter_t@zmq@@AEAAHXZ 0000000180049330 f   libzmq:socks_connecter.obj
 0001:00048390       ?in_event@socks_connecter_t@zmq@@EEAAXXZ 0000000180049390 f   libzmq:socks_connecter.obj
 0001:00048710       ?initiate_connect@socks_connecter_t@zmq@@AEAAXXZ 0000000180049710 f   libzmq:socks_connecter.obj
 0001:000487f0       ?out_event@socks_connecter_t@zmq@@EEAAXXZ 00000001800497f0 f   libzmq:socks_connecter.obj
 0001:00048a60       ?parse_address@socks_connecter_t@zmq@@AEAAHAEBV?$basic_string@DU?$char_traits@D@std@@V?$allocator@D@2@@std@@AEAV34@AEAG@Z 0000000180049a60 f   libzmq:socks_connecter.obj
 0001:00048c50       ?process_plug@socks_connecter_t@zmq@@EEAAXXZ 0000000180049c50 f   libzmq:socks_connecter.obj
 0001:00048c70       ?process_server_response@socks_connecter_t@zmq@@AEAAHAEBUsocks_choice_t@2@@Z 0000000180049c70 f   libzmq:socks_connecter.obj
 0001:00048c70       ?process_server_response@socks_connecter_t@zmq@@AEAAHAEBUsocks_response_t@2@@Z 0000000180049c70 f   libzmq:socks_connecter.obj
 0001:00048c80       ?process_term@socks_connecter_t@zmq@@EEAAXH@Z 0000000180049c80 f   libzmq:socks_connecter.obj
 0001:00048cf0       ?rfind@?$basic_string@DU?$char_traits@D@std@@V?$allocator@D@2@@std@@QEBA_KD_K@Z 0000000180049cf0 f i libzmq:socks_connecter.obj
 0001:00048d80       ?start_timer@socks_connecter_t@zmq@@AEAAXXZ 0000000180049d80 f   libzmq:socks_connecter.obj
 0001:00048de0       ?timer_event@socks_connecter_t@zmq@@EEAAXH@Z 0000000180049de0 f   libzmq:socks_connecter.obj
 0001:00048eb0       ??0udp_engine_t@zmq@@QEAA@AEBUoptions_t@1@@Z 0000000180049eb0 f   libzmq:udp_engine.obj
 0001:00048f30       ??1udp_engine_t@zmq@@UEAA@XZ 0000000180049f30 f   libzmq:udp_engine.obj
 0001:000490a4       ??_Eudp_engine_t@zmq@@WBA@EAAPEAXI@Z 000000018004a0a4 f i libzmq:udp_engine.obj
 0001:000490b0       ??_Gudp_engine_t@zmq@@UEAAPEAXI@Z 000000018004a0b0 f i libzmq:udp_engine.obj
 0001:000490b0       ??_Eudp_engine_t@zmq@@UEAAPEAXI@Z 000000018004a0b0 f i libzmq:udp_engine.obj
 0001:000490f0       ?in_event@udp_engine_t@zmq@@UEAAXXZ 000000018004a0f0 f   libzmq:udp_engine.obj
 0001:00049580       ?init@udp_engine_t@zmq@@QEAAHPEAUaddress_t@2@_N1@Z 000000018004a580 f   libzmq:udp_engine.obj
 0001:000496a0       ?out_event@udp_engine_t@zmq@@UEAAXXZ 000000018004a6a0 f   libzmq:udp_engine.obj
 0001:00049a40       ?plug@udp_engine_t@zmq@@UEAAXPEAVio_thread_t@2@PEAVsession_base_t@2@@Z 000000018004aa40 f   libzmq:udp_engine.obj
 0001:00049dc0       ?resolve_raw_address@udp_engine_t@zmq@@AEAAHPEAD_K@Z 000000018004adc0 f   libzmq:udp_engine.obj
 0001:00049fe0       ?restart_input@udp_engine_t@zmq@@UEAAXXZ 000000018004afe0 f   libzmq:udp_engine.obj
 0001:0004a020       ?restart_output@udp_engine_t@zmq@@UEAAXXZ 000000018004b020 f   libzmq:udp_engine.obj
 0001:0004a0d0       ?sockaddr_to_msg@udp_engine_t@zmq@@AEAAXPEAVmsg_t@2@PEAUsockaddr_in@@@Z 000000018004b0d0 f   libzmq:udp_engine.obj
 0001:0004a240       ?terminate@udp_engine_t@zmq@@UEAAXXZ 000000018004b240 f   libzmq:udp_engine.obj
 0001:0004a2e0       ??0mtrie_t@zmq@@QEAA@XZ    000000018004b2e0 f   libzmq:mtrie.obj
 0001:0004a2f0       ??1mtrie_t@zmq@@QEAA@XZ    000000018004b2f0 f   libzmq:mtrie.obj
 0001:0004a450       ?add@mtrie_t@zmq@@QEAA_NPEAE_KPEAVpipe_t@2@@Z 000000018004b450 f   libzmq:mtrie.obj
 0001:0004a460       ?add_helper@mtrie_t@zmq@@AEAA_NPEAE_KPEAVpipe_t@2@@Z 000000018004b460 f   libzmq:mtrie.obj
 0001:0004a960       ?is_redundant@mtrie_t@zmq@@AEBA_NXZ 000000018004b960 f   libzmq:mtrie.obj
 0001:0004a980       ?match@mtrie_t@zmq@@QEAAXPEAE_KP6AXPEAVpipe_t@2@PEAX@Z3@Z 000000018004b980 f   libzmq:mtrie.obj
 0001:0004aab0       ?rm@mtrie_t@zmq@@QEAAXPEAVpipe_t@2@P6AXPEAE_KPEAX@Z3_N@Z 000000018004bab0 f   libzmq:mtrie.obj
 0001:0004ab00       ?rm@mtrie_t@zmq@@QEAA_NPEAE_KPEAVpipe_t@2@@Z 000000018004bb00 f   libzmq:mtrie.obj
 0001:0004ab10       ?rm_helper@mtrie_t@zmq@@AEAAXPEAVpipe_t@2@PEAPEAE_K2P6AXPEAE2PEAX@Z4_N@Z 000000018004bb10 f   libzmq:mtrie.obj
 0001:0004b340       ?rm_helper@mtrie_t@zmq@@AEAA_NPEAE_KPEAVpipe_t@2@@Z 000000018004c340 f   libzmq:mtrie.obj
 0001:0004b900       ??0dist_t@zmq@@QEAA@XZ     000000018004c900 f   libzmq:dist.obj
 0001:0004b920       ??1dist_t@zmq@@QEAA@XZ     000000018004c920 f   libzmq:dist.obj
 0001:0004b9c0       ?activated@dist_t@zmq@@QEAAXPEAVpipe_t@2@@Z 000000018004c9c0 f   libzmq:dist.obj
 0001:0004bac0       ?attach@dist_t@zmq@@QEAAXPEAVpipe_t@2@@Z 000000018004cac0 f   libzmq:dist.obj
 0001:0004bbf0       ?check_hwm@dist_t@zmq@@QEAA_NXZ 000000018004cbf0 f   libzmq:dist.obj
 0001:0004bc50       ?distribute@dist_t@zmq@@AEAAXPEAVmsg_t@2@@Z 000000018004cc50 f   libzmq:dist.obj
 0001:0004beb0       ?match@dist_t@zmq@@QEAAXPEAVpipe_t@2@@Z 000000018004ceb0 f   libzmq:dist.obj
 0001:0004bf40       ?pipe_terminated@dist_t@zmq@@QEAAXPEAVpipe_t@2@@Z 000000018004cf40 f   libzmq:dist.obj
 0001:0004c100       ?reverse_match@dist_t@zmq@@QEAAXXZ 000000018004d100 f   libzmq:dist.obj
 0001:0004c1a0       ?send_to_all@dist_t@zmq@@QEAAHPEAVmsg_t@2@@Z 000000018004d1a0 f   libzmq:dist.obj
 0001:0004c1b0       ?send_to_matching@dist_t@zmq@@QEAAHPEAVmsg_t@2@@Z 000000018004d1b0 f   libzmq:dist.obj
 0001:0004c200       ?unmatch@dist_t@zmq@@QEAAXXZ 000000018004d200 f   libzmq:dist.obj
 0001:0004c210       ?write@dist_t@zmq@@AEAA_NPEAVpipe_t@2@PEAVmsg_t@2@@Z 000000018004d210 f   libzmq:dist.obj
 0001:0004c3b0       ??0fq_t@zmq@@QEAA@XZ       000000018004d3b0 f   libzmq:fq.obj
 0001:0004c3e0       ??1fq_t@zmq@@QEAA@XZ       000000018004d3e0 f   libzmq:fq.obj
 0001:0004c490       ?activated@fq_t@zmq@@QEAAXPEAVpipe_t@2@@Z 000000018004d490 f   libzmq:fq.obj
 0001:0004c500       ?attach@fq_t@zmq@@QEAAXPEAVpipe_t@2@@Z 000000018004d500 f   libzmq:fq.obj
 0001:0004c5a0       ?get_credential@fq_t@zmq@@QEBA?AV?$basic_string@EU?$char_traits@E@std@@V?$allocator@E@2@@std@@XZ 000000018004d5a0 f   libzmq:fq.obj
 0001:0004c750       ?has_in@fq_t@zmq@@QEAA_NXZ 000000018004d750 f   libzmq:fq.obj
 0001:0004c840       ?pipe_terminated@fq_t@zmq@@QEAAXPEAVpipe_t@2@@Z 000000018004d840 f   libzmq:fq.obj
 0001:0004c9c0       ?recv@fq_t@zmq@@QEAAHPEAVmsg_t@2@@Z 000000018004d9c0 f   libzmq:fq.obj
 0001:0004c9d0       ?recvpipe@fq_t@zmq@@QEAAHPEAVmsg_t@2@PEAPEAVpipe_t@2@@Z 000000018004d9d0 f   libzmq:fq.obj
 0001:0004cc20       ??0trie_t@zmq@@QEAA@XZ     000000018004dc20 f   libzmq:trie.obj
 0001:0004cc30       ??1trie_t@zmq@@QEAA@XZ     000000018004dc30 f   libzmq:trie.obj
 0001:0004cd60       ?add@trie_t@zmq@@QEAA_NPEAE_K@Z 000000018004dd60 f   libzmq:trie.obj
 0001:0004d250       ?apply@trie_t@zmq@@QEAAXP6AXPEAE_KPEAX@Z2@Z 000000018004e250 f   libzmq:trie.obj
 0001:0004d290       ?apply_helper@trie_t@zmq@@AEAAXPEAPEAE_K1P6AXPEAE1PEAX@Z3@Z 000000018004e290 f   libzmq:trie.obj
 0001:0004d3e0       ?check@trie_t@zmq@@QEAA_NPEAE_K@Z 000000018004e3e0 f   libzmq:trie.obj
 0001:0004d440       ?is_redundant@trie_t@zmq@@AEBA_NXZ 000000018004e440 f   libzmq:trie.obj
 0001:0004d460       ?rm@trie_t@zmq@@QEAA_NPEAE_K@Z 000000018004e460 f   libzmq:trie.obj
 0001:0004da60       ??0lb_t@zmq@@QEAA@XZ       000000018004ea60 f   libzmq:lb.obj
 0001:0004da80       ??1lb_t@zmq@@QEAA@XZ       000000018004ea80 f   libzmq:lb.obj
 0001:0004db20       ?activated@lb_t@zmq@@QEAAXPEAVpipe_t@2@@Z 000000018004eb20 f   libzmq:lb.obj
 0001:0004db90       ?attach@lb_t@zmq@@QEAAXPEAVpipe_t@2@@Z 000000018004eb90 f   libzmq:lb.obj
 0001:0004dbe0       ?has_out@lb_t@zmq@@QEAA_NXZ 000000018004ebe0 f   libzmq:lb.obj
 0001:0004dcd0       ?pipe_terminated@lb_t@zmq@@QEAAXPEAVpipe_t@2@@Z 000000018004ecd0 f   libzmq:lb.obj
 0001:0004ddc0       ?send@lb_t@zmq@@QEAAHPEAVmsg_t@2@@Z 000000018004edc0 f   libzmq:lb.obj
 0001:0004ddd0       ?sendpipe@lb_t@zmq@@QEAAHPEAVmsg_t@2@PEAPEAVpipe_t@2@@Z 000000018004edd0 f   libzmq:lb.obj
 0001:0004e070       ?generate_random@zmq@@YAIXZ 000000018004f070 f   libzmq:random.obj
 0001:0004e090       ??0?$encoder_base_t@Vv1_encoder_t@zmq@@@zmq@@QEAA@_K@Z 000000018004f090 f i libzmq:v1_encoder.obj
 0001:0004e150       ??0v1_encoder_t@zmq@@QEAA@_K@Z 000000018004f150 f   libzmq:v1_encoder.obj
 0001:0004e1b0       ??1i_encoder@zmq@@UEAA@XZ  000000018004f1b0 f i libzmq:v1_encoder.obj
 0001:0004e1c0       ??1v1_encoder_t@zmq@@UEAA@XZ 000000018004f1c0 f   libzmq:v1_encoder.obj
 0001:0004e1f0       ??_G?$encoder_base_t@Vv1_encoder_t@zmq@@@zmq@@UEAAPEAXI@Z 000000018004f1f0 f i libzmq:v1_encoder.obj
 0001:0004e1f0       ??_E?$encoder_base_t@Vv1_encoder_t@zmq@@@zmq@@UEAAPEAXI@Z 000000018004f1f0 f i libzmq:v1_encoder.obj
 0001:0004e240       ??_Ei_encoder@zmq@@UEAAPEAXI@Z 000000018004f240 f i libzmq:v1_encoder.obj
 0001:0004e240       ??_Gi_encoder@zmq@@UEAAPEAXI@Z 000000018004f240 f i libzmq:v1_encoder.obj
 0001:0004e270       ??_Ev1_encoder_t@zmq@@UEAAPEAXI@Z 000000018004f270 f i libzmq:v1_encoder.obj
 0001:0004e270       ??_Gv1_encoder_t@zmq@@UEAAPEAXI@Z 000000018004f270 f i libzmq:v1_encoder.obj
 0001:0004e2b0       ?encode@?$encoder_base_t@Vv2_encoder_t@zmq@@@zmq@@UEAA_KPEAPEAE_K@Z 000000018004f2b0 f i libzmq:v2_encoder.obj
 0001:0004e2b0       ?encode@?$encoder_base_t@Vraw_encoder_t@zmq@@@zmq@@UEAA_KPEAPEAE_K@Z 000000018004f2b0 f i libzmq:raw_encoder.obj
 0001:0004e2b0       ?encode@?$encoder_base_t@Vv1_encoder_t@zmq@@@zmq@@UEAA_KPEAPEAE_K@Z 000000018004f2b0 f i libzmq:v1_encoder.obj
 0001:0004e480       ?load_msg@?$encoder_base_t@Vraw_encoder_t@zmq@@@zmq@@UEAAXPEAVmsg_t@2@@Z 000000018004f480 f i libzmq:raw_encoder.obj
 0001:0004e480       ?load_msg@?$encoder_base_t@Vv2_encoder_t@zmq@@@zmq@@UEAAXPEAVmsg_t@2@@Z 000000018004f480 f i libzmq:v2_encoder.obj
 0001:0004e480       ?load_msg@?$encoder_base_t@Vv1_encoder_t@zmq@@@zmq@@UEAAXPEAVmsg_t@2@@Z 000000018004f480 f i libzmq:v1_encoder.obj
 0001:0004e500       ?message_ready@v1_encoder_t@zmq@@AEAAXXZ 000000018004f500 f   libzmq:v1_encoder.obj
 0001:0004e5e0       ?size_ready@v1_encoder_t@zmq@@AEAAXXZ 000000018004f5e0 f   libzmq:v1_encoder.obj
 0001:0004e650       ??0v1_decoder_t@zmq@@QEAA@_K_J@Z 000000018004f650 f   libzmq:v1_decoder.obj
 0001:0004e7e0       ??1c_single_allocator@zmq@@QEAA@XZ 000000018004f7e0 f i libzmq:v1_decoder.obj
 0001:0004e7f0       ??1i_decoder@zmq@@UEAA@XZ  000000018004f7f0 f i libzmq:v1_decoder.obj
 0001:0004e7f0       ??1?$decoder_base_t@Vv1_decoder_t@zmq@@Vc_single_allocator@2@@zmq@@UEAA@XZ 000000018004f7f0 f i libzmq:v1_decoder.obj
 0001:0004e800       ??1v1_decoder_t@zmq@@UEAA@XZ 000000018004f800 f   libzmq:v1_decoder.obj
 0001:0004e8b0       ??_G?$decoder_base_t@Vv1_decoder_t@zmq@@Vc_single_allocator@2@@zmq@@UEAAPEAXI@Z 000000018004f8b0 f i libzmq:v1_decoder.obj
 0001:0004e8b0       ??_E?$decoder_base_t@Vv1_decoder_t@zmq@@Vc_single_allocator@2@@zmq@@UEAAPEAXI@Z 000000018004f8b0 f i libzmq:v1_decoder.obj
 0001:0004e8e0       ??_Ei_decoder@zmq@@UEAAPEAXI@Z 000000018004f8e0 f i libzmq:v1_decoder.obj
 0001:0004e8e0       ??_Gi_decoder@zmq@@UEAAPEAXI@Z 000000018004f8e0 f i libzmq:v1_decoder.obj
 0001:0004e910       ??_Ev1_decoder_t@zmq@@UEAAPEAXI@Z 000000018004f910 f i libzmq:v1_decoder.obj
 0001:0004e910       ??_Gv1_decoder_t@zmq@@UEAAPEAXI@Z 000000018004f910 f i libzmq:v1_decoder.obj
 0001:0004e950       ?decode@?$decoder_base_t@Vv2_decoder_t@zmq@@Vshared_message_memory_allocator@2@@zmq@@UEAAHPEBE_KAEA_K@Z 000000018004f950 f i libzmq:v2_decoder.obj
 0001:0004e950       ?decode@?$decoder_base_t@Vv1_decoder_t@zmq@@Vc_single_allocator@2@@zmq@@UEAAHPEBE_KAEA_K@Z 000000018004f950 f i libzmq:v1_decoder.obj
 0001:0004eaa0       ?eight_byte_size_ready@v1_decoder_t@zmq@@AEAAHPEBE@Z 000000018004faa0 f   libzmq:v1_decoder.obj
 0001:0004eca0       ?flags_ready@v1_decoder_t@zmq@@AEAAHPEBE@Z 000000018004fca0 f   libzmq:v1_decoder.obj
 0001:0004ed20       ?get_buffer@?$decoder_base_t@Vv1_decoder_t@zmq@@Vc_single_allocator@2@@zmq@@UEAAXPEAPEAEPEA_K@Z 000000018004fd20 f i libzmq:v1_decoder.obj
 0001:0004ed60       ?message_ready@v1_decoder_t@zmq@@AEAAHPEBE@Z 000000018004fd60 f   libzmq:v1_decoder.obj
 0001:0004edb0       ?msg@v1_decoder_t@zmq@@UEAAPEAVmsg_t@2@XZ 000000018004fdb0 f i libzmq:v1_decoder.obj
 0001:0004edc0       ?one_byte_size_ready@v1_decoder_t@zmq@@AEAAHPEBE@Z 000000018004fdc0 f   libzmq:v1_decoder.obj
 0001:0004efd0       ?resize_buffer@?$decoder_base_t@Vv1_decoder_t@zmq@@Vc_single_allocator@2@@zmq@@UEAAX_K@Z 000000018004ffd0 f i libzmq:v1_decoder.obj
 0001:0004efe0       ??0?$encoder_base_t@Vv2_encoder_t@zmq@@@zmq@@QEAA@_K@Z 000000018004ffe0 f i libzmq:v2_encoder.obj
 0001:0004f0a0       ??0v2_encoder_t@zmq@@QEAA@_K@Z 00000001800500a0 f   libzmq:v2_encoder.obj
 0001:0004f100       ??1v2_encoder_t@zmq@@UEAA@XZ 0000000180050100 f   libzmq:v2_encoder.obj
 0001:0004f130       ??_G?$encoder_base_t@Vv2_encoder_t@zmq@@@zmq@@UEAAPEAXI@Z 0000000180050130 f i libzmq:v2_encoder.obj
 0001:0004f130       ??_E?$encoder_base_t@Vv2_encoder_t@zmq@@@zmq@@UEAAPEAXI@Z 0000000180050130 f i libzmq:v2_encoder.obj
 0001:0004f180       ??_Gv2_encoder_t@zmq@@UEAAPEAXI@Z 0000000180050180 f i libzmq:v2_encoder.obj
 0001:0004f180       ??_Ev2_encoder_t@zmq@@UEAAPEAXI@Z 0000000180050180 f i libzmq:v2_encoder.obj
 0001:0004f1c0       ?message_ready@v2_encoder_t@zmq@@AEAAXXZ 00000001800501c0 f   libzmq:v2_encoder.obj
 0001:0004f2c0       ?size_ready@v2_encoder_t@zmq@@AEAAXXZ 00000001800502c0 f   libzmq:v2_encoder.obj
 0001:0004f330       ??0v2_decoder_t@zmq@@QEAA@_K_J@Z 0000000180050330 f   libzmq:v2_decoder.obj
 0001:0004f480       ??1?$decoder_base_t@Vv2_decoder_t@zmq@@Vshared_message_memory_allocator@2@@zmq@@UEAA@XZ 0000000180050480 f i libzmq:v2_decoder.obj
 0001:0004f4c0       ??1v2_decoder_t@zmq@@UEAA@XZ 00000001800504c0 f   libzmq:v2_decoder.obj
 0001:0004f580       ??_G?$decoder_base_t@Vv2_decoder_t@zmq@@Vshared_message_memory_allocator@2@@zmq@@UEAAPEAXI@Z 0000000180050580 f i libzmq:v2_decoder.obj
 0001:0004f580       ??_E?$decoder_base_t@Vv2_decoder_t@zmq@@Vshared_message_memory_allocator@2@@zmq@@UEAAPEAXI@Z 0000000180050580 f i libzmq:v2_decoder.obj
 0001:0004f5e0       ??_Ev2_decoder_t@zmq@@UEAAPEAXI@Z 00000001800505e0 f i libzmq:v2_decoder.obj
 0001:0004f5e0       ??_Gv2_decoder_t@zmq@@UEAAPEAXI@Z 00000001800505e0 f i libzmq:v2_decoder.obj
 0001:0004f620       ?eight_byte_size_ready@v2_decoder_t@zmq@@AEAAHPEBE@Z 0000000180050620 f   libzmq:v2_decoder.obj
 0001:0004f680       ?flags_ready@v2_decoder_t@zmq@@AEAAHPEBE@Z 0000000180050680 f   libzmq:v2_decoder.obj
 0001:0004f700       ?get_buffer@?$decoder_base_t@Vv2_decoder_t@zmq@@Vshared_message_memory_allocator@2@@zmq@@UEAAXPEAPEAEPEA_K@Z 0000000180050700 f i libzmq:v2_decoder.obj
 0001:0004f780       ?message_ready@v2_decoder_t@zmq@@AEAAHPEBE@Z 0000000180050780 f   libzmq:v2_decoder.obj
 0001:0004f7d0       ?msg@v2_decoder_t@zmq@@UEAAPEAVmsg_t@2@XZ 00000001800507d0 f i libzmq:v2_decoder.obj
 0001:0004f7e0       ?one_byte_size_ready@v2_decoder_t@zmq@@AEAAHPEBE@Z 00000001800507e0 f   libzmq:v2_decoder.obj
 0001:0004f7f0       ?resize_buffer@?$decoder_base_t@Vv2_decoder_t@zmq@@Vshared_message_memory_allocator@2@@zmq@@UEAAX_K@Z 00000001800507f0 f i libzmq:v2_decoder.obj
 0001:0004f800       ?size_ready@v2_decoder_t@zmq@@AEAAH_KPEBE@Z 0000000180050800 f   libzmq:v2_decoder.obj
 0001:0004fa20       ??$_Buynode@U?$pair@$$CBV?$basic_string@DU?$char_traits@D@std@@V?$allocator@D@2@@std@@V12@@std@@@?$_Tree_comp_alloc@V?$_Tmap_traits@V?$basic_string@DU?$char_traits@D@std@@V?$allocator@D@2@@std@@V12@U?$less@V?$basic_string@DU?$char_traits@D@std@@V?$allocator@D@2@@std@@@2@V?$allocator@U?$pair@$$CBV?$basic_string@DU?$char_traits@D@std@@V?$allocator@D@2@@std@@V12@@std@@@2@$0A@@std@@@std@@QEAAPEAU?$_Tree_node@U?$pair@$$CBV?$basic_string@DU?$char_traits@D@std@@V?$allocator@D@2@@std@@V12@@std@@PEAX@1@$$QEAU?$pair@$$CBV?$basic_string@DU?$char_traits@D@std@@V?$allocator@D@2@@std@@V12@@1@@Z 0000000180050a20 f i libzmq:mechanism.obj
 0001:0004fa80       ??$_Insert_at@U?$pair@$$CBV?$basic_string@DU?$char_traits@D@std@@V?$allocator@D@2@@std@@V12@@std@@U_Nil@2@@?$_Tree@V?$_Tmap_traits@V?$basic_string@DU?$char_traits@D@std@@V?$allocator@D@2@@std@@V12@U?$less@V?$basic_string@DU?$char_traits@D@std@@V?$allocator@D@2@@std@@@2@V?$allocator@U?$pair@$$CBV?$basic_string@DU?$char_traits@D@std@@V?$allocator@D@2@@std@@V12@@std@@@2@$0A@@std@@@std@@IEAA?AV?$_Tree_iterator@V?$_Tree_val@U?$_Tree_simple_types@U?$pair@$$CBV?$basic_string@DU?$char_traits@D@std@@V?$allocator@D@2@@std@@V12@@std@@@std@@@std@@@1@_NPEAU?$_Tree_node@U?$pair@$$CBV?$basic_string@DU?$char_traits@D@std@@V?$allocator@D@2@@std@@V12@@std@@PEAX@1@$$QEAU?$pair@$$CBV?$basic_string@DU?$char_traits@D@std@@V?$allocator@D@2@@std@@V12@@1@U_Nil@1@@Z 0000000180050a80 f i libzmq:mechanism.obj
 0001:0004fd50       ??$_Insert_nohint@U?$pair@$$CBV?$basic_string@DU?$char_traits@D@std@@V?$allocator@D@2@@std@@V12@@std@@U_Nil@2@@?$_Tree@V?$_Tmap_traits@V?$basic_string@DU?$char_traits@D@std@@V?$allocator@D@2@@std@@V12@U?$less@V?$basic_string@DU?$char_traits@D@std@@V?$allocator@D@2@@std@@@2@V?$allocator@U?$pair@$$CBV?$basic_string@DU?$char_traits@D@std@@V?$allocator@D@2@@std@@V12@@std@@@2@$0A@@std@@@std@@IEAA?AU?$pair@V?$_Tree_iterator@V?$_Tree_val@U?$_Tree_simple_types@U?$pair@$$CBV?$basic_string@DU?$char_traits@D@std@@V?$allocator@D@2@@std@@V12@@std@@@std@@@std@@@std@@_N@1@_N$$QEAU?$pair@$$CBV?$basic_string@DU?$char_traits@D@std@@V?$allocator@D@2@@std@@V12@@1@U_Nil@1@@Z 0000000180050d50 f i libzmq:mechanism.obj
 0001:0004ffb0       ??$construct@U?$pair@$$CBV?$basic_string@DU?$char_traits@D@std@@V?$allocator@D@2@@std@@V12@@std@@U12@@?$_Wrap_alloc@V?$allocator@U?$_Tree_node@U?$pair@$$CBV?$basic_string@DU?$char_traits@D@std@@V?$allocator@D@2@@std@@V12@@std@@PEAX@std@@@std@@@std@@QEAAXPEAU?$pair@$$CBV?$basic_string@DU?$char_traits@D@std@@V?$allocator@D@2@@std@@V12@@1@$$QEAU21@@Z 0000000180050fb0 f i libzmq:mechanism.obj
 0001:00050050       ??0mechanism_t@zmq@@QEAA@AEBUoptions_t@1@@Z 0000000180051050 f   libzmq:mechanism.obj
 0001:00050110       ??1?$pair@$$CBV?$basic_string@DU?$char_traits@D@std@@V?$allocator@D@2@@std@@V12@@std@@QEAA@XZ 0000000180051110 f i libzmq:mechanism.obj
 0001:00050130       ??1mechanism_t@zmq@@UEAA@XZ 0000000180051130 f   libzmq:mechanism.obj
 0001:00050220       ??_Gmechanism_t@zmq@@UEAAPEAXI@Z 0000000180051220 f i libzmq:mechanism.obj
 0001:00050220       ??_Emechanism_t@zmq@@UEAAPEAXI@Z 0000000180051220 f i libzmq:mechanism.obj
 0001:00050260       ?add_property@mechanism_t@zmq@@IEBA_KPEAEPEBDPEBX_K@Z 0000000180051260 f   libzmq:mechanism.obj
 0001:000503a0       ?check_socket_type@mechanism_t@zmq@@AEBA_NAEBV?$basic_string@DU?$char_traits@D@std@@V?$allocator@D@2@@std@@@Z 00000001800513a0 f   libzmq:mechanism.obj
 0001:00050a00       ?get_user_id@mechanism_t@zmq@@QEBA?AV?$basic_string@EU?$char_traits@E@std@@V?$allocator@E@2@@std@@XZ 0000000180051a00 f   libzmq:mechanism.obj
 0001:00050a40       ?parse_metadata@mechanism_t@zmq@@IEAAHPEBE_K_N@Z 0000000180051a40 f   libzmq:mechanism.obj
 0001:00050fd0       ?peer_identity@mechanism_t@zmq@@QEAAXPEAVmsg_t@2@@Z 0000000180051fd0 f   libzmq:mechanism.obj
 0001:000510a0       ?set_peer_identity@mechanism_t@zmq@@QEAAXPEBX_K@Z 00000001800520a0 f   libzmq:mechanism.obj
 0001:00051160       ?set_user_id@mechanism_t@zmq@@QEAAXPEBX_K@Z 0000000180052160 f   libzmq:mechanism.obj
 0001:00051320       ?socket_type_string@mechanism_t@zmq@@IEBAPEBDH@Z 0000000180052320 f   libzmq:mechanism.obj
 0001:00051390       ??0null_mechanism_t@zmq@@QEAA@PEAVsession_base_t@1@AEBV?$basic_string@DU?$char_traits@D@std@@V?$allocator@D@2@@std@@AEBUoptions_t@1@@Z 0000000180052390 f   libzmq:null_mechanism.obj
 0001:00051460       ??1null_mechanism_t@zmq@@UEAA@XZ 0000000180052460 f   libzmq:null_mechanism.obj
 0001:00051490       ??_Enull_mechanism_t@zmq@@UEAAPEAXI@Z 0000000180052490 f i libzmq:null_mechanism.obj
 0001:00051490       ??_Gnull_mechanism_t@zmq@@UEAAPEAXI@Z 0000000180052490 f i libzmq:null_mechanism.obj
 0001:000514d0       ?next_handshake_command@null_mechanism_t@zmq@@UEAAHPEAVmsg_t@2@@Z 00000001800524d0 f   libzmq:null_mechanism.obj
 0001:000517c0       ?process_error_command@null_mechanism_t@zmq@@AEAAHPEBE_K@Z 00000001800527c0 f   libzmq:null_mechanism.obj
 0001:00051800       ?process_handshake_command@null_mechanism_t@zmq@@UEAAHPEAVmsg_t@2@@Z 0000000180052800 f   libzmq:null_mechanism.obj
 0001:000519d0       ?process_ready_command@null_mechanism_t@zmq@@AEAAHPEBE_K@Z 00000001800529d0 f   libzmq:null_mechanism.obj
 0001:000519f0       ?receive_and_process_zap_reply@null_mechanism_t@zmq@@AEAAHXZ 00000001800529f0 f   libzmq:null_mechanism.obj
 0001:00051cf0       ?send_zap_request@null_mechanism_t@zmq@@AEAAXXZ 0000000180052cf0 f   libzmq:null_mechanism.obj
 0001:000523e0       ?status@null_mechanism_t@zmq@@UEBA?AW4status_t@mechanism_t@2@XZ 00000001800533e0 f   libzmq:null_mechanism.obj
 0001:00052440       ?zap_msg_available@null_mechanism_t@zmq@@UEAAHXZ 0000000180053440 f   libzmq:null_mechanism.obj
 0001:00052480       ??0plain_client_t@zmq@@QEAA@AEBUoptions_t@1@@Z 0000000180053480 f   libzmq:plain_client.obj
 0001:000524b0       ??1plain_client_t@zmq@@UEAA@XZ 00000001800534b0 f   libzmq:plain_client.obj
 0001:000524c0       ??_Eplain_client_t@zmq@@UEAAPEAXI@Z 00000001800534c0 f i libzmq:plain_client.obj
 0001:000524c0       ??_Gplain_client_t@zmq@@UEAAPEAXI@Z 00000001800534c0 f i libzmq:plain_client.obj
 0001:00052500       ?next_handshake_command@plain_client_t@zmq@@UEAAHPEAVmsg_t@2@@Z 0000000180053500 f   libzmq:plain_client.obj
 0001:00052560       ?process_error@curve_client_t@zmq@@AEAAHPEBE_K@Z 0000000180053560 f   libzmq:curve_client.obj
 0001:00052560       ?process_error@plain_client_t@zmq@@AEAAHPEBE_K@Z 0000000180053560 f   libzmq:plain_client.obj
 0001:000525b0       ?process_handshake_command@plain_client_t@zmq@@UEAAHPEAVmsg_t@2@@Z 00000001800535b0 f   libzmq:plain_client.obj
 0001:00052770       ?process_ready@plain_client_t@zmq@@AEAAHPEBE_K@Z 0000000180053770 f   libzmq:plain_client.obj
 0001:000527c0       ?process_welcome@plain_client_t@zmq@@AEAAHPEBE_K@Z 00000001800537c0 f   libzmq:plain_client.obj
 0001:00052800       ?produce_hello@plain_client_t@zmq@@AEBAHPEAVmsg_t@2@@Z 0000000180053800 f   libzmq:plain_client.obj
 0001:00052b00       ?produce_initiate@plain_client_t@zmq@@AEBAHPEAVmsg_t@2@@Z 0000000180053b00 f   libzmq:plain_client.obj
 0001:00052ca0       ??0plain_server_t@zmq@@QEAA@PEAVsession_base_t@1@AEBV?$basic_string@DU?$char_traits@D@std@@V?$allocator@D@2@@std@@AEBUoptions_t@1@@Z 0000000180053ca0 f   libzmq:plain_server.obj
 0001:00052d50       ??1plain_server_t@zmq@@UEAA@XZ 0000000180053d50 f   libzmq:plain_server.obj
 0001:00052d90       ??_Eplain_server_t@zmq@@UEAAPEAXI@Z 0000000180053d90 f i libzmq:plain_server.obj
 0001:00052d90       ??_Gplain_server_t@zmq@@UEAAPEAXI@Z 0000000180053d90 f i libzmq:plain_server.obj
 0001:00052dd0       ?next_handshake_command@plain_server_t@zmq@@UEAAHPEAVmsg_t@2@@Z 0000000180053dd0 f   libzmq:plain_server.obj
 0001:00052e60       ?process_handshake_command@plain_server_t@zmq@@UEAAHPEAVmsg_t@2@@Z 0000000180053e60 f   libzmq:plain_server.obj
 0001:00052f80       ?process_hello@plain_server_t@zmq@@AEAAHPEAVmsg_t@2@@Z 0000000180053f80 f   libzmq:plain_server.obj
 0001:000531f0       ?process_initiate@plain_server_t@zmq@@AEAAHPEAVmsg_t@2@@Z 00000001800541f0 f   libzmq:plain_server.obj
 0001:000532a0       ?produce_error@plain_server_t@zmq@@AEBAHPEAVmsg_t@2@@Z 00000001800542a0 f   libzmq:plain_server.obj
 0001:000533c0       ?produce_ready@plain_server_t@zmq@@AEBAHPEAVmsg_t@2@@Z 00000001800543c0 f   libzmq:plain_server.obj
 0001:00053550       ?produce_welcome@plain_server_t@zmq@@AEBAHPEAVmsg_t@2@@Z 0000000180054550 f   libzmq:plain_server.obj
 0001:000535f0       ?receive_and_process_zap_reply@plain_server_t@zmq@@AEAAHXZ 00000001800545f0 f   libzmq:plain_server.obj
 0001:000539b0       ?send_zap_request@plain_server_t@zmq@@AEAAXAEBV?$basic_string@DU?$char_traits@D@std@@V?$allocator@D@2@@std@@0@Z 00000001800549b0 f   libzmq:plain_server.obj
 0001:000542a0       ?status@plain_server_t@zmq@@UEBA?AW4status_t@mechanism_t@2@XZ 00000001800552a0 f   libzmq:plain_server.obj
 0001:000542c0       ?zap_msg_available@plain_server_t@zmq@@UEAAHXZ 00000001800552c0 f   libzmq:plain_server.obj
 0001:00054380       ??0curve_client_t@zmq@@QEAA@AEBUoptions_t@1@@Z 0000000180055380 f   libzmq:curve_client.obj
 0001:000544a0       ??1curve_client_t@zmq@@UEAA@XZ 00000001800554a0 f   libzmq:curve_client.obj
 0001:000544b0       ??_Gcurve_client_t@zmq@@UEAAPEAXI@Z 00000001800554b0 f i libzmq:curve_client.obj
 0001:000544b0       ??_Ecurve_client_t@zmq@@UEAAPEAXI@Z 00000001800554b0 f i libzmq:curve_client.obj
 0001:000544f0       ?decode@curve_client_t@zmq@@UEAAHPEAVmsg_t@2@@Z 00000001800554f0 f   libzmq:curve_client.obj
 0001:00054880       ?encode@curve_client_t@zmq@@UEAAHPEAVmsg_t@2@@Z 0000000180055880 f   libzmq:curve_client.obj
 0001:00054c00       ?next_handshake_command@curve_client_t@zmq@@UEAAHPEAVmsg_t@2@@Z 0000000180055c00 f   libzmq:curve_client.obj
 0001:00054c60       ?process_handshake_command@curve_client_t@zmq@@UEAAHPEAVmsg_t@2@@Z 0000000180055c60 f   libzmq:curve_client.obj
 0001:00054e10       ?process_ready@curve_client_t@zmq@@AEAAHPEBE_K@Z 0000000180055e10 f   libzmq:curve_client.obj
 0001:00054f70       ?process_welcome@curve_client_t@zmq@@AEAAHPEBE_K@Z 0000000180055f70 f   libzmq:curve_client.obj
 0001:00055170       ?produce_hello@curve_client_t@zmq@@AEAAHPEAVmsg_t@2@@Z 0000000180056170 f   libzmq:curve_client.obj
 0001:000553a0       ?produce_initiate@curve_client_t@zmq@@AEAAHPEAVmsg_t@2@@Z 00000001800563a0 f   libzmq:curve_client.obj
 0001:00055710       ?status@plain_client_t@zmq@@UEBA?AW4status_t@mechanism_t@2@XZ 0000000180056710 f   libzmq:plain_client.obj
 0001:00055710       ?status@curve_client_t@zmq@@UEBA?AW4status_t@mechanism_t@2@XZ 0000000180056710 f   libzmq:curve_client.obj
 0001:00055730       ??0curve_server_t@zmq@@QEAA@PEAVsession_base_t@1@AEBV?$basic_string@DU?$char_traits@D@std@@V?$allocator@D@2@@std@@AEBUoptions_t@1@@Z 0000000180056730 f   libzmq:curve_server.obj
 0001:00055890       ??1curve_server_t@zmq@@UEAA@XZ 0000000180056890 f   libzmq:curve_server.obj
 0001:000558d0       ??_Ecurve_server_t@zmq@@UEAAPEAXI@Z 00000001800568d0 f i libzmq:curve_server.obj
 0001:000558d0       ??_Gcurve_server_t@zmq@@UEAAPEAXI@Z 00000001800568d0 f i libzmq:curve_server.obj
 0001:00055910       ?decode@curve_server_t@zmq@@UEAAHPEAVmsg_t@2@@Z 0000000180056910 f   libzmq:curve_server.obj
 0001:00055cd0       ?encode@curve_server_t@zmq@@UEAAHPEAVmsg_t@2@@Z 0000000180056cd0 f   libzmq:curve_server.obj
 0001:00056050       ?next_handshake_command@curve_server_t@zmq@@UEAAHPEAVmsg_t@2@@Z 0000000180057050 f   libzmq:curve_server.obj
 0001:000560e0       ?process_handshake_command@curve_server_t@zmq@@UEAAHPEAVmsg_t@2@@Z 00000001800570e0 f   libzmq:curve_server.obj
 0001:00056200       ?process_hello@curve_server_t@zmq@@AEAAHPEAVmsg_t@2@@Z 0000000180057200 f   libzmq:curve_server.obj
 0001:000563f0       ?process_initiate@curve_server_t@zmq@@AEAAHPEAVmsg_t@2@@Z 00000001800573f0 f   libzmq:curve_server.obj
 0001:00056890       ?produce_error@curve_server_t@zmq@@AEBAHPEAVmsg_t@2@@Z 0000000180057890 f   libzmq:curve_server.obj
 0001:000569b0       ?produce_ready@curve_server_t@zmq@@AEAAHPEAVmsg_t@2@@Z 00000001800579b0 f   libzmq:curve_server.obj
 0001:00056c20       ?produce_welcome@curve_server_t@zmq@@AEAAHPEAVmsg_t@2@@Z 0000000180057c20 f   libzmq:curve_server.obj
 0001:00056f10       ?receive_and_process_zap_reply@curve_server_t@zmq@@AEAAHXZ 0000000180057f10 f   libzmq:curve_server.obj
 0001:000572b0       ?send_zap_request@curve_server_t@zmq@@AEAAXPEBE@Z 00000001800582b0 f   libzmq:curve_server.obj
 0001:00057aa0       ?status@curve_server_t@zmq@@UEBA?AW4status_t@mechanism_t@2@XZ 0000000180058aa0 f   libzmq:curve_server.obj
 0001:00057ac0       ?zap_msg_available@curve_server_t@zmq@@UEAAHXZ 0000000180058ac0 f   libzmq:curve_server.obj
 0001:00057b80       ??0raw_decoder_t@zmq@@QEAA@_K@Z 0000000180058b80 f   libzmq:raw_decoder.obj
 0001:00057c30       ??1raw_decoder_t@zmq@@UEAA@XZ 0000000180058c30 f   libzmq:raw_decoder.obj
 0001:00057ce0       ??_Graw_decoder_t@zmq@@UEAAPEAXI@Z 0000000180058ce0 f i libzmq:raw_decoder.obj
 0001:00057ce0       ??_Eraw_decoder_t@zmq@@UEAAPEAXI@Z 0000000180058ce0 f i libzmq:raw_decoder.obj
 0001:00057d20       ?decode@raw_decoder_t@zmq@@UEAAHPEBE_KAEA_K@Z 0000000180058d20 f   libzmq:raw_decoder.obj
 0001:00057e00       ?get_buffer@raw_decoder_t@zmq@@UEAAXPEAPEAEPEA_K@Z 0000000180058e00 f   libzmq:raw_decoder.obj
 0001:00057e40       ??0?$encoder_base_t@Vraw_encoder_t@zmq@@@zmq@@QEAA@_K@Z 0000000180058e40 f i libzmq:raw_encoder.obj
 0001:00057f00       ??0raw_encoder_t@zmq@@QEAA@_K@Z 0000000180058f00 f   libzmq:raw_encoder.obj
 0001:00057f60       ??1raw_encoder_t@zmq@@UEAA@XZ 0000000180058f60 f   libzmq:raw_encoder.obj
 0001:00057f90       ??_E?$encoder_base_t@Vraw_encoder_t@zmq@@@zmq@@UEAAPEAXI@Z 0000000180058f90 f i libzmq:raw_encoder.obj
 0001:00057f90       ??_G?$encoder_base_t@Vraw_encoder_t@zmq@@@zmq@@UEAAPEAXI@Z 0000000180058f90 f i libzmq:raw_encoder.obj
 0001:00057fe0       ??_Graw_encoder_t@zmq@@UEAAPEAXI@Z 0000000180058fe0 f i libzmq:raw_encoder.obj
 0001:00057fe0       ??_Eraw_encoder_t@zmq@@UEAAPEAXI@Z 0000000180058fe0 f i libzmq:raw_encoder.obj
 0001:00058020       ?raw_message_ready@raw_encoder_t@zmq@@AEAAXXZ 0000000180059020 f   libzmq:raw_encoder.obj
 0001:00058090       ??0socks_choice_decoder_t@zmq@@QEAA@XZ 0000000180059090 f   libzmq:socks.obj
 0001:000580a0       ??0socks_choice_t@zmq@@QEAA@E@Z 00000001800590a0 f   libzmq:socks.obj
 0001:000580b0       ??0socks_request_encoder_t@zmq@@QEAA@XZ 00000001800590b0 f   libzmq:socks.obj
 0001:000580b0       ??0socks_greeting_encoder_t@zmq@@QEAA@XZ 00000001800590b0 f   libzmq:socks.obj
 0001:000580c0       ??0socks_greeting_t@zmq@@QEAA@E@Z 00000001800590c0 f   libzmq:socks.obj
 0001:000580e0       ??0socks_request_t@zmq@@QEAA@EV?$basic_string@DU?$char_traits@D@std@@V?$allocator@D@2@@std@@G@Z 00000001800590e0 f   libzmq:socks.obj
 0001:000581e0       ??0socks_response_decoder_t@zmq@@QEAA@XZ 00000001800591e0 f   libzmq:socks.obj
 0001:000581f0       ??0socks_response_t@zmq@@QEAA@EV?$basic_string@DU?$char_traits@D@std@@V?$allocator@D@2@@std@@G@Z 00000001800591f0 f   libzmq:socks.obj
 0001:00058290       ?decode@socks_choice_decoder_t@zmq@@QEAA?AUsocks_choice_t@2@XZ 0000000180059290 f   libzmq:socks.obj
 0001:00058310       ?decode@socks_response_decoder_t@zmq@@QEAA?AUsocks_response_t@2@XZ 0000000180059310 f   libzmq:socks.obj
 0001:000583d0       ?encode@socks_greeting_encoder_t@zmq@@QEAAXAEBUsocks_greeting_t@2@@Z 00000001800593d0 f   libzmq:socks.obj
 0001:00058440       ?encode@socks_request_encoder_t@zmq@@QEAAXAEBUsocks_request_t@2@@Z 0000000180059440 f   libzmq:socks.obj
 0001:000585e0       ?has_pending_data@socks_request_encoder_t@zmq@@QEBA_NXZ 00000001800595e0 f   libzmq:socks.obj
 0001:000585e0       ?has_pending_data@socks_greeting_encoder_t@zmq@@QEBA_NXZ 00000001800595e0 f   libzmq:socks.obj
 0001:000585f0       ?input@socks_choice_decoder_t@zmq@@QEAAH_K@Z 00000001800595f0 f   libzmq:socks.obj
 0001:00058690       ?input@socks_response_decoder_t@zmq@@QEAAH_K@Z 0000000180059690 f   libzmq:socks.obj
 0001:000587d0       ?message_ready@socks_choice_decoder_t@zmq@@QEBA_NXZ 00000001800597d0 f   libzmq:socks.obj
 0001:000587e0       ?message_ready@socks_response_decoder_t@zmq@@QEBA_NXZ 00000001800597e0 f   libzmq:socks.obj
 0001:000588b0       ?output@socks_request_encoder_t@zmq@@QEAAH_K@Z 00000001800598b0 f   libzmq:socks.obj
 0001:000588b0       ?output@socks_greeting_encoder_t@zmq@@QEAAH_K@Z 00000001800598b0 f   libzmq:socks.obj
 0001:000588f0       ?reset@socks_choice_decoder_t@zmq@@QEAAXXZ 00000001800598f0 f   libzmq:socks.obj
 0001:00058900       ?reset@socks_request_encoder_t@zmq@@QEAAXXZ 0000000180059900 f   libzmq:socks.obj
 0001:00058900       ?reset@socks_greeting_encoder_t@zmq@@QEAAXXZ 0000000180059900 f   libzmq:socks.obj
 0001:00058910       ?reset@socks_response_decoder_t@zmq@@QEAAXXZ 0000000180059910 f   libzmq:socks.obj
 0001:00058920       ??0shared_message_memory_allocator@zmq@@QEAA@_K0@Z 0000000180059920 f   libzmq:decoder_allocators.obj
 0001:00058940       ??0shared_message_memory_allocator@zmq@@QEAA@_K@Z 0000000180059940 f   libzmq:decoder_allocators.obj
 0001:000589c0       ??1shared_message_memory_allocator@zmq@@QEAA@XZ 00000001800599c0 f   libzmq:decoder_allocators.obj
 0001:000589d0       ?allocate@shared_message_memory_allocator@zmq@@QEAAPEAEXZ 00000001800599d0 f   libzmq:decoder_allocators.obj
 0001:00058aa0       ?call_dec_ref@shared_message_memory_allocator@zmq@@SAXPEAX0@Z 0000000180059aa0 f   libzmq:decoder_allocators.obj
 0001:00058b20       ?data@shared_message_memory_allocator@zmq@@QEAAPEAEXZ 0000000180059b20 f   libzmq:decoder_allocators.obj
 0001:00058b30       ?deallocate@shared_message_memory_allocator@zmq@@QEAAXXZ 0000000180059b30 f   libzmq:decoder_allocators.obj
 0001:00058b70       ?inc_ref@shared_message_memory_allocator@zmq@@QEAAXXZ 0000000180059b70 f   libzmq:decoder_allocators.obj
 0001:00058b80       ?release@shared_message_memory_allocator@zmq@@QEAAPEAEXZ 0000000180059b80 f   libzmq:decoder_allocators.obj
 0001:00058b92       __WSAFDIsSet               0000000180059b92 f   ws2_32:WS2_32.dll
 0001:00058b98       GetAdaptersAddresses       0000000180059b98 f   iphlpapi:IPHLPAPI.DLL
 0001:00058b9e       if_nametoindex             0000000180059b9e f   iphlpapi:IPHLPAPI.DLL
 0001:00058ba4       if_indextoname             0000000180059ba4 f   iphlpapi:IPHLPAPI.DLL
 0001:00058bac       ??0bad_alloc@std@@QEAA@AEBV01@@Z 0000000180059bac f i libcpmt:xthrow.obj
 0001:00058bec       ??0bad_alloc@std@@QEAA@XZ  0000000180059bec f i libcpmt:xthrow.obj
 0001:00058c0c       ??0length_error@std@@QEAA@AEBV01@@Z 0000000180059c0c f i libcpmt:xthrow.obj
 0001:00058c4c       ??0length_error@std@@QEAA@PEBD@Z 0000000180059c4c f i libcpmt:xthrow.obj
 0001:00058c98       ??0logic_error@std@@QEAA@AEBV01@@Z 0000000180059c98 f i libcpmt:xthrow.obj
 0001:00058cd8       ??0out_of_range@std@@QEAA@AEBV01@@Z 0000000180059cd8 f i libcpmt:xthrow.obj
 0001:00058d18       ??0out_of_range@std@@QEAA@PEBD@Z 0000000180059d18 f i libcpmt:xthrow.obj
 0001:00058d64       ?_Xlength_error@std@@YAXPEBD@Z 0000000180059d64 f   libcpmt:xthrow.obj
 0001:00058d88       ?_Xout_of_range@std@@YAXPEBD@Z 0000000180059d88 f   libcpmt:xthrow.obj
 0001:00058dac       ??0_Init_locks@std@@QEAA@XZ 0000000180059dac f   libcpmt:xlock.obj
 0001:00058df8       ??0_Lockit@std@@QEAA@H@Z   0000000180059df8 f   libcpmt:xlock.obj
 0001:00058e34       ??1_Init_locks@std@@QEAA@XZ 0000000180059e34 f   libcpmt:xlock.obj
 0001:00058e78       ??1_Lockit@std@@QEAA@XZ    0000000180059e78 f   libcpmt:xlock.obj
 0001:00058eac       ?uncaught_exception@std@@YA_NXZ 0000000180059eac f   libcpmt:uncaught.obj
 0001:00058eb4       _Getctype                  0000000180059eb4 f   libcpmt:_tolower.obj
 0001:00058f74       _Tolower                   0000000180059f74 f   libcpmt:_tolower.obj
 0001:0005909c       _Getcvt                    000000018005a09c f   libcpmt:xwctomb.obj
 0001:0005912c       _Toupper                   000000018005a12c f   libcpmt:_toupper.obj
 0001:00059264       ??4?$_Yarn@D@std@@QEAAAEAV01@PEBD@Z 000000018005a264 f i libcpmt:locale0.obj
 0001:000592dc       ??_G_Fac_node@std@@QEAAPEAXI@Z 000000018005a2dc f i libcpmt:locale0.obj
 0001:00059368       ??_G_Locimp@locale@std@@MEAAPEAXI@Z 000000018005a368 f i libcpmt:locale0.obj
 0001:00059368       ??_E_Locimp@locale@std@@MEAAPEAXI@Z 000000018005a368 f i libcpmt:locale0.obj
 0001:000593d4       ?_Facet_Register@std@@YAXPEAV_Facet_base@1@@Z 000000018005a3d4 f   libcpmt:locale0.obj
 0001:0005940c       ?_Getgloballocale@locale@std@@CAPEAV_Locimp@12@XZ 000000018005a40c f   libcpmt:locale0.obj
 0001:00059414       ?_Init@locale@std@@CAPEAV_Locimp@12@_N@Z 000000018005a414 f   libcpmt:locale0.obj
 0001:000594d0       ?_Locimp_dtor@_Locimp@locale@std@@CAXPEAV123@@Z 000000018005a4d0 f   libcpmt:locale0.obj
 0001:00059578       ?_Locinfo_ctor@_Locinfo@std@@SAXPEAV12@PEBD@Z 000000018005a578 f   libcpmt:locale0.obj
 0001:000595e4       ?_Locinfo_dtor@_Locinfo@std@@SAXPEAV12@@Z 000000018005a5e4 f   libcpmt:locale0.obj
 0001:00059608       ?_New_Locimp@_Locimp@locale@std@@CAPEAV123@_N@Z 000000018005a608 f   libcpmt:locale0.obj
 0001:00059678       ?_Setgloballocale@locale@std@@CAXPEAX@Z 000000018005a678 f   libcpmt:locale0.obj
 0001:000596ac       _Deletegloballocale        000000018005a6ac f   libcpmt:locale0.obj
 0001:00059734       ?_Syserror_map@std@@YAPEBDH@Z 000000018005a734 f   libcpmt:syserror.obj
 0001:0005975c       ??_Glocale@std@@QEAAPEAXI@Z 000000018005a75c f i libcpmt:ios.obj
 0001:000597ec       ?_Addstd@ios_base@std@@SAXPEAV12@@Z 000000018005a7ec f   libcpmt:ios.obj
 0001:0005985c       ?_Ios_base_dtor@ios_base@std@@CAXPEAV12@@Z 000000018005a85c f   libcpmt:ios.obj
 0001:000598a0       ?_Tidy@ios_base@std@@AEAAXXZ 000000018005a8a0 f i libcpmt:ios.obj
 0001:00059930       _Mtxinit                   000000018005a930 f   libcpmt:xmtx.obj
 0001:00059940       _Mtxlock                   000000018005a940 f   libcpmt:xmtx.obj
 0001:00059948       _Mtxunlock                 000000018005a948 f   libcpmt:xmtx.obj
 0001:00059950       __crtLCMapStringA          000000018005a950 f   libcpmt:StlLCMapStringA.obj
 0001:00059c3c       ?_Atexit@@YAXP6AXXZ@Z      000000018005ac3c f   libcpmt:iosptrs.obj
 0001:0005a14c       __crtInitializeCriticalSectionEx 000000018005b14c f   libcpmt:winapisupp.obj
 0001:0005a1ac       GetTableIndexFromLocaleName 000000018005b1ac f   libcpmt:winapinls.obj
 0001:0005a238       __crtDownlevelLocaleNameToLCID 000000018005b238 f   libcpmt:winapinls.obj
 0001:0005a26c       __crtLCMapStringEx         000000018005b26c f   libcpmt:winapinls.obj
 0001:0005a328       __wcsnicmp_ascii           000000018005b328 f   libcpmt:winapinls.obj
 0001:0005a390       __security_check_cookie    000000018005b390 f   LIBCMT:_amdsecgs_.obj
 0001:0005a3b4       __raise_securityfailure    000000018005b3b4 f   LIBCMT:gs_report.obj
 0001:0005a3e8       __report_gsfailure         000000018005b3e8 f   LIBCMT:gs_report.obj
 0001:0005a4bc       __report_rangecheckfailure 000000018005b4bc f   LIBCMT:gs_report.obj
 0001:0005a4d0       __report_securityfailure   000000018005b4d0 f   LIBCMT:gs_report.obj
 0001:0005a650       ??2@YAPEAX_K@Z             000000018005b650 f   LIBCMT:new_scalar.obj
 0001:0005a68c       __scrt_acquire_startup_lock 000000018005b68c f   LIBCMT:utility.obj
 0001:0005a6c8       __scrt_dllmain_after_initialize_c 000000018005b6c8 f   LIBCMT:utility.obj
 0001:0005a6fc       __scrt_dllmain_before_initialize_c 000000018005b6fc f   LIBCMT:utility.obj
 0001:0005a714       __scrt_dllmain_crt_thread_attach 000000018005b714 f   LIBCMT:utility.obj
 0001:0005a73c       __scrt_dllmain_crt_thread_detach 000000018005b73c f   LIBCMT:utility.obj
 0001:0005a754       __scrt_dllmain_exception_filter 000000018005b754 f   LIBCMT:utility.obj
 0001:0005a7b8       __scrt_dllmain_uninitialize_c 000000018005b7b8 f   LIBCMT:utility.obj
 0001:0005a7e8       __scrt_dllmain_uninitialize_critical 000000018005b7e8 f   LIBCMT:utility.obj
 0001:0005a7fc       __scrt_initialize_crt      000000018005b7fc f   LIBCMT:utility.obj
 0001:0005a848       __scrt_initialize_onexit_tables 000000018005b848 f   LIBCMT:utility.obj
 0001:0005a914       __scrt_is_nonwritable_in_current_image 000000018005b914 f   LIBCMT:utility.obj
 0001:0005a9b0       __scrt_release_startup_lock 000000018005b9b0 f   LIBCMT:utility.obj
 0001:0005a9d4       __scrt_uninitialize_crt    000000018005b9d4 f   LIBCMT:utility.obj
 0001:0005aa00       _onexit                    000000018005ba00 f   LIBCMT:utility.obj
 0001:0005aa50       atexit                     000000018005ba50 f   LIBCMT:utility.obj
 0001:0005aa70       ??3@YAXPEAX@Z              000000018005ba70 f   LIBCMT:delete_scalar.obj
 0001:0005adc4       _DllMainCRTStartup         000000018005bdc4 f   LIBCMT:dll_dllmain.obj
 0001:0005ae04       ??_U@YAPEAX_K@Z            000000018005be04 f   LIBCMT:new_array.obj
 0001:0005ae0c       ??2@YAPEAX_KAEBUnothrow_t@std@@@Z 000000018005be0c f   LIBCMT:new_scalar_nothrow.obj
 0001:0005ae2c       ??3@YAXPEAX_K@Z            000000018005be2c f   LIBCMT:delete_scalar_size.obj
 0001:0005ae2c       ??_V@YAXPEAX@Z             000000018005be2c f   LIBCMT:delete_array.obj
 0001:0005ae2c       ??3@YAXPEAXAEBUnothrow_t@std@@@Z 000000018005be2c f   LIBCMT:delete_scalar_nothrow.obj
 0001:0005ae34       __GSHandlerCheck           000000018005be34 f   LIBCMT:_gshandler_.obj
 0001:0005ae54       __GSHandlerCheckCommon     000000018005be54 f   LIBCMT:_gshandler_.obj
 0001:0005aeb0       __GSHandlerCheck_EH        000000018005beb0 f   LIBCMT:gshandlereh.obj
 0001:0005af30       ??_Etype_info@@UEAAPEAXI@Z 000000018005bf30 f i LIBCMT:std_type_info_static.obj
 0001:0005af30       ??_Gtype_info@@UEAAPEAXI@Z 000000018005bf30 f i LIBCMT:std_type_info_static.obj
 0001:0005af70       __chkstk                   000000018005bf70 f   LIBCMT:_chkstk_.obj
 0001:0005af70       _alloca_probe              000000018005bf70 f   LIBCMT:_chkstk_.obj
 0001:0005b10c       _Init_thread_footer        000000018005c10c f   LIBCMT:thread_safe_statics.obj
 0001:0005b16c       _Init_thread_header        000000018005c16c f   LIBCMT:thread_safe_statics.obj
 0001:0005b1d4       _Init_thread_notify        000000018005c1d4 f   LIBCMT:thread_safe_statics.obj
 0001:0005b230       _Init_thread_wait          000000018005c230 f   LIBCMT:thread_safe_statics.obj
 0001:0005b2c8       _guard_check_icall         000000018005c2c8 f i LIBCMT:checkcfg.obj
 0001:0005b2d0       ??0bad_array_new_length@std@@QEAA@AEBV01@@Z 000000018005c2d0 f i LIBCMT:throw_bad_alloc.obj
 0001:0005b310       ??0bad_array_new_length@std@@QEAA@XZ 000000018005c310 f i LIBCMT:throw_bad_alloc.obj
 0001:0005b330       ??1bad_exception@std@@UEAA@XZ 000000018005c330 f i libvcruntime:frame.obj
 0001:0005b330       ??1bad_alloc@std@@UEAA@XZ  000000018005c330 f i libcpmt:xthrow.obj
 0001:0005b330       ??1out_of_range@std@@UEAA@XZ 000000018005c330 f i libcpmt:xthrow.obj
 0001:0005b330       ??1runtime_error@std@@UEAA@XZ 000000018005c330 f i libzmq:tcp_address.obj
 0001:0005b330       ??1length_error@std@@UEAA@XZ 000000018005c330 f i libcpmt:xthrow.obj
 0001:0005b330       ??1failure@ios_base@std@@UEAA@XZ 000000018005c330 f i libzmq:tcp_address.obj
 0001:0005b330       ??1bad_array_new_length@std@@UEAA@XZ 000000018005c330 f i LIBCMT:throw_bad_alloc.obj
 0001:0005b330       ??1bad_cast@std@@UEAA@XZ   000000018005c330 f i libzmq:tcp_address.obj
 0001:0005b344       ?__scrt_throw_std_bad_alloc@@YAXXZ 000000018005c344 f   LIBCMT:throw_bad_alloc.obj
 0001:0005b344       ?_Xbad_alloc@std@@YAXXZ    000000018005c344 f   libcpmt:xthrow.obj
 0001:0005b364       ?__scrt_throw_std_bad_array_new_length@@YAXXZ 000000018005c364 f   LIBCMT:throw_bad_alloc.obj
 0001:0005b384       __isa_available_init       000000018005c384 f   LIBCMT:_cpu_disp_.obj
 0001:0005b54c       DllMain                    000000018005c54c f   LIBCMT:dll_dllmain_stub.obj
 0001:0005b54c       _get_startup_argv_mode     000000018005c54c f   LIBCMT:argv_mode.obj
 0001:0005b554       __scrt_is_ucrt_dll_in_use  000000018005c554 f   LIBCMT:ucrt_detection.obj
 0001:0005b560       __crt_debugger_hook        000000018005c560 f   LIBCMT:utility_desktop.obj
 0001:0005b568       __scrt_fastfail            000000018005c568 f   LIBCMT:utility_desktop.obj
 0001:0005b6b0       __security_init_cookie     000000018005c6b0 f   LIBCMT:gs_support.obj
 0001:0005b75c       ?__scrt_initialize_type_info@@YAXXZ 000000018005c75c f   LIBCMT:tncleanup.obj
 0001:0005b76c       ?__scrt_uninitialize_type_info@@YAXXZ 000000018005c76c f   LIBCMT:tncleanup.obj
 0001:0005b778       __local_stdio_scanf_options 000000018005c778 f i LIBCMT:default_local_stdio_options.obj
 0001:0005b780       __scrt_initialize_default_local_stdio_options 000000018005c780 f   LIBCMT:default_local_stdio_options.obj
 0001:0005b79c       __scrt_get_dyn_tls_init_callback 000000018005c79c f   LIBCMT:dyn_tls_init.obj
 0001:0005b7a4       _RTC_Initialize            000000018005c7a4 f   LIBCMT:_initsect_.obj
 0001:0005b7f0       _RTC_Terminate             000000018005c7f0 f   LIBCMT:_initsect_.obj
 0001:0005b850       memcpy                     000000018005c850 f   libvcruntime:memcpy.obj
 0001:0005b850       memmove                    000000018005c850 f   libvcruntime:memcpy.obj
 0001:0005bc88       _CxxThrowException         000000018005cc88 f   libvcruntime:throw.obj
 0001:0005bd60       ?_ExecutionInCatch@@YAHPEAU_xDISPATCHER_CONTEXT@@PEBU_s_FuncInfo@@@Z 000000018005cd60 f   libvcruntime:trnsctrl.obj
 0001:0005bdd4       ?_GetEstablisherFrame@@YAPEA_KPEA_KPEAU_xDISPATCHER_CONTEXT@@PEBU_s_FuncInfo@@0@Z 000000018005cdd4 f   libvcruntime:trnsctrl.obj
 0001:0005bea0       ?_GetRangeOfTrysToCheck@@YAPEBU_s_TryBlockMapEntry@@PEA_KPEBU_s_FuncInfo@@HHPEAI2PEAU_xDISPATCHER_CONTEXT@@@Z 000000018005cea0 f   libvcruntime:trnsctrl.obj
 0001:0005bfcc       ?__FrameUnwindToEmptyState@@YAXPEA_KPEAU_xDISPATCHER_CONTEXT@@PEBU_s_FuncInfo@@@Z 000000018005cfcc f   libvcruntime:trnsctrl.obj
 0001:0005c060       ?__SehTransFilter@@YAHPEAU_EXCEPTION_POINTERS@@PEAUEHExceptionRecord@@PEA_KPEAU_CONTEXT@@PEAU_xDISPATCHER_CONTEXT@@PEBU_s_FuncInfo@@PEAH@Z 000000018005d060 f   libvcruntime:trnsctrl.obj
 0001:0005c0f8       _CallSETranslator          000000018005d0f8 f   libvcruntime:trnsctrl.obj
 0001:0005c150       _CreateFrameInfo           000000018005d150 f   libvcruntime:trnsctrl.obj
 0001:0005c18c       _FindAndUnlinkFrame        000000018005d18c f   libvcruntime:trnsctrl.obj
 0001:0005c1e4       _GetImageBase              000000018005d1e4 f   libvcruntime:trnsctrl.obj
 0001:0005c1f8       _GetThrowImageBase         000000018005d1f8 f   libvcruntime:trnsctrl.obj
 0001:0005c20c       _IsExceptionObjectToBeDestroyed 000000018005d20c f   libvcruntime:trnsctrl.obj
 0001:0005c23c       _SetImageBase              000000018005d23c f   libvcruntime:trnsctrl.obj
 0001:0005c254       _SetThrowImageBase         000000018005d254 f   libvcruntime:trnsctrl.obj
 0001:0005c26c       _UnwindNestedFrames        000000018005d26c f   libvcruntime:trnsctrl.obj
 0001:0005c390       __CxxFrameHandler3         000000018005d390 f   libvcruntime:trnsctrl.obj
 0001:0005c410       __DestructExceptionObject  000000018005d410 f   libvcruntime:frame.obj
 0001:0005c498       ??0bad_exception@std@@QEAA@AEBV01@@Z 000000018005d498 f i libvcruntime:frame.obj
 0001:0005c4d8       ??0bad_exception@std@@QEAA@XZ 000000018005d4d8 f i libvcruntime:frame.obj
 0001:0005ce54       ?_CallMemberFunction0@@YAXPEAXP6AX0@Z@Z 000000018005de54 f i libvcruntime:frame.obj
 0001:0005ce58       ?_CallMemberFunction1@@YAXPEAXP6AX0@Z0@Z 000000018005de58 f i libvcruntime:frame.obj
 0001:0005ce64       ?_CallMemberFunction2@@YAXPEAXP6AX0@Z0H@Z 000000018005de64 f i libvcruntime:frame.obj
 0001:0005ce74       __AdjustPointer            000000018005de74 f   libvcruntime:frame.obj
 0001:0005ce98       __BuildCatchObject         000000018005de98 f   libvcruntime:frame.obj
 0001:0005cf5c       __BuildCatchObjectHelper   000000018005df5c f   libvcruntime:frame.obj
 0001:0005d13c       __CxxCallCatchBlock        000000018005e13c f   libvcruntime:frame.obj
 0001:0005d328       __FrameUnwindFilter        000000018005e328 f   libvcruntime:frame.obj
 0001:0005d374       __FrameUnwindToState       000000018005e374 f   libvcruntime:frame.obj
 0001:0005d508       __InternalCxxFrameHandler  000000018005e508 f   libvcruntime:frame.obj
 0001:0005d760       __TypeMatch                000000018005e760 f   libvcruntime:frame.obj
 0001:0005d8a0       __std_terminate            000000018005e8a0 f   libvcruntime:frame.obj
 0001:0005d8ac       __uncaught_exception       000000018005e8ac f   libvcruntime:frame.obj
 0001:0005d8e0       memcmp                     000000018005e8e0 f   libvcruntime:memcmp.obj
 0001:0005d9c0       memset                     000000018005e9c0 f   libvcruntime:memset.obj
 0001:0005db60       _purecall                  000000018005eb60 f   libvcruntime:purevirt.obj
 0001:0005db9c       memchr                     000000018005eb9c f   libvcruntime:memchr.obj
 0001:0005dbb8       strrchr                    000000018005ebb8 f   libvcruntime:strrchr.obj
 0001:0005dcf8       __std_exception_copy       000000018005ecf8 f   libvcruntime:std_exception.obj
 0001:0005dd88       __std_exception_destroy    000000018005ed88 f   libvcruntime:std_exception.obj
 0001:0005ddb0       __vcrt_initialize          000000018005edb0 f   libvcruntime:initialization.obj
 0001:0005dde4       __vcrt_thread_attach       000000018005ede4 f   libvcruntime:initialization.obj
 0001:0005ddf8       __vcrt_thread_detach       000000018005edf8 f   libvcruntime:initialization.obj
 0001:0005de0c       __vcrt_uninitialize        000000018005ee0c f   libvcruntime:initialization.obj
 0001:0005de2c       __vcrt_uninitialize_critical 000000018005ee2c f   libvcruntime:initialization.obj
 0001:0005de3c       __C_specific_handler       000000018005ee3c f   libvcruntime:_chandler_.obj
 0001:0005e200       __vcrt_FlsAlloc            000000018005f200 f   libvcruntime:winapi_downlevel.obj
 0001:0005e254       __vcrt_FlsFree             000000018005f254 f   libvcruntime:winapi_downlevel.obj
 0001:0005e2a8       __vcrt_FlsGetValue         000000018005f2a8 f   libvcruntime:winapi_downlevel.obj
 0001:0005e2fc       __vcrt_FlsSetValue         000000018005f2fc f   libvcruntime:winapi_downlevel.obj
 0001:0005e364       __vcrt_InitializeCriticalSectionEx 000000018005f364 f   libvcruntime:winapi_downlevel.obj
 0001:0005e3dc       __vcrt_initialize_winapi_thunks 000000018005f3dc f   libvcruntime:winapi_downlevel.obj
 0001:0005e428       __vcrt_uninitialize_winapi_thunks 000000018005f428 f   libvcruntime:winapi_downlevel.obj
 0001:0005e468       __std_type_info_compare    000000018005f468 f   libvcruntime:std_type_info.obj
 0001:0005e490       __std_type_info_destroy_list 000000018005f490 f   libvcruntime:std_type_info.obj
 0001:0005e4bc       __vcrt_freefls             000000018005f4bc f   libvcruntime:per_thread_data.obj
 0001:0005e4dc       __vcrt_freeptd             000000018005f4dc f   libvcruntime:per_thread_data.obj
 0001:0005e52c       __vcrt_getptd              000000018005f52c f   libvcruntime:per_thread_data.obj
 0001:0005e548       __vcrt_getptd_noexit       000000018005f548 f   libvcruntime:per_thread_data.obj
 0001:0005e600       __vcrt_initialize_ptd      000000018005f600 f   libvcruntime:per_thread_data.obj
 0001:0005e640       __vcrt_uninitialize_ptd    000000018005f640 f   libvcruntime:per_thread_data.obj
 0001:0005e664       ?__GetCurrentState@@YAHPEA_KPEAU_xDISPATCHER_CONTEXT@@PEBU_s_FuncInfo@@@Z 000000018005f664 f   libvcruntime:ehstate.obj
 0001:0005e68c       ?__GetUnwindTryBlock@@YAHPEA_KPEAU_xDISPATCHER_CONTEXT@@PEBU_s_FuncInfo@@@Z 000000018005f68c f   libvcruntime:ehstate.obj
 0001:0005e6b8       ?__SetState@@YAXPEA_KPEAU_xDISPATCHER_CONTEXT@@PEBU_s_FuncInfo@@H@Z 000000018005f6b8 f   libvcruntime:ehstate.obj
 0001:0005e6c4       ?__SetUnwindTryBlock@@YAXPEA_KPEAU_xDISPATCHER_CONTEXT@@PEBU_s_FuncInfo@@H@Z 000000018005f6c4 f   libvcruntime:ehstate.obj
 0001:0005e700       ?__StateFromControlPc@@YAHPEBU_s_FuncInfo@@PEAU_xDISPATCHER_CONTEXT@@@Z 000000018005f700 f   libvcruntime:ehstate.obj
 0001:0005e708       ?__StateFromIp@@YAHPEBU_s_FuncInfo@@PEAU_xDISPATCHER_CONTEXT@@_J@Z 000000018005f708 f   libvcruntime:ehstate.obj
 0001:0005e790       _CallSettingFrame          000000018005f790 f   libvcruntime:handlers.obj
 0001:0005e7e0       _local_unwind              000000018005f7e0 f   libvcruntime:_jmpuwind_.obj
 0001:0005e810       _NLG_Notify                000000018005f810 f   libvcruntime:_jmpuwind_.obj
 0001:0005e830       __NLG_Dispatch2            000000018005f830 f   libvcruntime:_jmpuwind_.obj
 0001:0005e840       __NLG_Return2              000000018005f840 f   libvcruntime:_jmpuwind_.obj
 0001:0005e844       __vcrt_initialize_pure_virtual_call_handler 000000018005f844 f   libvcruntime:purevirt_data.obj
 0001:0005e868       __vcrt_initialize_locks    000000018005f868 f   libvcruntime:locks.obj
 0001:0005e8b0       __vcrt_uninitialize_locks  000000018005f8b0 f   libvcruntime:locks.obj
 0001:0005eed4       ??$ensure_buffer_is_big_enough@D@formatting_buffer@__crt_stdio_output@@QEAA_N_K@Z 000000018005fed4 f i libucrt:output.obj
 0001:0005ef7c       ??$ensure_buffer_is_big_enough@_W@formatting_buffer@__crt_stdio_output@@QEAA_N_K@Z 000000018005ff7c f i libucrt:output.obj
 0001:0005f028       ??$is_wide_character_specifier@_W@__crt_stdio_output@@YA_N_K_WW4length_modifier@0@@Z 0000000180060028 f i libucrt:output.obj
 0001:0005f068       ??$type_case_integer_parse_into_buffer@I@?$output_processor@DV?$stream_output_adapter@D@__crt_stdio_output@@V?$standard_base@DV?$stream_output_adapter@D@__crt_stdio_output@@@2@@__crt_stdio_output@@AEAAXII_N@Z 0000000180060068 f i libucrt:output.obj
 0001:0005f068       ??$type_case_integer_parse_into_buffer@I@?$output_processor@DV?$string_output_adapter@D@__crt_stdio_output@@V?$standard_base@DV?$string_output_adapter@D@__crt_stdio_output@@@2@@__crt_stdio_output@@AEAAXII_N@Z 0000000180060068 f i libucrt:output.obj
 0001:0005f068       ??$type_case_integer_parse_into_buffer@I@?$output_processor@DV?$string_output_adapter@D@__crt_stdio_output@@V?$format_validation_base@DV?$string_output_adapter@D@__crt_stdio_output@@@2@@__crt_stdio_output@@AEAAXII_N@Z 0000000180060068 f i libucrt:output.obj
 0001:0005f0f8       ??$type_case_integer_parse_into_buffer@I@?$output_processor@_WV?$string_output_adapter@_W@__crt_stdio_output@@V?$standard_base@_WV?$string_output_adapter@_W@__crt_stdio_output@@@2@@__crt_stdio_output@@AEAAXII_N@Z 00000001800600f8 f i libucrt:output.obj
 0001:0005f0f8       ??$type_case_integer_parse_into_buffer@I@?$output_processor@_WV?$stream_output_adapter@_W@__crt_stdio_output@@V?$standard_base@_WV?$stream_output_adapter@_W@__crt_stdio_output@@@2@@__crt_stdio_output@@AEAAXII_N@Z 00000001800600f8 f i libucrt:output.obj
 0001:0005f198       ??$type_case_integer_parse_into_buffer@_K@?$output_processor@DV?$string_output_adapter@D@__crt_stdio_output@@V?$format_validation_base@DV?$string_output_adapter@D@__crt_stdio_output@@@2@@__crt_stdio_output@@AEAAX_KI_N@Z 0000000180060198 f i libucrt:output.obj
 0001:0005f198       ??$type_case_integer_parse_into_buffer@_K@?$output_processor@DV?$string_output_adapter@D@__crt_stdio_output@@V?$standard_base@DV?$string_output_adapter@D@__crt_stdio_output@@@2@@__crt_stdio_output@@AEAAX_KI_N@Z 0000000180060198 f i libucrt:output.obj
 0001:0005f198       ??$type_case_integer_parse_into_buffer@_K@?$output_processor@DV?$stream_output_adapter@D@__crt_stdio_output@@V?$standard_base@DV?$stream_output_adapter@D@__crt_stdio_output@@@2@@__crt_stdio_output@@AEAAX_KI_N@Z 0000000180060198 f i libucrt:output.obj
 0001:0005f22c       ??$type_case_integer_parse_into_buffer@_K@?$output_processor@_WV?$stream_output_adapter@_W@__crt_stdio_output@@V?$standard_base@_WV?$stream_output_adapter@_W@__crt_stdio_output@@@2@@__crt_stdio_output@@AEAAX_KI_N@Z 000000018006022c f i libucrt:output.obj
 0001:0005f22c       ??$type_case_integer_parse_into_buffer@_K@?$output_processor@_WV?$string_output_adapter@_W@__crt_stdio_output@@V?$standard_base@_WV?$string_output_adapter@_W@__crt_stdio_output@@@2@@__crt_stdio_output@@AEAAX_KI_N@Z 000000018006022c f i libucrt:output.obj
 0001:0005f2d0       ??$write_multiple_characters@V?$stream_output_adapter@D@__crt_stdio_output@@D@__crt_stdio_output@@YAXAEBV?$stream_output_adapter@D@0@DHQEAH@Z 00000001800602d0 f i libucrt:output.obj
 0001:0005f35c       ??$write_multiple_characters@V?$stream_output_adapter@_W@__crt_stdio_output@@D@__crt_stdio_output@@YAXAEBV?$stream_output_adapter@_W@0@DHQEAH@Z 000000018006035c f i libucrt:output.obj
 0001:0005f3f0       ??$write_multiple_characters@V?$string_output_adapter@D@__crt_stdio_output@@D@__crt_stdio_output@@YAXAEBV?$string_output_adapter@D@0@DHQEAH@Z 00000001800603f0 f i libucrt:output.obj
 0001:0005f468       ??$write_multiple_characters@V?$string_output_adapter@_W@__crt_stdio_output@@D@__crt_stdio_output@@YAXAEBV?$string_output_adapter@_W@0@DHQEAH@Z 0000000180060468 f i libucrt:output.obj
 0001:0005f4e4       ??0_LocaleUpdate@@QEAA@QEAU__crt_locale_pointers@@@Z 00000001800604e4 f i libucrt:output.obj
 0001:0005f580       ??1_LocaleUpdate@@QEAA@XZ  0000000180060580 f i libucrt:output.obj
 0001:0005f7f8       ?crop_zeroes@__crt_stdio_output@@YAXPEADQEAU__crt_locale_pointers@@@Z 00000001800607f8 f i libucrt:output.obj
 0001:0005f864       ?force_decimal_point@__crt_stdio_output@@YAXPEADQEAU__crt_locale_pointers@@@Z 0000000180060864 f i libucrt:output.obj
 0001:0005f8d4       ?parse_int_from_format_string@?$output_processor@DV?$string_output_adapter@D@__crt_stdio_output@@V?$format_validation_base@DV?$string_output_adapter@D@__crt_stdio_output@@@2@@__crt_stdio_output@@AEAA_NQEAH@Z 00000001800608d4 f i libucrt:output.obj
 0001:0005f8d4       ?parse_int_from_format_string@?$output_processor@DV?$stream_output_adapter@D@__crt_stdio_output@@V?$standard_base@DV?$stream_output_adapter@D@__crt_stdio_output@@@2@@__crt_stdio_output@@AEAA_NQEAH@Z 00000001800608d4 f i libucrt:output.obj
 0001:0005f8d4       ?parse_int_from_format_string@?$output_processor@DV?$string_output_adapter@D@__crt_stdio_output@@V?$standard_base@DV?$string_output_adapter@D@__crt_stdio_output@@@2@@__crt_stdio_output@@AEAA_NQEAH@Z 00000001800608d4 f i libucrt:output.obj
 0001:0005f978       ?parse_int_from_format_string@?$output_processor@_WV?$stream_output_adapter@_W@__crt_stdio_output@@V?$standard_base@_WV?$stream_output_adapter@_W@__crt_stdio_output@@@2@@__crt_stdio_output@@AEAA_NQEAH@Z 0000000180060978 f i libucrt:output.obj
 0001:0005f978       ?parse_int_from_format_string@?$output_processor@_WV?$string_output_adapter@_W@__crt_stdio_output@@V?$standard_base@_WV?$string_output_adapter@_W@__crt_stdio_output@@@2@@__crt_stdio_output@@AEAA_NQEAH@Z 0000000180060978 f i libucrt:output.obj
 0001:0005fa1c       ?process@?$output_processor@DV?$stream_output_adapter@D@__crt_stdio_output@@V?$standard_base@DV?$stream_output_adapter@D@__crt_stdio_output@@@2@@__crt_stdio_output@@QEAAHXZ 0000000180060a1c f i libucrt:output.obj
 0001:0005fc30       ?process@?$output_processor@DV?$string_output_adapter@D@__crt_stdio_output@@V?$format_validation_base@DV?$string_output_adapter@D@__crt_stdio_output@@@2@@__crt_stdio_output@@QEAAHXZ 0000000180060c30 f i libucrt:output.obj
 0001:0005fe44       ?process@?$output_processor@DV?$string_output_adapter@D@__crt_stdio_output@@V?$standard_base@DV?$string_output_adapter@D@__crt_stdio_output@@@2@@__crt_stdio_output@@QEAAHXZ 0000000180060e44 f i libucrt:output.obj
 0001:00060048       ?process@?$output_processor@_WV?$stream_output_adapter@_W@__crt_stdio_output@@V?$standard_base@_WV?$stream_output_adapter@_W@__crt_stdio_output@@@2@@__crt_stdio_output@@QEAAHXZ 0000000180061048 f i libucrt:output.obj
 0001:000602a0       ?process@?$output_processor@_WV?$string_output_adapter@_W@__crt_stdio_output@@V?$standard_base@_WV?$string_output_adapter@_W@__crt_stdio_output@@@2@@__crt_stdio_output@@QEAAHXZ 00000001800612a0 f i libucrt:output.obj
 0001:000604fc       ?state_case_normal@?$output_processor@DV?$stream_output_adapter@D@__crt_stdio_output@@V?$standard_base@DV?$stream_output_adapter@D@__crt_stdio_output@@@2@@__crt_stdio_output@@AEAA_NXZ 00000001800614fc f i libucrt:output.obj
 0001:0006056c       ?state_case_normal@?$output_processor@DV?$string_output_adapter@D@__crt_stdio_output@@V?$standard_base@DV?$string_output_adapter@D@__crt_stdio_output@@@2@@__crt_stdio_output@@AEAA_NXZ 000000018006156c f i libucrt:output.obj
 0001:0006056c       ?state_case_normal@?$output_processor@DV?$string_output_adapter@D@__crt_stdio_output@@V?$format_validation_base@DV?$string_output_adapter@D@__crt_stdio_output@@@2@@__crt_stdio_output@@AEAA_NXZ 000000018006156c f i libucrt:output.obj
 0001:000605e0       ?state_case_normal_tchar@?$output_processor@DV?$stream_output_adapter@D@__crt_stdio_output@@V?$standard_base@DV?$stream_output_adapter@D@__crt_stdio_output@@@2@@__crt_stdio_output@@AEAA_ND@Z 00000001800615e0 f i libucrt:output.obj
 0001:0006067c       ?state_case_normal_tchar@?$output_processor@DV?$string_output_adapter@D@__crt_stdio_output@@V?$format_validation_base@DV?$string_output_adapter@D@__crt_stdio_output@@@2@@__crt_stdio_output@@AEAA_ND@Z 000000018006167c f i libucrt:output.obj
 0001:0006067c       ?state_case_normal_tchar@?$output_processor@DV?$string_output_adapter@D@__crt_stdio_output@@V?$standard_base@DV?$string_output_adapter@D@__crt_stdio_output@@@2@@__crt_stdio_output@@AEAA_ND@Z 000000018006167c f i libucrt:output.obj
 0001:00060714       ?state_case_size@?$output_processor@DV?$stream_output_adapter@D@__crt_stdio_output@@V?$standard_base@DV?$stream_output_adapter@D@__crt_stdio_output@@@2@@__crt_stdio_output@@AEAA_NXZ 0000000180061714 f i libucrt:output.obj
 0001:00060888       ?state_case_size@?$output_processor@DV?$string_output_adapter@D@__crt_stdio_output@@V?$standard_base@DV?$string_output_adapter@D@__crt_stdio_output@@@2@@__crt_stdio_output@@AEAA_NXZ 0000000180061888 f i libucrt:output.obj
 0001:00060888       ?state_case_size@?$output_processor@DV?$string_output_adapter@D@__crt_stdio_output@@V?$format_validation_base@DV?$string_output_adapter@D@__crt_stdio_output@@@2@@__crt_stdio_output@@AEAA_NXZ 0000000180061888 f i libucrt:output.obj
 0001:000609fc       ?state_case_size@?$output_processor@_WV?$stream_output_adapter@_W@__crt_stdio_output@@V?$standard_base@_WV?$stream_output_adapter@_W@__crt_stdio_output@@@2@@__crt_stdio_output@@AEAA_NXZ 00000001800619fc f i libucrt:output.obj
 0001:00060b94       ?state_case_size@?$output_processor@_WV?$string_output_adapter@_W@__crt_stdio_output@@V?$standard_base@_WV?$string_output_adapter@_W@__crt_stdio_output@@@2@@__crt_stdio_output@@AEAA_NXZ 0000000180061b94 f i libucrt:output.obj
 0001:00060d2c       ?state_case_type@?$output_processor@DV?$stream_output_adapter@D@__crt_stdio_output@@V?$standard_base@DV?$stream_output_adapter@D@__crt_stdio_output@@@2@@__crt_stdio_output@@AEAA_NXZ 0000000180061d2c f i libucrt:output.obj
 0001:00060fbc       ?state_case_type@?$output_processor@DV?$string_output_adapter@D@__crt_stdio_output@@V?$standard_base@DV?$string_output_adapter@D@__crt_stdio_output@@@2@@__crt_stdio_output@@AEAA_NXZ 0000000180061fbc f i libucrt:output.obj
 0001:00060fbc       ?state_case_type@?$output_processor@DV?$string_output_adapter@D@__crt_stdio_output@@V?$format_validation_base@DV?$string_output_adapter@D@__crt_stdio_output@@@2@@__crt_stdio_output@@AEAA_NXZ 0000000180061fbc f i libucrt:output.obj
 0001:00061228       ?state_case_type@?$output_processor@_WV?$stream_output_adapter@_W@__crt_stdio_output@@V?$standard_base@_WV?$stream_output_adapter@_W@__crt_stdio_output@@@2@@__crt_stdio_output@@AEAA_NXZ 0000000180062228 f i libucrt:output.obj
 0001:00061514       ?state_case_type@?$output_processor@_WV?$string_output_adapter@_W@__crt_stdio_output@@V?$standard_base@_WV?$string_output_adapter@_W@__crt_stdio_output@@@2@@__crt_stdio_output@@AEAA_NXZ 0000000180062514 f i libucrt:output.obj
 0001:000617e8       ?type_case_Z@?$output_processor@DV?$stream_output_adapter@D@__crt_stdio_output@@V?$standard_base@DV?$stream_output_adapter@D@__crt_stdio_output@@@2@@__crt_stdio_output@@AEAA_NXZ 00000001800627e8 f i libucrt:output.obj
 0001:000617e8       ?type_case_Z@?$output_processor@DV?$string_output_adapter@D@__crt_stdio_output@@V?$format_validation_base@DV?$string_output_adapter@D@__crt_stdio_output@@@2@@__crt_stdio_output@@AEAA_NXZ 00000001800627e8 f i libucrt:output.obj
 0001:000617e8       ?type_case_Z@?$output_processor@DV?$string_output_adapter@D@__crt_stdio_output@@V?$standard_base@DV?$string_output_adapter@D@__crt_stdio_output@@@2@@__crt_stdio_output@@AEAA_NXZ 00000001800627e8 f i libucrt:output.obj
 0001:00061860       ?type_case_Z@?$output_processor@_WV?$stream_output_adapter@_W@__crt_stdio_output@@V?$standard_base@_WV?$stream_output_adapter@_W@__crt_stdio_output@@@2@@__crt_stdio_output@@AEAA_NXZ 0000000180062860 f i libucrt:output.obj
 0001:00061860       ?type_case_Z@?$output_processor@_WV?$string_output_adapter@_W@__crt_stdio_output@@V?$standard_base@_WV?$string_output_adapter@_W@__crt_stdio_output@@@2@@__crt_stdio_output@@AEAA_NXZ 0000000180062860 f i libucrt:output.obj
 0001:000618dc       ?type_case_a@?$output_processor@DV?$string_output_adapter@D@__crt_stdio_output@@V?$format_validation_base@DV?$string_output_adapter@D@__crt_stdio_output@@@2@@__crt_stdio_output@@AEAA_NXZ 00000001800628dc f i libucrt:output.obj
 0001:000618dc       ?type_case_a@?$output_processor@DV?$string_output_adapter@D@__crt_stdio_output@@V?$standard_base@DV?$string_output_adapter@D@__crt_stdio_output@@@2@@__crt_stdio_output@@AEAA_NXZ 00000001800628dc f i libucrt:output.obj
 0001:000618dc       ?type_case_a@?$output_processor@DV?$stream_output_adapter@D@__crt_stdio_output@@V?$standard_base@DV?$stream_output_adapter@D@__crt_stdio_output@@@2@@__crt_stdio_output@@AEAA_NXZ 00000001800628dc f i libucrt:output.obj
 0001:00061a98       ?type_case_a@?$output_processor@_WV?$stream_output_adapter@_W@__crt_stdio_output@@V?$standard_base@_WV?$stream_output_adapter@_W@__crt_stdio_output@@@2@@__crt_stdio_output@@AEAA_NXZ 0000000180062a98 f i libucrt:output.obj
 0001:00061a98       ?type_case_a@?$output_processor@_WV?$string_output_adapter@_W@__crt_stdio_output@@V?$standard_base@_WV?$string_output_adapter@_W@__crt_stdio_output@@@2@@__crt_stdio_output@@AEAA_NXZ 0000000180062a98 f i libucrt:output.obj
 0001:00061c78       ?type_case_c_tchar@?$output_processor@DV?$string_output_adapter@D@__crt_stdio_output@@V?$standard_base@DV?$string_output_adapter@D@__crt_stdio_output@@@2@@__crt_stdio_output@@AEAA_ND@Z 0000000180062c78 f i libucrt:output.obj
 0001:00061c78       ?type_case_c_tchar@?$output_processor@DV?$stream_output_adapter@D@__crt_stdio_output@@V?$standard_base@DV?$stream_output_adapter@D@__crt_stdio_output@@@2@@__crt_stdio_output@@AEAA_ND@Z 0000000180062c78 f i libucrt:output.obj
 0001:00061c78       ?type_case_c_tchar@?$output_processor@DV?$string_output_adapter@D@__crt_stdio_output@@V?$format_validation_base@DV?$string_output_adapter@D@__crt_stdio_output@@@2@@__crt_stdio_output@@AEAA_ND@Z 0000000180062c78 f i libucrt:output.obj
 0001:00061d3c       ?type_case_c_tchar@?$output_processor@_WV?$stream_output_adapter@_W@__crt_stdio_output@@V?$standard_base@_WV?$stream_output_adapter@_W@__crt_stdio_output@@@2@@__crt_stdio_output@@AEAA_N_W@Z 0000000180062d3c f i libucrt:output.obj
 0001:00061d3c       ?type_case_c_tchar@?$output_processor@_WV?$string_output_adapter@_W@__crt_stdio_output@@V?$standard_base@_WV?$string_output_adapter@_W@__crt_stdio_output@@@2@@__crt_stdio_output@@AEAA_N_W@Z 0000000180062d3c f i libucrt:output.obj
 0001:00061de4       ?type_case_integer@?$output_processor@DV?$string_output_adapter@D@__crt_stdio_output@@V?$format_validation_base@DV?$string_output_adapter@D@__crt_stdio_output@@@2@@__crt_stdio_output@@AEAA_NI_N@Z 0000000180062de4 f i libucrt:output.obj
 0001:00061de4       ?type_case_integer@?$output_processor@DV?$string_output_adapter@D@__crt_stdio_output@@V?$standard_base@DV?$string_output_adapter@D@__crt_stdio_output@@@2@@__crt_stdio_output@@AEAA_NI_N@Z 0000000180062de4 f i libucrt:output.obj
 0001:00061de4       ?type_case_integer@?$output_processor@DV?$stream_output_adapter@D@__crt_stdio_output@@V?$standard_base@DV?$stream_output_adapter@D@__crt_stdio_output@@@2@@__crt_stdio_output@@AEAA_NI_N@Z 0000000180062de4 f i libucrt:output.obj
 0001:00061fac       ?type_case_integer@?$output_processor@_WV?$string_output_adapter@_W@__crt_stdio_output@@V?$standard_base@_WV?$string_output_adapter@_W@__crt_stdio_output@@@2@@__crt_stdio_output@@AEAA_NI_N@Z 0000000180062fac f i libucrt:output.obj
 0001:00061fac       ?type_case_integer@?$output_processor@_WV?$stream_output_adapter@_W@__crt_stdio_output@@V?$standard_base@_WV?$stream_output_adapter@_W@__crt_stdio_output@@@2@@__crt_stdio_output@@AEAA_NI_N@Z 0000000180062fac f i libucrt:output.obj
 0001:00062178       ?type_case_n@?$output_processor@DV?$stream_output_adapter@D@__crt_stdio_output@@V?$standard_base@DV?$stream_output_adapter@D@__crt_stdio_output@@@2@@__crt_stdio_output@@AEAA_NXZ 0000000180063178 f i libucrt:output.obj
 0001:00062178       ?type_case_n@?$output_processor@_WV?$string_output_adapter@_W@__crt_stdio_output@@V?$standard_base@_WV?$string_output_adapter@_W@__crt_stdio_output@@@2@@__crt_stdio_output@@AEAA_NXZ 0000000180063178 f i libucrt:output.obj
 0001:00062178       ?type_case_n@?$output_processor@_WV?$stream_output_adapter@_W@__crt_stdio_output@@V?$standard_base@_WV?$stream_output_adapter@_W@__crt_stdio_output@@@2@@__crt_stdio_output@@AEAA_NXZ 0000000180063178 f i libucrt:output.obj
 0001:00062178       ?type_case_n@?$output_processor@DV?$string_output_adapter@D@__crt_stdio_output@@V?$format_validation_base@DV?$string_output_adapter@D@__crt_stdio_output@@@2@@__crt_stdio_output@@AEAA_NXZ 0000000180063178 f i libucrt:output.obj
 0001:00062178       ?type_case_n@?$output_processor@DV?$string_output_adapter@D@__crt_stdio_output@@V?$standard_base@DV?$string_output_adapter@D@__crt_stdio_output@@@2@@__crt_stdio_output@@AEAA_NXZ 0000000180063178 f i libucrt:output.obj
 0001:00062254       ?type_case_s@?$output_processor@DV?$stream_output_adapter@D@__crt_stdio_output@@V?$standard_base@DV?$stream_output_adapter@D@__crt_stdio_output@@@2@@__crt_stdio_output@@AEAA_NXZ 0000000180063254 f i libucrt:output.obj
 0001:00062254       ?type_case_s@?$output_processor@DV?$string_output_adapter@D@__crt_stdio_output@@V?$standard_base@DV?$string_output_adapter@D@__crt_stdio_output@@@2@@__crt_stdio_output@@AEAA_NXZ 0000000180063254 f i libucrt:output.obj
 0001:00062254       ?type_case_s@?$output_processor@DV?$string_output_adapter@D@__crt_stdio_output@@V?$format_validation_base@DV?$string_output_adapter@D@__crt_stdio_output@@@2@@__crt_stdio_output@@AEAA_NXZ 0000000180063254 f i libucrt:output.obj
 0001:000622ec       ?type_case_s@?$output_processor@_WV?$string_output_adapter@_W@__crt_stdio_output@@V?$standard_base@_WV?$string_output_adapter@_W@__crt_stdio_output@@@2@@__crt_stdio_output@@AEAA_NXZ 00000001800632ec f i libucrt:output.obj
 0001:000622ec       ?type_case_s@?$output_processor@_WV?$stream_output_adapter@_W@__crt_stdio_output@@V?$standard_base@_WV?$stream_output_adapter@_W@__crt_stdio_output@@@2@@__crt_stdio_output@@AEAA_NXZ 00000001800632ec f i libucrt:output.obj
 0001:000623b0       ?validate_stream_is_ansi_if_required@?$__acrt_stdio_char_traits@D@@SA_NQEAU_iobuf@@@Z 00000001800633b0 f i libucrt:output.obj
 0001:00062444       ?write_stored_string_tchar@?$output_processor@DV?$stream_output_adapter@D@__crt_stdio_output@@V?$standard_base@DV?$stream_output_adapter@D@__crt_stdio_output@@@2@@__crt_stdio_output@@AEAA_ND@Z 0000000180063444 f i libucrt:output.obj
 0001:00062568       ?write_stored_string_tchar@?$output_processor@DV?$string_output_adapter@D@__crt_stdio_output@@V?$standard_base@DV?$string_output_adapter@D@__crt_stdio_output@@@2@@__crt_stdio_output@@AEAA_ND@Z 0000000180063568 f i libucrt:output.obj
 0001:00062568       ?write_stored_string_tchar@?$output_processor@DV?$string_output_adapter@D@__crt_stdio_output@@V?$format_validation_base@DV?$string_output_adapter@D@__crt_stdio_output@@@2@@__crt_stdio_output@@AEAA_ND@Z 0000000180063568 f i libucrt:output.obj
 0001:00062640       ?write_stored_string_tchar@?$output_processor@_WV?$stream_output_adapter@_W@__crt_stdio_output@@V?$standard_base@_WV?$stream_output_adapter@_W@__crt_stdio_output@@@2@@__crt_stdio_output@@AEAA_N_W@Z 0000000180063640 f i libucrt:output.obj
 0001:00062748       ?write_stored_string_tchar@?$output_processor@_WV?$string_output_adapter@_W@__crt_stdio_output@@V?$standard_base@_WV?$string_output_adapter@_W@__crt_stdio_output@@@2@@__crt_stdio_output@@AEAA_N_W@Z 0000000180063748 f i libucrt:output.obj
 0001:00062834       ?write_string@?$string_output_adapter@D@__crt_stdio_output@@QEBAXQEBDHQEAHAEAV__crt_deferred_errno_cache@@@Z 0000000180063834 f i libucrt:output.obj
 0001:000628d8       ?write_string@?$string_output_adapter@_W@__crt_stdio_output@@QEBAXQEB_WHQEAHAEAV__crt_deferred_errno_cache@@@Z 00000001800638d8 f i libucrt:output.obj
 0001:00062980       ?write_string_impl@?$output_adapter_common@DV?$stream_output_adapter@D@__crt_stdio_output@@@__crt_stdio_output@@IEBAXQEBDHQEAHAEAV__crt_deferred_errno_cache@@@Z 0000000180063980 f i libucrt:output.obj
 0001:00062a78       ?write_string_impl@?$output_adapter_common@_WV?$stream_output_adapter@_W@__crt_stdio_output@@@__crt_stdio_output@@IEBAXQEB_WHQEAHAEAV__crt_deferred_errno_cache@@@Z 0000000180063a78 f i libucrt:output.obj
 0001:00062b7c       __stdio_common_vfprintf    0000000180063b7c f   libucrt:output.obj
 0001:00062c08       __stdio_common_vfwprintf   0000000180063c08 f   libucrt:output.obj
 0001:00062c94       __stdio_common_vsnprintf_s 0000000180063c94 f   libucrt:output.obj
 0001:00062dc8       __stdio_common_vsprintf    0000000180063dc8 f   libucrt:output.obj
 0001:00062dd0       __stdio_common_vsprintf_s  0000000180063dd0 f   libucrt:output.obj
 0001:00062e34       __stdio_common_vswprintf   0000000180063e34 f   libucrt:output.obj
 0001:00062e3c       free                       0000000180063e3c f   libucrt:free.obj
 0001:00063828       ??$ftprintf@PEAU_iobuf@@PEB_WAEBQEB_WAEBQEB_WAEBI@?$__crt_char_traits@_W@@SAH$$QEAPEAU_iobuf@@$$QEAPEB_WAEBQEB_W2AEBI@Z 0000000180064828 f i libucrt:assert.obj
 0001:00063850       _wassert                   0000000180064850 f   libucrt:assert.obj
 0001:000638d4       fwprintf                   00000001800648d4 f i libucrt:assert.obj
 0001:00063918       swprintf                   0000000180064918 f i libucrt:assert.obj
 0001:0006396c       __acrt_call_reportfault    000000018006496c f   libucrt:invalid_parameter.obj
 0001:00063ac8       __acrt_initialize_invalid_parameter_handler 0000000180064ac8 f   libucrt:invalid_parameter.obj
 0001:00063ad0       _invalid_parameter         0000000180064ad0 f   libucrt:invalid_parameter.obj
 0001:00063b80       _invalid_parameter_noinfo  0000000180064b80 f   libucrt:invalid_parameter.obj
 0001:00063ba0       _invalid_parameter_noinfo_noreturn 0000000180064ba0 f   libucrt:invalid_parameter.obj
 0001:00063bd0       _invoke_watson             0000000180064bd0 f   libucrt:invalid_parameter.obj
 0001:00063c18       malloc                     0000000180064c18 f   libucrt:malloc.obj
 0001:00063c20       __acrt_errno_from_os_error 0000000180064c20 f   libucrt:errno.obj
 0001:00063c68       __acrt_errno_map_os_error  0000000180064c68 f   libucrt:errno.obj
 0001:00063cb8       __doserrno                 0000000180064cb8 f   libucrt:errno.obj
 0001:00063cd8       _errno                     0000000180064cd8 f   libucrt:errno.obj
 0001:00063cf8       strerror                   0000000180064cf8 f   libucrt:strerror.obj
 0001:00063da0       __acrt_initialize_stdio    0000000180064da0 f   libucrt:_file.obj
 0001:00063ec0       __acrt_iob_func            0000000180064ec0 f   libucrt:_file.obj
 0001:00063ed4       __acrt_uninitialize_stdio  0000000180064ed4 f   libucrt:_file.obj
 0001:00063f30       _lock_file                 0000000180064f30 f   libucrt:_file.obj
 0001:00063f3c       _unlock_file               0000000180064f3c f   libucrt:_file.obj
 0001:00064164       __acrt_stdio_flush_nolock  0000000180065164 f   libucrt:fflush.obj
 0001:000641e0       _fflush_nolock             00000001800651e0 f   libucrt:fflush.obj
 0001:0006422c       _flushall                  000000018006522c f   libucrt:fflush.obj
 0001:00064234       fflush                     0000000180065234 f   libucrt:fflush.obj
 0001:0006429c       ??$parse_integer@KV?$c_string_character_source@D@__crt_strtox@@@__crt_strtox@@YAKQEAU__crt_locale_pointers@@V?$c_string_character_source@D@0@H_N@Z 000000018006529c f i libucrt:atox.obj
 0001:000645d8       ??$parse_integer@KV?$c_string_character_source@_W@__crt_strtox@@@__crt_strtox@@YAKQEAU__crt_locale_pointers@@V?$c_string_character_source@_W@0@H_N@Z 00000001800655d8 f i libucrt:atox.obj
 0001:00064c8c       _wtol                      0000000180065c8c f   libucrt:atox.obj
 0001:00064cb8       atoi                       0000000180065cb8 f   libucrt:atox.obj
 0001:00064dac       puts                       0000000180065dac f   libucrt:puts.obj
 0001:00064ed0       strncpy                    0000000180065ed0 f   libucrt:strncpy.obj
 0001:00065034       isalnum                    0000000180066034 f i libucrt:_ctype.obj
 0001:000650b4       isalpha                    00000001800660b4 f i libucrt:_ctype.obj
 0001:00065134       isdigit                    0000000180066134 f i libucrt:_ctype.obj
 0001:000651ac       islower                    00000001800661ac f i libucrt:_ctype.obj
 0001:00065224       isupper                    0000000180066224 f i libucrt:_ctype.obj
 0001:0006529c       isxdigit                   000000018006629c f i libucrt:_ctype.obj
 0001:00065458       _beginthreadex             0000000180066458 f   libucrt:thread.obj
 0001:0006552c       _endthreadex               000000018006652c f   libucrt:thread.obj
 0001:000655e0       strcspn                    00000001800665e0 f   libucrt:strcspn.obj
 0001:000659a4       frexp                      00000001800669a4 f   libucrt:frexp.obj
 0001:00065a9c       calloc                     0000000180066a9c f   libucrt:calloc.obj
 0001:00065aa4       localeconv                 0000000180066aa4 f   libucrt:localeconv.obj
 0001:00065ad8       realloc                    0000000180066ad8 f   libucrt:realloc.obj
 0001:00065ae0       rand                       0000000180066ae0 f   libucrt:rand.obj
 0001:00065b20       strncmp                    0000000180066b20 f   libucrt:strncmp.obj
 0001:00065ba0       ceil                       0000000180066ba0 f   libucrt:ceil.obj
 0001:00065c64       __acrt_initialize_locks    0000000180066c64 f   libucrt:locks.obj
 0001:00065cac       __acrt_lock                0000000180066cac f   libucrt:locks.obj
 0001:00065cc8       __acrt_uninitialize_locks  0000000180066cc8 f   libucrt:locks.obj
 0001:00065d00       __acrt_unlock              0000000180066d00 f   libucrt:locks.obj
 0001:00065d1c       _lock_locales              0000000180066d1c f   libucrt:locks.obj
 0001:00065d38       _unlock_locales            0000000180066d38 f   libucrt:locks.obj
 0001:00065d48       _calloc_base               0000000180066d48 f   libucrt:calloc_base.obj
 0001:00065dc0       __pctype_func              0000000180066dc0 f   libucrt:ctype.obj
 0001:00065df0       _wcsdup                    0000000180066df0 f   libucrt:wcsdup.obj
 0001:00065e74       ___lc_codepage_func        0000000180066e74 f   libucrt:initctype.obj
 0001:00065ea4       ___lc_locale_name_func     0000000180066ea4 f   libucrt:initctype.obj
 0001:00065ed8       ___mb_cur_max_func         0000000180066ed8 f   libucrt:initctype.obj
 0001:00065f08       __acrt_locale_initialize_ctype 0000000180066f08 f   libucrt:initctype.obj
 0001:000665dc       _ismbblead                 00000001800675dc f   libucrt:ismbbyte.obj
 0001:000668fc       setlocale                  00000001800678fc f   libucrt:setlocale.obj
 0001:00066948       __strncnt                  0000000180067948 f   libucrt:strncnt.obj
 0001:00066960       _free_base                 0000000180067960 f   libucrt:free_base.obj
 0001:000669a0       _malloc_base               00000001800679a0 f   libucrt:malloc_base.obj
 0001:00066a00       abort                      0000000180067a00 f   libucrt:abort.obj
 0001:00066a58       _realloc_base              0000000180067a58 f   libucrt:realloc_base.obj
 0001:00066ae0       ?divide@__crt_strtox@@YA_KAEAUbig_integer@1@AEBU21@@Z 0000000180067ae0 f i libucrt:strtod.obj
 0001:00066f70       pow                        0000000180067f70 f   libucrt:pow.obj
 0001:00068610       powf                       0000000180069610 f   libucrt:powf.obj
 0001:000694d8       wcscpy_s                   000000018006a4d8 f   libucrt:wcscpy_s.obj
 0001:00069550       strnlen                    000000018006a550 f   libucrt:strnlen.obj
 0001:000696a0       wcsnlen                    000000018006a6a0 f   libucrt:strnlen.obj
 0001:000698c8       _tolower_l                 000000018006a8c8 f   libucrt:tolower_toupper.obj
 0001:00069a08       tolower                    000000018006aa08 f   libucrt:tolower_toupper.obj
 0001:00069a34       __acrt_initialize_new_handler 000000018006aa34 f   libucrt:new_handler.obj
 0001:00069a3c       _callnewh                  000000018006aa3c f   libucrt:new_handler.obj
 0001:00069a6c       _query_new_handler         000000018006aa6c f   libucrt:new_handler.obj
 0001:00069aa0       _seh_filter_dll            000000018006aaa0 f   libucrt:exception_filter.obj
 0001:00069ab4       _seh_filter_exe            000000018006aab4 f   libucrt:exception_filter.obj
 0001:00069eac       __acrt_initialize_thread_local_exit_callback 000000018006aeac f   libucrt:exit.obj
 0001:00069eb4       _cexit                     000000018006aeb4 f   libucrt:exit.obj
 0001:00069ec4       _exit                      000000018006aec4 f   libucrt:exit.obj
 0001:00069ed0       _is_c_termination_complete 000000018006aed0 f   libucrt:exit.obj
 0001:0006a09c       __acrt_allocate_buffer_for_argv 000000018006b09c f   libucrt:argv_parsing.obj
 0001:0006a0fc       _configure_narrow_argv     000000018006b0fc f   libucrt:argv_parsing.obj
 0001:0006a474       __dcrt_uninitialize_environments_nolock 000000018006b474 f   libucrt:environment_initialization.obj
 0001:0006a4ac       _initialize_narrow_environment 000000018006b4ac f   libucrt:environment_initialization.obj
 0001:0006a83c       _crt_atexit                000000018006b83c f   libucrt:onexit.obj
 0001:0006a84c       _execute_onexit_table      000000018006b84c f   libucrt:onexit.obj
 0001:0006a888       _initialize_onexit_table   000000018006b888 f   libucrt:onexit.obj
 0001:0006a8c8       _register_onexit_function  000000018006b8c8 f   libucrt:onexit.obj
 0001:0006aa50       __acrt_initialize          000000018006ba50 f   libucrt:initialization.obj
 0001:0006aa64       __acrt_thread_attach       000000018006ba64 f   libucrt:initialization.obj
 0001:0006aa78       __acrt_thread_detach       000000018006ba78 f   libucrt:initialization.obj
 0001:0006aa88       __acrt_uninitialize        000000018006ba88 f   libucrt:initialization.obj
 0001:0006aac0       __acrt_uninitialize_critical 000000018006bac0 f   libucrt:initialization.obj
 0001:0006aad0       _initterm                  000000018006bad0 f   libucrt:initterm.obj
 0001:0006ab34       _initterm_e                000000018006bb34 f   libucrt:initterm.obj
 0001:0006ab74       terminate                  000000018006bb74 f   libucrt:terminate.obj
 0001:0006ab94       strcpy_s                   000000018006bb94 f   libucrt:strcpy_s.obj
 0001:0006ac04       strtol                     000000018006bc04 f   libucrt:strtox.obj
 0001:0006ac30       wcstol                     000000018006bc30 f   libucrt:strtox.obj
 0001:0006ac5c       _mbtowc_l                  000000018006bc5c f   libucrt:mbtowc.obj
 0001:0006add8       mbtowc                     000000018006bdd8 f   libucrt:mbtowc.obj
 0001:0006ade0       _wctomb_s_l                000000018006bde0 f   libucrt:wctomb.obj
 0001:0006af64       wctomb_s                   000000018006bf64 f   libucrt:wctomb.obj
 0001:0006b2f0       __acrt_freeptd             000000018006c2f0 f   libucrt:per_thread_data.obj
 0001:0006b334       __acrt_getptd              000000018006c334 f   libucrt:per_thread_data.obj
 0001:0006b3f8       __acrt_getptd_head         000000018006c3f8 f   libucrt:per_thread_data.obj
 0001:0006b4a0       __acrt_getptd_noexit       000000018006c4a0 f   libucrt:per_thread_data.obj
 0001:0006b558       __acrt_initialize_ptd      000000018006c558 f   libucrt:per_thread_data.obj
 0001:0006b594       __acrt_uninitialize_ptd    000000018006c594 f   libucrt:per_thread_data.obj
 0001:0006b5b8       __acrt_update_locale_info  000000018006c5b8 f   libucrt:locale_update.obj
 0001:0006b5ec       __acrt_update_multibyte_info 000000018006c5ec f   libucrt:locale_update.obj
 0001:0006bff0       __acrt_fp_format           000000018006cff0 f   libucrt:cvt.obj
 0001:0006c278       _fputwc_nolock             000000018006d278 f   libucrt:fputwc.obj
 0001:0006c3f0       _fileno                    000000018006d3f0 f   libucrt:fileno.obj
 0001:0006c418       _fputc_nolock              000000018006d418 f   libucrt:fputc.obj
 0001:0006c430       _get_printf_count_output   000000018006d430 f   libucrt:printf_count_output.obj
 0001:0006c448       __acrt_stdio_begin_temporary_buffering_nolock 000000018006d448 f   libucrt:_sftbuf.obj
 0001:0006c518       __acrt_stdio_end_temporary_buffering_nolock 000000018006d518 f   libucrt:_sftbuf.obj
 0001:0006c7bc       __acrt_copy_locale_name    000000018006d7bc f   libucrt:wsetlocale.obj
 0001:0006c840       __acrt_set_locale_changed  000000018006d840 f   libucrt:wsetlocale.obj
 0001:0006c84c       __acrt_uninitialize_locale 000000018006d84c f   libucrt:wsetlocale.obj
 0001:0006c87c       __lc_lctowcs               000000018006d87c f   libucrt:wsetlocale.obj
 0001:0006c920       __lc_wcstolc               000000018006d920 f   libucrt:wsetlocale.obj
 0001:0006cba0       _expandlocale              000000018006dba0 f   libucrt:wsetlocale.obj
 0001:0006d028       _wcscats                   000000018006e028 f   libucrt:wsetlocale.obj
 0001:0006d090       _wsetlocale                000000018006e090 f   libucrt:wsetlocale.obj
 0001:0006dae4       __acrt_initialize_lowio    000000018006eae4 f   libucrt:ioinit.obj
 0001:0006db20       __acrt_uninitialize_lowio  000000018006eb20 f   libucrt:ioinit.obj
 0001:0006db60       _query_app_type            000000018006eb60 f   libucrt:report_runtime_error.obj
 0001:0006dc98       _itow_s                    000000018006ec98 f   libucrt:xtoa.obj
 0001:0006dcb8       _set_error_mode            000000018006ecb8 f   libucrt:set_error_mode.obj
 0001:0006dcf8       wcscat_s                   000000018006ecf8 f   libucrt:wcscat_s.obj
 0001:0006dd84       wcsncat_s                  000000018006ed84 f   libucrt:wcsncat_s.obj
 0001:0006de98       __acrt_GetModuleFileNameA  000000018006ee98 f   libucrt:getmodulefilenamea.obj
 0001:0006df14       __acrt_show_wide_message_box 000000018006ef14 f   libucrt:crtmbox.obj
 0001:0006e0e8       setvbuf                    000000018006f0e8 f   libucrt:setvbuf.obj
 0001:0006e1cc       __acrt_get_sigabrt_handler 000000018006f1cc f   libucrt:signal.obj
 0001:0006e1fc       __acrt_initialize_signal_handlers 000000018006f1fc f   libucrt:signal.obj
 0001:0006e21c       raise                      000000018006f21c f   libucrt:signal.obj
 0001:0006e49c       __sys_errlist              000000018006f49c f   libucrt:syserr.obj
 0001:0006e4a4       __sys_nerr                 000000018006f4a4 f   libucrt:syserr.obj
 0001:0006e6b0       _mbstowcs_l                000000018006f6b0 f   libucrt:mbstowcs.obj
 0001:0006e6b8       _mbstowcs_s_l              000000018006f6b8 f   libucrt:mbstowcs.obj
 0001:0006e7ec       mbstowcs                   000000018006f7ec f   libucrt:mbstowcs.obj
 0001:0006e808       mbstowcs_s                 000000018006f808 f   libucrt:mbstowcs.obj
 0001:0006e828       strncpy_s                  000000018006f828 f   libucrt:strncpy_s.obj
 0001:0006ebb4       __acrt_AppPolicyGetProcessTerminationMethodInternal 000000018006fbb4 f   libucrt:winapi_thunks.obj
 0001:0006ec04       __acrt_AppPolicyGetShowDeveloperDiagnosticInternal 000000018006fc04 f   libucrt:winapi_thunks.obj
 0001:0006ec54       __acrt_AppPolicyGetThreadInitializationTypeInternal 000000018006fc54 f   libucrt:winapi_thunks.obj
 0001:0006eca4       __acrt_AppPolicyGetWindowingModelInternal 000000018006fca4 f   libucrt:winapi_thunks.obj
 0001:0006ecf4       __acrt_EnumSystemLocalesEx 000000018006fcf4 f   libucrt:winapi_thunks.obj
 0001:0006ed8c       __acrt_FlsAlloc            000000018006fd8c f   libucrt:winapi_thunks.obj
 0001:0006edd4       __acrt_FlsFree             000000018006fdd4 f   libucrt:winapi_thunks.obj
 0001:0006ee1c       __acrt_FlsGetValue         000000018006fe1c f   libucrt:winapi_thunks.obj
 0001:0006ee64       __acrt_FlsSetValue         000000018006fe64 f   libucrt:winapi_thunks.obj
 0001:0006eeb8       __acrt_GetLocaleInfoEx     000000018006feb8 f   libucrt:winapi_thunks.obj
 0001:0006ef3c       __acrt_GetUserDefaultLocaleName 000000018006ff3c f   libucrt:winapi_thunks.obj
 0001:0006efa0       __acrt_InitializeCriticalSectionEx 000000018006ffa0 f   libucrt:winapi_thunks.obj
 0001:0006f004       __acrt_IsValidLocaleName   0000000180070004 f   libucrt:winapi_thunks.obj
 0001:0006f05c       __acrt_LCIDToLocaleName    000000018007005c f   libucrt:winapi_thunks.obj
 0001:0006f0cc       __acrt_LCMapStringEx       00000001800700cc f   libucrt:winapi_thunks.obj
 0001:0006f1a8       __acrt_LocaleNameToLCID    00000001800701a8 f   libucrt:winapi_thunks.obj
 0001:0006f1f8       __acrt_MessageBoxW         00000001800701f8 f   libucrt:winapi_thunks.obj
 0001:0006f26c       __acrt_RoInitialize        000000018007026c f   libucrt:winapi_thunks.obj
 0001:0006f2ac       __acrt_RoUninitialize      00000001800702ac f   libucrt:winapi_thunks.obj
 0001:0006f2e0       __acrt_can_show_message_box 00000001800702e0 f   libucrt:winapi_thunks.obj
 0001:0006f350       __acrt_can_use_vista_locale_apis 0000000180070350 f   libucrt:winapi_thunks.obj
 0001:0006f380       __acrt_eagerly_load_locale_apis 0000000180070380 f   libucrt:winapi_thunks.obj
 0001:0006f4dc       __acrt_get_parent_window   00000001800704dc f   libucrt:winapi_thunks.obj
 0001:0006f558       __acrt_initialize_winapi_thunks 0000000180070558 f   libucrt:winapi_thunks.obj
 0001:0006f5a0       __acrt_is_interactive      00000001800705a0 f   libucrt:winapi_thunks.obj
 0001:0006f668       __acrt_uninitialize_winapi_thunks 0000000180070668 f   libucrt:winapi_thunks.obj
 0001:0006f6ac       _fcloseall                 00000001800706ac f   libucrt:closeall.obj
 0001:0006f760       __acrt_stdio_free_buffer_nolock 0000000180070760 f   libucrt:_freebuf.obj
 0001:0006f82c       _commit                    000000018007082c f   libucrt:commit.obj
 0001:0006fe68       _write                     0000000180070e68 f   libucrt:write.obj
 0001:0006ff54       _write_nolock              0000000180070f54 f   libucrt:write.obj
 0001:00070234       iswctype                   0000000180071234 f   libucrt:iswctype.obj
 0001:000702a4       _isctype_l                 00000001800712a4 f   libucrt:isctype.obj
 0001:000703b8       _fwrite_nolock             00000001800713b8 f   libucrt:fwrite.obj
 0001:00070560       __acrt_get_begin_thread_init_policy 0000000180071560 f   libucrt:win_policies.obj
 0001:000705b4       __acrt_get_developer_information_policy 00000001800715b4 f   libucrt:win_policies.obj
 0001:00070608       __acrt_get_process_end_policy 0000000180071608 f   libucrt:win_policies.obj
 0001:00070644       __acrt_get_windowing_model_policy 0000000180071644 f   libucrt:win_policies.obj
 0001:000706b0       _dsign                     00000001800716b0 f   libucrt:nan.obj
 0001:000706c8       _errcode                   00000001800716c8 f   libucrt:fpexcept.obj
 0001:0007070c       _except1                   000000018007170c f   libucrt:fpexcept.obj
 0001:00070800       _handle_exc                0000000180071800 f   libucrt:fpexcept.obj
 0001:00070a68       _raise_exc                 0000000180071a68 f   libucrt:fpexcept.obj
 0001:00070a90       _raise_exc_ex              0000000180071a90 f   libucrt:fpexcept.obj
 0001:00070da0       _raise_excf                0000000180071da0 f   libucrt:fpexcept.obj
 0001:00070dcc       _set_errno_from_matherr    0000000180071dcc f   libucrt:fpexcept.obj
 0001:00070dfc       _umatherr                  0000000180071dfc f   libucrt:fpexcept.obj
 0001:00070ed0       _decomp                    0000000180071ed0 f   libucrt:util.obj
 0001:00071008       _sptype                    0000000180072008 f   libucrt:util.obj
 0001:0007107c       _clrfp                     000000018007207c f   libucrt:fpctrl.obj
 0001:0007109c       _ctrlfp                    000000018007209c f   libucrt:fpctrl.obj
 0001:00071118       _set_statfp                0000000180072118 f   libucrt:fpctrl.obj
 0001:00071138       _statfp                    0000000180072138 f   libucrt:fpctrl.obj
 0001:00071270       _handle_error              0000000180072270 f   libucrt:libm_error.obj
 0001:00071398       _handle_errorf             0000000180072398 f   libucrt:libm_error.obj
 0001:000714cc       _handle_nan                00000001800724cc f   libucrt:libm_error.obj
 0001:000714e8       _handle_nanf               00000001800724e8 f   libucrt:libm_error.obj
 0001:000714f8       _query_new_mode            00000001800724f8 f   libucrt:new_mode.obj
 0001:00071500       __acrt_initialize_heap     0000000180072500 f   libucrt:heap_handle.obj
 0001:0007151c       __acrt_uninitialize_heap   000000018007251c f   libucrt:heap_handle.obj
 0001:000716a4       __acrt_GetLocaleInfoA      00000001800726a4 f   libucrt:getlocaleinfoa.obj
 0001:0007186c       __acrt_GetStringTypeA      000000018007286c f   libucrt:getstringtypea.obj
 0001:00071d14       __acrt_LCMapStringA        0000000180072d14 f   libucrt:lcmapstringa.obj
 0001:00072114       _wcstombs_l                0000000180073114 f   libucrt:wcstombs.obj
 0001:0007211c       _wcstombs_s_l              000000018007311c f   libucrt:wcstombs.obj
 0001:00072210       __acrt_initialize_fma3     0000000180073210 f   libucrt:fma3_available.obj
 0001:00072280       _pow_special               0000000180073280 f   libucrt:pow_special.obj
 0001:000723a4       _powf_special              00000001800733a4 f   libucrt:pow_special.obj
 0001:00072530       __acrt_MultiByteToWideChar 0000000180073530 f   libucrt:multibytetowidechar.obj
 0001:0007258c       __acrt_WideCharToMultiByte 000000018007358c f   libucrt:widechartomultibyte.obj
 0001:00072624       _wcsicmp                   0000000180073624 f   libucrt:wcsicmp.obj
 0001:000726bc       _wcsicmp_l                 00000001800736bc f   libucrt:wcsicmp.obj
 0001:000727bc       __acrt_initialize_timeset  00000001800737bc f   libucrt:timeset.obj
 0001:00072800       _isleadbyte_l              0000000180073800 f i libucrt:_wctype.obj
 0001:00072da8       __acrt_expand_narrow_argv_wildcards 0000000180073da8 f   libucrt:argv_wildcards.obj
 0001:000734dc       __acrt_initialize_multibyte 00000001800744dc f   libucrt:mbctype.obj
 0001:0007353c       __acrt_update_thread_multibyte_data 000000018007453c f   libucrt:mbctype.obj
 0001:00073558       _setmbcp_nolock            0000000180074558 f   libucrt:mbctype.obj
 0001:00073810       __acrt_initialize_command_line 0000000180074810 f   libucrt:argv_data.obj
 0001:00073838       __dcrt_get_narrow_environment_from_os 0000000180074838 f   libucrt:get_environment_from_os.obj
 0001:0007393c       _recalloc                  000000018007493c f   libucrt:recalloc.obj
 0001:00073944       _recalloc_base             0000000180074944 f   libucrt:recalloc.obj
 0001:000739dc       __acrt_execute_initializers 00000001800749dc f   libucrt:shared_initialization.obj
 0001:00073a5c       __acrt_execute_uninitializers 0000000180074a5c f   libucrt:shared_initialization.obj
 0001:00073a98       __acrt_has_user_matherr    0000000180074a98 f   libucrt:matherr.obj
 0001:00073ab8       __acrt_initialize_user_matherr 0000000180074ab8 f   libucrt:matherr.obj
 0001:00073ac0       __acrt_invoke_user_matherr 0000000180074ac0 f   libucrt:matherr.obj
 0001:00073af0       ?__mbrtowc_utf8@__crt_mbstring@@YA_KPEA_WPEBD_KPEAU_Mbstatet@@@Z 0000000180074af0 f   libucrt:mbrtowc.obj
 0001:00073b2c       ?__mbsrtowcs_utf8@__crt_mbstring@@YA_KPEA_WPEAPEBD_KPEAU_Mbstatet@@@Z 0000000180074b2c f   libucrt:mbrtowc.obj
 0001:00073ca4       __acrt_add_locale_ref      0000000180074ca4 f   libucrt:locale_refcounting.obj
 0001:00073d30       __acrt_free_locale         0000000180074d30 f   libucrt:locale_refcounting.obj
 0001:00073ea8       __acrt_locale_add_lc_time_reference 0000000180074ea8 f   libucrt:locale_refcounting.obj
 0001:00073ed0       __acrt_locale_free_lc_time_if_unreferenced 0000000180074ed0 f   libucrt:locale_refcounting.obj
 0001:00073f08       __acrt_locale_release_lc_time_reference 0000000180074f08 f   libucrt:locale_refcounting.obj
 0001:00073f30       __acrt_release_locale_ref  0000000180074f30 f   libucrt:locale_refcounting.obj
 0001:00073fd8       __acrt_update_thread_locale_data 0000000180074fd8 f   libucrt:locale_refcounting.obj
 0001:00074048       _updatetlocinfoEx_nolock   0000000180075048 f   libucrt:locale_refcounting.obj
 0001:000740b0       __acrt_fp_strflt_to_string 00000001800750b0 f   libucrt:_fptostr.obj
 0001:00074194       __acrt_fltout              0000000180075194 f   libucrt:cfout.obj
 0001:000756b8       __acrt_stdio_flush_and_write_narrow_nolock 00000001800766b8 f   libucrt:_flsbuf.obj
 0001:000757a0       __acrt_stdio_flush_and_write_wide_nolock 00000001800767a0 f   libucrt:_flsbuf.obj
 0001:0007588c       _isatty                    000000018007688c f   libucrt:isatty.obj
 0001:000758ec       __acrt_locale_free_monetary 00000001800768ec f   libucrt:initmon.obj
 0001:000759f8       __acrt_locale_initialize_monetary 00000001800769f8 f   libucrt:initmon.obj
 0001:00075f2c       __acrt_locale_free_numeric 0000000180076f2c f   libucrt:initnum.obj
 0001:00075f98       __acrt_locale_initialize_numeric 0000000180076f98 f   libucrt:initnum.obj
 0001:00076614       __acrt_locale_free_time    0000000180077614 f   libucrt:inittime.obj
 0001:0007671c       __acrt_locale_initialize_time 000000018007771c f   libucrt:inittime.obj
 0001:000767b8       wcsncpy_s                  00000001800777b8 f   libucrt:wcsncpy_s.obj
 0001:000768ac       wcscspn                    00000001800778ac f   libucrt:wcscspn.obj
 0001:000768ec       wcsncmp                    00000001800778ec f   libucrt:wcsncmp.obj
 0001:00076918       wcspbrk                    0000000180077918 f   libucrt:wcspbrk.obj
 0001:000771d8       __acrt_get_qualified_locale 00000001800781d8 f   libucrt:get_qualified_locale.obj
 0001:00077c1c       __acrt_get_qualified_locale_downlevel 0000000180078c1c f   libucrt:getqloc_downlevel.obj
 0001:00077e9c       __acrt_lowio_create_handle_array 0000000180078e9c f   libucrt:osfinfo.obj
 0001:00077f34       __acrt_lowio_destroy_handle_array 0000000180078f34 f   libucrt:osfinfo.obj
 0001:00077f84       __acrt_lowio_ensure_fh_exists 0000000180078f84 f   libucrt:osfinfo.obj
 0001:0007802c       __acrt_lowio_lock_fh       000000018007902c f   libucrt:osfinfo.obj
 0001:00078050       __acrt_lowio_unlock_fh     0000000180079050 f   libucrt:osfinfo.obj
 0001:00078074       _free_osfhnd               0000000180079074 f   libucrt:osfinfo.obj
 0001:00078130       _get_osfhandle             0000000180079130 f   libucrt:osfinfo.obj
 0001:00078290       __acrt_DownlevelLCIDToLocaleName 0000000180079290 f   libucrt:lcidtoname_downlevel.obj
 0001:00078378       __acrt_DownlevelLocaleNameToLCID 0000000180079378 f   libucrt:lcidtoname_downlevel.obj
 0001:000783ac       _fclose_nolock             00000001800793ac f   libucrt:fclose.obj
 0001:00078430       fclose                     0000000180079430 f   libucrt:fclose.obj
 0001:00078620       _lseeki64                  0000000180079620 f   libucrt:lseek.obj
 0001:00078628       _lseeki64_nolock           0000000180079628 f   libucrt:lseek.obj
 0001:00078630       _putwch_nolock             0000000180079630 f   libucrt:putwch.obj
 0001:0007866c       __acrt_GetStringTypeW      000000018007966c f   libucrt:getstringtypew.obj
 0001:00078690       _get_fpsr                  0000000180079690 f   libucrt:fpsr.obj
 0001:000786a0       _set_fpsr                  00000001800796a0 f   libucrt:fpsr.obj
 0001:000786aa       _fclrf                     00000001800796aa f   libucrt:fpsr.obj
 0001:000786be       _frnd                      00000001800796be f   libucrt:fpsr.obj
 0001:000786e0       ?__wcsrtombs_utf8@__crt_mbstring@@YA_KPEADPEAPEB_W_KPEAU_Mbstatet@@@Z 00000001800796e0 f   libucrt:wcrtomb.obj
 0001:000787fc       __acrt_fenv_get_control    00000001800797fc f   libucrt:_fenvutils.obj
 0001:000788fc       __acrt_fenv_get_status     00000001800798fc f   libucrt:_fenvutils.obj
 0001:00078954       __acrt_fenv_set_control    0000000180079954 f   libucrt:_fenvutils.obj
 0001:00078a9c       __acrt_fenv_set_status     0000000180079a9c f   libucrt:_fenvutils.obj
 0001:00078b20       _towlower_l                0000000180079b20 f   libucrt:towlower.obj
 0001:00078bf0       qsort                      0000000180079bf0 f   libucrt:qsort.obj
 0001:00079040       strpbrk                    000000018007a040 f   libucrt:strpbrk.obj
 0001:00079420       ??$__acrt_convert_wcs_mbs@D_W$$A6A_KPEA_WPEBD_KPEAU__crt_locale_pointers@@@ZU__crt_win32_buffer_internal_dynamic_resizing@@@@YAHQEBDAEAV?$__crt_win32_buffer@_WU__crt_win32_buffer_internal_dynamic_resizing@@@@A6A_KPEA_WPEBD_KPEAU__crt_locale_pointers@@@Z5@Z 000000018007a420 f i libucrt:findfirstfileexa.obj
 0001:00079528       __acrt_FindFirstFileExA    000000018007a528 f   libucrt:findfirstfileexa.obj
 0001:000795cc       ??$__acrt_convert_wcs_mbs@_WD$$A6A_KPEADPEB_W_KPEAU__crt_locale_pointers@@@ZU__crt_win32_buffer_no_resizing@@@@YAHQEB_WAEAV?$__crt_win32_buffer@DU__crt_win32_buffer_no_resizing@@@@A6A_KPEADPEB_W_KPEAU__crt_locale_pointers@@@Z5@Z 000000018007a5cc f i libucrt:findnextfilea.obj
 0001:00079698       __acrt_FindNextFileA       000000018007a698 f   libucrt:findnextfilea.obj
 0001:000797cc       _mbsdec                    000000018007a7cc f   libucrt:mbsdec.obj
 0001:000797d4       _mbsdec_l                  000000018007a7d4 f   libucrt:mbsdec.obj
 0001:00079880       _msize                     000000018007a880 f   libucrt:msize.obj
 0001:00079888       _msize_base                000000018007a888 f   libucrt:msize.obj
 0001:000798c4       ?__mbrtoc32_utf8@__crt_mbstring@@YA_KPEA_UPEBD_KPEAU_Mbstatet@@@Z 000000018007a8c4 f   libucrt:mbrtoc32.obj
 0001:00079aa0       fegetenv                   000000018007aaa0 f   libucrt:fegetenv.obj
 0001:00079ac0       fesetenv                   000000018007aac0 f   libucrt:fesetenv.obj
 0001:00079b10       feholdexcept               000000018007ab10 f   libucrt:feholdexcept.obj
 0001:00079b60       log10                      000000018007ab60 f   libucrt:log10.obj
 0001:0007a10c       __acrt_stdio_allocate_buffer_nolock 000000018007b10c f   libucrt:_getbuf.obj
 0001:0007a174       _wcsnicmp                  000000018007b174 f   libucrt:wcsnicmp.obj
 0001:0007a220       _wcsnicmp_l                000000018007b220 f   libucrt:wcsnicmp.obj
 0001:0007a348       wcscmp                     000000018007b348 f   libucrt:wcscmp.obj
 0001:0007a3f4       _close                     000000018007b3f4 f   libucrt:close.obj
 0001:0007a498       _close_nolock              000000018007b498 f   libucrt:close.obj
 0001:0007a554       ?__acrt_stdio_free_stream@@YAXV__crt_stdio_stream@@@Z 000000018007b554 f   libucrt:stream.obj
 0001:0007a570       __dcrt_lowio_ensure_console_output_initialized 000000018007b570 f   libucrt:initcon.obj
 0001:0007a5c4       __dcrt_terminate_console_output 000000018007b5c4 f   libucrt:initcon.obj
 0001:0007a5e0       __dcrt_write_console       000000018007b5e0 f   libucrt:initcon.obj
 0001:0007a6a0       ?__c16rtomb_utf8@__crt_mbstring@@YA_KPEAD_SPEAU_Mbstatet@@@Z 000000018007b6a0 f   libucrt:c16rtomb.obj
 0001:0007a748       __acrt_LCMapStringW        000000018007b748 f   libucrt:lcmapstringw.obj
 0001:0007a7d0       _clearfp                   000000018007b7d0 f   libucrt:ieee.obj
 0001:0007a840       _log10_special             000000018007b840 f   libucrt:log_special.obj
 0001:0007a8f8       ?__c32rtomb_utf8@__crt_mbstring@@YA_KPEAD_UPEAU_Mbstatet@@@Z 000000018007b8f8 f   libucrt:c32rtomb.obj
 0001:0007a9b0       c32rtomb                   000000018007b9b0 f   libucrt:c32rtomb.obj
 0001:0007a9b6       IsProcessorFeaturePresent  000000018007b9b6 f   kernel32:KERNEL32.dll
 0001:0007a9bc       RtlUnwindEx                000000018007b9bc f   kernel32:KERNEL32.dll
 0001:0007a9d0       _FindPESection             000000018007b9d0 f   LIBCMT:pesect.obj
 0001:0007aa20       _IsNonwritableInCurrentImage 000000018007ba20 f   LIBCMT:pesect.obj
 0001:0007aa70       _ValidateImageBase         000000018007ba70 f   LIBCMT:pesect.obj
 0001:0007aaa0       wcschr                     000000018007baa0 f   libvcruntime:wcschr.obj
 0001:0007ab50       _guard_dispatch_icall_nop  000000018007bb50 f   LIBCMT:_guard_dispatch_.obj
 0001:0007dc90       ??__F_Static@?1???$_Immortalize@V_Iostream_error_category@std@@@std@@YAAEAV_Iostream_error_category@0@XZ@YAXXZ 000000018007ec90 f i libzmq:tcp_address.obj
 0002:00000000       __imp_CryptAcquireContextW 000000018007f000     advapi32:ADVAPI32.dll
 0002:00000008       __imp_SetSecurityDescriptorDacl 000000018007f008     advapi32:ADVAPI32.dll
 0002:00000010       __imp_InitializeSecurityDescriptor 000000018007f010     advapi32:ADVAPI32.dll
 0002:00000018       __imp_CryptGenRandom       000000018007f018     advapi32:ADVAPI32.dll
 0002:00000020       __imp_CryptReleaseContext  000000018007f020     advapi32:ADVAPI32.dll
 0002:00000028       \177ADVAPI32_NULL_THUNK_DATA 000000018007f028     advapi32:ADVAPI32.dll
 0002:00000030       __imp_if_nametoindex       000000018007f030     iphlpapi:IPHLPAPI.DLL
 0002:00000038       __imp_if_indextoname       000000018007f038     iphlpapi:IPHLPAPI.DLL
 0002:00000040       __imp_GetAdaptersAddresses 000000018007f040     iphlpapi:IPHLPAPI.DLL
 0002:00000048       \177IPHLPAPI_NULL_THUNK_DATA 000000018007f048     iphlpapi:IPHLPAPI.DLL
 0002:00000050       __imp_SetStdHandle         000000018007f050     kernel32:KERNEL32.dll
 0002:00000058       __imp_FreeEnvironmentStringsW 000000018007f058     kernel32:KERNEL32.dll
 0002:00000060       __imp_GetEnvironmentStringsW 000000018007f060     kernel32:KERNEL32.dll
 0002:00000068       __imp_GetCommandLineW      000000018007f068     kernel32:KERNEL32.dll
 0002:00000070       __imp_GetCommandLineA      000000018007f070     kernel32:KERNEL32.dll
 0002:00000078       __imp_GetOEMCP             000000018007f078     kernel32:KERNEL32.dll
 0002:00000080       __imp_GetACP               000000018007f080     kernel32:KERNEL32.dll
 0002:00000088       __imp_IsValidCodePage      000000018007f088     kernel32:KERNEL32.dll
 0002:00000090       __imp_FindNextFileW        000000018007f090     kernel32:KERNEL32.dll
 0002:00000098       __imp_FindFirstFileExW     000000018007f098     kernel32:KERNEL32.dll
 0002:000000a0       __imp_FindClose            000000018007f0a0     kernel32:KERNEL32.dll
 0002:000000a8       __imp_GetProcessHeap       000000018007f0a8     kernel32:KERNEL32.dll
 0002:000000b0       __imp_GetConsoleMode       000000018007f0b0     kernel32:KERNEL32.dll
 0002:000000b8       __imp_GetConsoleCP         000000018007f0b8     kernel32:KERNEL32.dll
 0002:000000c0       __imp_FlushFileBuffers     000000018007f0c0     kernel32:KERNEL32.dll
 0002:000000c8       __imp_EnumSystemLocalesW   000000018007f0c8     kernel32:KERNEL32.dll
 0002:000000d0       __imp_GetUserDefaultLCID   000000018007f0d0     kernel32:KERNEL32.dll
 0002:000000d8       __imp_IsValidLocale        000000018007f0d8     kernel32:KERNEL32.dll
 0002:000000e0       __imp_OutputDebugStringW   000000018007f0e0     kernel32:KERNEL32.dll
 0002:000000e8       __imp_WriteFile            000000018007f0e8     kernel32:KERNEL32.dll
 0002:000000f0       __imp_ExitProcess          000000018007f0f0     kernel32:KERNEL32.dll
 0002:000000f8       __imp_HeapReAlloc          000000018007f0f8     kernel32:KERNEL32.dll
 0002:00000100       __imp_HeapFree             000000018007f100     kernel32:KERNEL32.dll
 0002:00000108       __imp_HeapAlloc            000000018007f108     kernel32:KERNEL32.dll
 0002:00000110       __imp_FreeLibraryAndExitThread 000000018007f110     kernel32:KERNEL32.dll
 0002:00000118       __imp_ExitThread           000000018007f118     kernel32:KERNEL32.dll
 0002:00000120       __imp_CreateThread         000000018007f120     kernel32:KERNEL32.dll
 0002:00000128       __imp_WriteConsoleW        000000018007f128     kernel32:KERNEL32.dll
 0002:00000130       __imp_GetModuleHandleExW   000000018007f130     kernel32:KERNEL32.dll
 0002:00000138       __imp_GetModuleFileNameW   000000018007f138     kernel32:KERNEL32.dll
 0002:00000140       __imp_GetFileType          000000018007f140     kernel32:KERNEL32.dll
 0002:00000148       __imp_GetStdHandle         000000018007f148     kernel32:KERNEL32.dll
 0002:00000150       __imp_InterlockedFlushSList 000000018007f150     kernel32:KERNEL32.dll
 0002:00000158       __imp_LoadLibraryExW       000000018007f158     kernel32:KERNEL32.dll
 0002:00000160       __imp_RtlUnwindEx          000000018007f160     kernel32:KERNEL32.dll
 0002:00000168       __imp_RtlPcToFileHeader    000000018007f168     kernel32:KERNEL32.dll
 0002:00000170       __imp_InitializeSListHead  000000018007f170     kernel32:KERNEL32.dll
 0002:00000178       __imp_GetCurrentThreadId   000000018007f178     kernel32:KERNEL32.dll
 0002:00000180       __imp_GetStartupInfoW      000000018007f180     kernel32:KERNEL32.dll
 0002:00000188       __imp_SetFilePointerEx     000000018007f188     kernel32:KERNEL32.dll
 0002:00000190       __imp_WaitForSingleObjectEx 000000018007f190     kernel32:KERNEL32.dll
 0002:00000198       __imp_ResetEvent           000000018007f198     kernel32:KERNEL32.dll
 0002:000001a0       __imp_SetEvent             000000018007f1a0     kernel32:KERNEL32.dll
 0002:000001a8       __imp_IsProcessorFeaturePresent 000000018007f1a8     kernel32:KERNEL32.dll
 0002:000001b0       __imp_TerminateProcess     000000018007f1b0     kernel32:KERNEL32.dll
 0002:000001b8       __imp_GetCurrentProcess    000000018007f1b8     kernel32:KERNEL32.dll
 0002:000001c0       __imp_SetUnhandledExceptionFilter 000000018007f1c0     kernel32:KERNEL32.dll
 0002:000001c8       __imp_UnhandledExceptionFilter 000000018007f1c8     kernel32:KERNEL32.dll
 0002:000001d0       __imp_RtlVirtualUnwind     000000018007f1d0     kernel32:KERNEL32.dll
 0002:000001d8       __imp_RtlLookupFunctionEntry 000000018007f1d8     kernel32:KERNEL32.dll
 0002:000001e0       __imp_RtlCaptureContext    000000018007f1e0     kernel32:KERNEL32.dll
 0002:000001e8       __imp_GetCPInfo            000000018007f1e8     kernel32:KERNEL32.dll
 0002:000001f0       __imp_GetStringTypeW       000000018007f1f0     kernel32:KERNEL32.dll
 0002:000001f8       __imp_GetLocaleInfoW       000000018007f1f8     kernel32:KERNEL32.dll
 0002:00000200       __imp_LCMapStringW         000000018007f200     kernel32:KERNEL32.dll
 0002:00000208       __imp_GetModuleHandleW     000000018007f208     kernel32:KERNEL32.dll
 0002:00000210       __imp_GetSystemTimeAsFileTime 000000018007f210     kernel32:KERNEL32.dll
 0002:00000218       __imp_TlsFree              000000018007f218     kernel32:KERNEL32.dll
 0002:00000220       __imp_TlsSetValue          000000018007f220     kernel32:KERNEL32.dll
 0002:00000228       __imp_TlsGetValue          000000018007f228     kernel32:KERNEL32.dll
 0002:00000230       __imp_TlsAlloc             000000018007f230     kernel32:KERNEL32.dll
 0002:00000238       __imp_CreateEventW         000000018007f238     kernel32:KERNEL32.dll
 0002:00000240       __imp_InitializeCriticalSectionAndSpinCount 000000018007f240     kernel32:KERNEL32.dll
 0002:00000248       __imp_SetLastError         000000018007f248     kernel32:KERNEL32.dll
 0002:00000250       __imp_DecodePointer        000000018007f250     kernel32:KERNEL32.dll
 0002:00000258       __imp_EncodePointer        000000018007f258     kernel32:KERNEL32.dll
 0002:00000260       __imp_MultiByteToWideChar  000000018007f260     kernel32:KERNEL32.dll
 0002:00000268       __imp_GetCurrentProcessId  000000018007f268     kernel32:KERNEL32.dll
 0002:00000270       __imp_SleepConditionVariableCS 000000018007f270     kernel32:KERNEL32.dll
 0002:00000278       __imp_WakeAllConditionVariable 000000018007f278     kernel32:KERNEL32.dll
 0002:00000280       __imp_InitializeConditionVariable 000000018007f280     kernel32:KERNEL32.dll
 0002:00000288       __imp_SetHandleInformation 000000018007f288     kernel32:KERNEL32.dll
 0002:00000290       __imp_TryEnterCriticalSection 000000018007f290     kernel32:KERNEL32.dll
 0002:00000298       __imp_WideCharToMultiByte  000000018007f298     kernel32:KERNEL32.dll
 0002:000002a0       __imp_WaitForSingleObject  000000018007f2a0     kernel32:KERNEL32.dll
 0002:000002a8       __imp_CloseHandle          000000018007f2a8     kernel32:KERNEL32.dll
 0002:000002b0       __imp_LoadLibraryA         000000018007f2b0     kernel32:KERNEL32.dll
 0002:000002b8       __imp_GetProcAddress       000000018007f2b8     kernel32:KERNEL32.dll
 0002:000002c0       __imp_FreeLibrary          000000018007f2c0     kernel32:KERNEL32.dll
 0002:000002c8       __imp_GetTickCount         000000018007f2c8     kernel32:KERNEL32.dll
 0002:000002d0       __imp_QueryPerformanceCounter 000000018007f2d0     kernel32:KERNEL32.dll
 0002:000002d8       __imp_DeleteCriticalSection 000000018007f2d8     kernel32:KERNEL32.dll
 0002:000002e0       __imp_LeaveCriticalSection 000000018007f2e0     kernel32:KERNEL32.dll
 0002:000002e8       __imp_EnterCriticalSection 000000018007f2e8     kernel32:KERNEL32.dll
 0002:000002f0       __imp_InitializeCriticalSection 000000018007f2f0     kernel32:KERNEL32.dll
 0002:000002f8       __imp_FormatMessageA       000000018007f2f8     kernel32:KERNEL32.dll
 0002:00000300       __imp_GetLastError         000000018007f300     kernel32:KERNEL32.dll
 0002:00000308       __imp_RaiseException       000000018007f308     kernel32:KERNEL32.dll
 0002:00000310       __imp_Sleep                000000018007f310     kernel32:KERNEL32.dll
 0002:00000318       __imp_HeapSize             000000018007f318     kernel32:KERNEL32.dll
 0002:00000320       __imp_CreateFileW          000000018007f320     kernel32:KERNEL32.dll
 0002:00000328       __imp_IsDebuggerPresent    000000018007f328     kernel32:KERNEL32.dll
 0002:00000330       \177KERNEL32_NULL_THUNK_DATA 000000018007f330     kernel32:KERNEL32.dll
 0002:00000338       __imp_bind                 000000018007f338     ws2_32:WS2_32.dll
 0002:00000340       __imp_closesocket          000000018007f340     ws2_32:WS2_32.dll
 0002:00000348       __imp_connect              000000018007f348     ws2_32:WS2_32.dll
 0002:00000350       __imp_listen               000000018007f350     ws2_32:WS2_32.dll
 0002:00000358       __imp_recv                 000000018007f358     ws2_32:WS2_32.dll
 0002:00000360       __imp_send                 000000018007f360     ws2_32:WS2_32.dll
 0002:00000368       __imp_setsockopt           000000018007f368     ws2_32:WS2_32.dll
 0002:00000370       __imp_accept               000000018007f370     ws2_32:WS2_32.dll
 0002:00000378       __imp_ioctlsocket          000000018007f378     ws2_32:WS2_32.dll
 0002:00000380       __imp_getpeername          000000018007f380     ws2_32:WS2_32.dll
 0002:00000388       __imp_socket               000000018007f388     ws2_32:WS2_32.dll
 0002:00000390       __imp_WSAIoctl             000000018007f390     ws2_32:WS2_32.dll
 0002:00000398       __imp_inet_ntoa            000000018007f398     ws2_32:WS2_32.dll
 0002:000003a0       __imp_recvfrom             000000018007f3a0     ws2_32:WS2_32.dll
 0002:000003a8       __imp_sendto               000000018007f3a8     ws2_32:WS2_32.dll
 0002:000003b0       __imp_WSAWaitForMultipleEvents 000000018007f3b0     ws2_32:WS2_32.dll
 0002:000003b8       __imp_WSAEventSelect       000000018007f3b8     ws2_32:WS2_32.dll
 0002:000003c0       __imp_WSACreateEvent       000000018007f3c0     ws2_32:WS2_32.dll
 0002:000003c8       __imp_WSACloseEvent        000000018007f3c8     ws2_32:WS2_32.dll
 0002:000003d0       __imp_getsockopt           000000018007f3d0     ws2_32:WS2_32.dll
 0002:000003d8       __imp_getsockname          000000018007f3d8     ws2_32:WS2_32.dll
 0002:000003e0       __imp_getnameinfo          000000018007f3e0     ws2_32:WS2_32.dll
 0002:000003e8       __imp_freeaddrinfo         000000018007f3e8     ws2_32:WS2_32.dll
 0002:000003f0       __imp_getaddrinfo          000000018007f3f0     ws2_32:WS2_32.dll
 0002:000003f8       __imp_ntohs                000000018007f3f8     ws2_32:WS2_32.dll
 0002:00000400       __imp_htons                000000018007f400     ws2_32:WS2_32.dll
 0002:00000408       __imp_htonl                000000018007f408     ws2_32:WS2_32.dll
 0002:00000410       __imp_select               000000018007f410     ws2_32:WS2_32.dll
 0002:00000418       __imp___WSAFDIsSet         000000018007f418     ws2_32:WS2_32.dll
 0002:00000420       __imp_WSAGetLastError      000000018007f420     ws2_32:WS2_32.dll
 0002:00000428       __imp_WSACleanup           000000018007f428     ws2_32:WS2_32.dll
 0002:00000430       __imp_WSAStartup           000000018007f430     ws2_32:WS2_32.dll
 0002:00000438       __imp_inet_addr            000000018007f438     ws2_32:WS2_32.dll
 0002:00000440       \177WS2_32_NULL_THUNK_DATA 000000018007f440     ws2_32:WS2_32.dll
 0002:00000448       __imp_?ToString@Value@v8@@QEBA?AV?$Local@VString@v8@@@2@XZ 000000018007f448     iojs:node.dll
 0002:00000450       __imp_uv_default_loop      000000018007f450     iojs:node.dll
 0002:00000458       __imp_uv_poll_start        000000018007f458     iojs:node.dll
 0002:00000460       __imp_uv_ref               000000018007f460     iojs:node.dll
 0002:00000468       __imp_uv_poll_init_socket  000000018007f468     iojs:node.dll
 0002:00000470       __imp_uv_timer_start       000000018007f470     iojs:node.dll
 0002:00000478       __imp_uv_timer_stop        000000018007f478     iojs:node.dll
 0002:00000480       __imp_uv_timer_init        000000018007f480     iojs:node.dll
 0002:00000488       __imp_?EmitAsyncInit@node@@YA?AUasync_context@1@PEAVIsolate@v8@@V?$Local@VObject@v8@@@4@V?$Local@VString@v8@@@4@N@Z 000000018007f488     iojs:node.dll
 0002:00000490       __imp_?MakeCallback@node@@YA?AV?$MaybeLocal@VValue@v8@@@v8@@PEAVIsolate@3@V?$Local@VObject@v8@@@3@V?$Local@VFunction@v8@@@3@HPEAV?$Local@VValue@v8@@@3@Uasync_context@1@@Z 000000018007f490     iojs:node.dll
 0002:00000498       __imp_?Length@Buffer@node@@YA_KV?$Local@VObject@v8@@@v8@@@Z 000000018007f498     iojs:node.dll
 0002:000004a0       __imp_?Data@Buffer@node@@YAPEADV?$Local@VObject@v8@@@v8@@@Z 000000018007f4a0     iojs:node.dll
 0002:000004a8       __imp_?New@Buffer@node@@YA?AV?$MaybeLocal@VObject@v8@@@v8@@PEAVIsolate@4@PEAD_KP6AX1PEAX@Z3@Z 000000018007f4a8     iojs:node.dll
 0002:000004b0       __imp_?HasInstance@Buffer@node@@YA_NV?$Local@VValue@v8@@@v8@@@Z 000000018007f4b0     iojs:node.dll
 0002:000004b8       __imp_node_module_register 000000018007f4b8     iojs:node.dll
 0002:000004c0       __imp_?EmitAsyncDestroy@node@@YAXPEAVIsolate@v8@@Uasync_context@1@@Z 000000018007f4c0     iojs:node.dll
 0002:000004c8       __imp_uv_poll_stop         000000018007f4c8     iojs:node.dll
 0002:000004d0       __imp_?New@ObjectTemplate@v8@@SA?AV?$Local@VObjectTemplate@v8@@@2@PEAVIsolate@2@V?$Local@VFunctionTemplate@v8@@@2@@Z 000000018007f4d0     iojs:node.dll
 0002:000004d8       __imp_?NewInstance@ObjectTemplate@v8@@QEAA?AV?$MaybeLocal@VObject@v8@@@2@V?$Local@VContext@v8@@@2@@Z 000000018007f4d8     iojs:node.dll
 0002:000004e0       __imp_?SetAccessor@ObjectTemplate@v8@@QEAAXV?$Local@VName@v8@@@2@P6AX0AEBV?$PropertyCallbackInfo@VValue@v8@@@2@@ZP6AX0V?$Local@VValue@v8@@@2@AEBV?$PropertyCallbackInfo@X@2@@Z3W4AccessControl@2@W4PropertyAttribute@2@V?$Local@VAccessorSignature@v8@@@2@@Z 000000018007f4e0     iojs:node.dll
 0002:000004e8       __imp_?SetInternalFieldCount@ObjectTemplate@v8@@QEAAXH@Z 000000018007f4e8     iojs:node.dll
 0002:000004f0       __imp_?Set@Object@v8@@QEAA?AV?$Maybe@_N@2@V?$Local@VContext@v8@@@2@IV?$Local@VValue@v8@@@2@@Z 000000018007f4f0     iojs:node.dll
 0002:000004f8       __imp_?Set@Object@v8@@QEAA?AV?$Maybe@_N@2@V?$Local@VContext@v8@@@2@V?$Local@VValue@v8@@@2@1@Z 000000018007f4f8     iojs:node.dll
 0002:00000500       __imp_?Set@Object@v8@@QEAA_NV?$Local@VValue@v8@@@2@0@Z 000000018007f500     iojs:node.dll
 0002:00000508       __imp_?DefineOwnProperty@Object@v8@@QEAA?AV?$Maybe@_N@2@V?$Local@VContext@v8@@@2@V?$Local@VName@v8@@@2@V?$Local@VValue@v8@@@2@W4PropertyAttribute@2@@Z 000000018007f508     iojs:node.dll
 0002:00000510       __imp_?Get@Object@v8@@QEAA?AV?$Local@VValue@v8@@@2@I@Z 000000018007f510     iojs:node.dll
 0002:00000518       __imp_?Get@Object@v8@@QEAA?AV?$MaybeLocal@VValue@v8@@@2@V?$Local@VContext@v8@@@2@V?$Local@VValue@v8@@@2@@Z 000000018007f518     iojs:node.dll
 0002:00000520       __imp_?InternalFieldCount@Object@v8@@QEAAHXZ 000000018007f520     iojs:node.dll
 0002:00000528       __imp_?SetInternalField@Object@v8@@QEAAXHV?$Local@VValue@v8@@@2@@Z 000000018007f528     iojs:node.dll
 0002:00000530       __imp_?SetAlignedPointerInInternalField@Object@v8@@QEAAXHPEAX@Z 000000018007f530     iojs:node.dll
 0002:00000538       __imp_?GetIsolate@Object@v8@@QEAAPEAVIsolate@2@XZ 000000018007f538     iojs:node.dll
 0002:00000540       __imp_?New@Object@v8@@SA?AV?$Local@VObject@v8@@@2@PEAVIsolate@2@@Z 000000018007f540     iojs:node.dll
 0002:00000548       __imp_?SlowGetInternalField@Object@v8@@AEAA?AV?$Local@VValue@v8@@@2@H@Z 000000018007f548     iojs:node.dll
 0002:00000550       __imp_?SlowGetAlignedPointerFromInternalField@Object@v8@@AEAAPEAXH@Z 000000018007f550     iojs:node.dll
 0002:00000558       __imp_?New@Number@v8@@SA?AV?$Local@VNumber@v8@@@2@PEAVIsolate@2@N@Z 000000018007f558     iojs:node.dll
 0002:00000560       __imp_?Length@String@v8@@QEBAHXZ 000000018007f560     iojs:node.dll
 0002:00000568       __imp_?WriteUtf8@String@v8@@QEBAHPEADHPEAHH@Z 000000018007f568     iojs:node.dll
 0002:00000570       __imp_?NewFromUtf8@String@v8@@SA?AV?$MaybeLocal@VString@v8@@@2@PEAVIsolate@2@PEBDW4NewStringType@2@H@Z 000000018007f570     iojs:node.dll
 0002:00000578       __imp_?NewFromUtf8@String@v8@@SA?AV?$Local@VString@v8@@@2@PEAVIsolate@2@PEBDW4NewStringType@12@H@Z 000000018007f578     iojs:node.dll
 0002:00000580       __imp_??0EscapableHandleScope@v8@@QEAA@PEAVIsolate@1@@Z 000000018007f580     iojs:node.dll
 0002:00000588       __imp_?Escape@EscapableHandleScope@v8@@AEAAPEAPEAVObject@internal@2@PEAPEAV342@@Z 000000018007f588     iojs:node.dll
 0002:00000590       __imp_?IsFunction@Value@v8@@QEBA_NXZ 000000018007f590     iojs:node.dll
 0002:00000598       __imp_?IsBoolean@Value@v8@@QEBA_NXZ 000000018007f598     iojs:node.dll
 0002:000005a0       __imp_?IsNumber@Value@v8@@QEBA_NXZ 000000018007f5a0     iojs:node.dll
 0002:000005a8       __imp_?ToInteger@Value@v8@@QEBA?AV?$MaybeLocal@VInteger@v8@@@2@V?$Local@VContext@v8@@@2@@Z 000000018007f5a8     iojs:node.dll
 0002:000005b0       __imp_?BooleanValue@Value@v8@@QEBA?AV?$Maybe@_N@2@V?$Local@VContext@v8@@@2@@Z 000000018007f5b0     iojs:node.dll
 0002:000005b8       __imp_?IntegerValue@Value@v8@@QEBA?AV?$Maybe@_J@2@V?$Local@VContext@v8@@@2@@Z 000000018007f5b8     iojs:node.dll
 0002:000005c0       __imp_?Uint32Value@Value@v8@@QEBA?AV?$Maybe@I@2@V?$Local@VContext@v8@@@2@@Z 000000018007f5c0     iojs:node.dll
 0002:000005c8       __imp_?Int32Value@Value@v8@@QEBA?AV?$Maybe@H@2@V?$Local@VContext@v8@@@2@@Z 000000018007f5c8     iojs:node.dll
 0002:000005d0       __imp_?GlobalizeReference@V8@v8@@CAPEAPEAVObject@internal@2@PEAVIsolate@42@PEAPEAV342@@Z 000000018007f5d0     iojs:node.dll
 0002:000005d8       __imp_?DisposeGlobal@V8@v8@@CAXPEAPEAVObject@internal@2@@Z 000000018007f5d8     iojs:node.dll
 0002:000005e0       __imp_?MakeWeak@V8@v8@@CAXPEAPEAVObject@internal@2@PEAXP6AXAEBV?$WeakCallbackInfo@X@2@@ZW4WeakCallbackType@2@@Z 000000018007f5e0     iojs:node.dll
 0002:000005e8       __imp_?ClearWeak@V8@v8@@CAPEAXPEAPEAVObject@internal@2@@Z 000000018007f5e8     iojs:node.dll
 0002:000005f0       __imp_?FromJustIsNothing@V8@v8@@CAXXZ 000000018007f5f0     iojs:node.dll
 0002:000005f8       __imp_?ToLocalEmpty@V8@v8@@CAXXZ 000000018007f5f8     iojs:node.dll
 0002:00000600       __imp_?New@FunctionTemplate@v8@@SA?AV?$Local@VFunctionTemplate@v8@@@2@PEAVIsolate@2@P6AXAEBV?$FunctionCallbackInfo@VValue@v8@@@2@@ZV?$Local@VValue@v8@@@2@V?$Local@VSignature@v8@@@2@HW4ConstructorBehavior@2@@Z 000000018007f600     iojs:node.dll
 0002:00000608       __imp_?GetFunction@FunctionTemplate@v8@@QEAA?AV?$MaybeLocal@VFunction@v8@@@2@V?$Local@VContext@v8@@@2@@Z 000000018007f608     iojs:node.dll
 0002:00000610       __imp_?InstanceTemplate@FunctionTemplate@v8@@QEAA?AV?$Local@VObjectTemplate@v8@@@2@XZ 000000018007f610     iojs:node.dll
 0002:00000618       __imp_?PrototypeTemplate@FunctionTemplate@v8@@QEAA?AV?$Local@VObjectTemplate@v8@@@2@XZ 000000018007f618     iojs:node.dll
 0002:00000620       __imp_?SetClassName@FunctionTemplate@v8@@QEAAXV?$Local@VString@v8@@@2@@Z 000000018007f620     iojs:node.dll
 0002:00000628       __imp_?Length@Array@v8@@QEBAIXZ 000000018007f628     iojs:node.dll
 0002:00000630       __imp_?New@Array@v8@@SA?AV?$Local@VArray@v8@@@2@PEAVIsolate@2@H@Z 000000018007f630     iojs:node.dll
 0002:00000638       __imp_?RangeError@Exception@v8@@SA?AV?$Local@VValue@v8@@@2@V?$Local@VString@v8@@@2@@Z 000000018007f638     iojs:node.dll
 0002:00000640       __imp_?TypeError@Exception@v8@@SA?AV?$Local@VValue@v8@@@2@V?$Local@VString@v8@@@2@@Z 000000018007f640     iojs:node.dll
 0002:00000648       __imp_?Error@Exception@v8@@SA?AV?$Local@VValue@v8@@@2@V?$Local@VString@v8@@@2@@Z 000000018007f648     iojs:node.dll
 0002:00000650       __imp_?Set@Template@v8@@QEAAXV?$Local@VName@v8@@@2@V?$Local@VData@v8@@@2@W4PropertyAttribute@2@@Z 000000018007f650     iojs:node.dll
 0002:00000658       __imp_??0HandleScope@v8@@QEAA@PEAVIsolate@1@@Z 000000018007f658     iojs:node.dll
 0002:00000660       __imp_??1HandleScope@v8@@QEAA@XZ 000000018007f660     iojs:node.dll
 0002:00000668       __imp_?CreateHandle@HandleScope@v8@@CAPEAPEAVObject@internal@2@PEAVHeapObject@42@PEAV342@@Z 000000018007f668     iojs:node.dll
 0002:00000670       __imp_?CreateHandle@HandleScope@v8@@KAPEAPEAVObject@internal@2@PEAVIsolate@42@PEAV342@@Z 000000018007f670     iojs:node.dll
 0002:00000678       __imp_?GetCurrent@Isolate@v8@@SAPEAV12@XZ 000000018007f678     iojs:node.dll
 0002:00000680       __imp_?GetCurrentContext@Isolate@v8@@QEAA?AV?$Local@VContext@v8@@@2@XZ 000000018007f680     iojs:node.dll
 0002:00000688       __imp_?ThrowException@Isolate@v8@@QEAA?AV?$Local@VValue@v8@@@2@V32@@Z 000000018007f688     iojs:node.dll
 0002:00000690       __imp_?New@Signature@v8@@SA?AV?$Local@VSignature@v8@@@2@PEAVIsolate@2@V?$Local@VFunctionTemplate@v8@@@2@@Z 000000018007f690     iojs:node.dll
 0002:00000698       __imp_?New@Integer@v8@@SA?AV?$Local@VInteger@v8@@@2@PEAVIsolate@2@H@Z 000000018007f698     iojs:node.dll
 0002:000006a0       __imp_?New@External@v8@@SA?AV?$Local@VExternal@v8@@@2@PEAVIsolate@2@PEAX@Z 000000018007f6a0     iojs:node.dll
 0002:000006a8       __imp_?Value@External@v8@@QEBAPEAXXZ 000000018007f6a8     iojs:node.dll
 0002:000006b0       __imp_?Global@Context@v8@@QEAA?AV?$Local@VObject@v8@@@2@XZ 000000018007f6b0     iojs:node.dll
 0002:000006b8       __imp_uv_queue_work        000000018007f6b8     iojs:node.dll
 0002:000006c0       __imp_uv_unref             000000018007f6c0     iojs:node.dll
 0002:000006c8       __imp_uv_close             000000018007f6c8     iojs:node.dll
 0002:000006d0       \177node_NULL_THUNK_DATA   000000018007f6d0     iojs:node.dll
 0002:000006d8       __guard_check_icall_fptr   000000018007f6d8     LIBCMT:guard_support.obj
 0002:000006e0       __guard_dispatch_icall_fptr 000000018007f6e0     LIBCMT:guard_support.obj
 0002:000006e8       __xc_a                     000000018007f6e8     LIBCMT:initializers.obj
 0002:00000778       _register_zmq_             000000018007f778     binding.obj
 0002:00000780       __xc_z                     000000018007f780     LIBCMT:initializers.obj
 0002:00000788       __xi_a                     000000018007f788     LIBCMT:initializers.obj
 0002:000007a0       __acrt_stdio_initializer   000000018007f7a0     libucrt:stdio_initializer.obj
 0002:000007a8       __acrt_tran_fma3_initializer 000000018007f7a8     libucrt:fma3_initializer.obj
 0002:000007b0       __acrt_timeset_initializer 000000018007f7b0     libucrt:timeset_initializer.obj
 0002:000007b8       __acrt_multibyte_initializer 000000018007f7b8     libucrt:multibyte_initializer.obj
 0002:000007c0       __xi_z                     000000018007f7c0     LIBCMT:initializers.obj
 0002:000007c8       __xl_a                     000000018007f7c8     LIBCMT:tlssup.obj
 0002:000007d0       __xl_z                     000000018007f7d0     LIBCMT:tlssup.obj
 0002:000007d8       __xp_a                     000000018007f7d8     LIBCMT:initializers.obj
 0002:000007e0       __acrt_locale_terminator   000000018007f7e0     libucrt:locale_initializer.obj
 0002:000007e8       __dcrt_console_output_terminator 000000018007f7e8     libucrt:console_output_initializer.obj
 0002:000007f0       __acrt_stdio_terminator    000000018007f7f0     libucrt:stdio_initializer.obj
 0002:000007f8       __xp_z                     000000018007f7f8     LIBCMT:initializers.obj
 0002:00000800       __xt_a                     000000018007f800     LIBCMT:initializers.obj
 0002:00000808       __xt_z                     000000018007f808     LIBCMT:initializers.obj
 0002:00000860       ??_C@_0BA@JFNIOLAK@string?5too?5long?$AA@ 000000018007f860     libzmq:zmq.obj
 0002:00000870       ??_C@_0BI@CFPLBAOH@invalid?5string?5position?$AA@ 000000018007f870     libzmq:zmq.obj
 0002:00000888       ??_C@_0BI@IEHEFMBI@?4?4?2?4?4?2?4?4?2?4?4?2src?2zmq?4cpp?$AA@ 000000018007f888     libzmq:zmq.obj
 0002:000008a0       ??_C@_07HFKBMJGN@rc?5?$DN?$DN?50?$AA@ 000000018007f8a0     libzmq:zmq.obj
 0002:000008a8       ??_C@_0BO@DEGLPKDD@Assertion?5failed?3?5?$CFs?5?$CI?$CFs?3?$CFd?$CJ?6?$AA@ 000000018007f8a8     libzmq:zmq.obj
 0002:000008d0       ??_C@_0ED@KEPBCGIK@LOBYTE?5?$CIwsa_data?4wVersion?$CJ?5?$DN?$DN?52?5@ 000000018007f8d0     libzmq:zmq.obj
 0002:00000918       ??_C@_0CE@EBAADHDC@FATAL?5ERROR?3?5OUT?5OF?5MEMORY?5?$CI?$CFs?3?$CF@ 000000018007f918     libzmq:zmq.obj
 0002:00000940       ??_C@_0BL@GFDHKPDM@FATAL?5ERROR?3?5OUT?5OF?5MEMORY?$AA@ 000000018007f940     libzmq:zmq.obj
 0002:00000960       ??_C@_0M@KMONFFGL@?$CFs?5?$CI?$CFs?3?$CFd?$CJ?6?$AA@ 000000018007f960     libzmq:zmq.obj
 0002:0000096c       ??_C@_04FNDLFGDN@__fd?$AA@ 000000018007f96c     libzmq:zmq.obj
 0002:00000978       ??_C@_0P@INGLHKOI@events?5?$CB?$DN?5NULL?$AA@ 000000018007f978     libzmq:zmq.obj
 0002:00000988       ??_C@_0O@BKCHHJEH@Not?5supported?$AA@ 000000018007f988     libzmq:err.obj
 0002:00000998       ??_C@_0BH@JNBKLLAJ@Protocol?5not?5supported?$AA@ 000000018007f998     libzmq:err.obj
 0002:000009b0       ??_C@_0BK@OCAHGMEA@No?5buffer?5space?5available?$AA@ 000000018007f9b0     libzmq:err.obj
 0002:000009d0       ??_C@_0BA@LPIEBGEK@Network?5is?5down?$AA@ 000000018007f9d0     libzmq:err.obj
 0002:000009e0       ??_C@_0P@DLAODLOG@Address?5in?5use?$AA@ 000000018007f9e0     libzmq:err.obj
 0002:000009f0       ??_C@_0BG@LPGNEDFC@Address?5not?5available?$AA@ 000000018007f9f0     libzmq:err.obj
 0002:00000a08       ??_C@_0BD@NPDMPPFP@Connection?5refused?$AA@ 000000018007fa08     libzmq:err.obj
 0002:00000a20       ??_C@_0BG@CLDIHNON@Operation?5in?5progress?$AA@ 000000018007fa20     libzmq:err.obj
 0002:00000a38       ??_C@_0DC@DLPMJLMC@Operation?5cannot?5be?5accomplished@ 000000018007fa38     libzmq:err.obj
 0002:00000a70       ??_C@_0DE@KMJDHMBM@The?5protocol?5is?5not?5compatible?5w@ 000000018007fa70     libzmq:err.obj
 0002:00000aa8       ??_C@_0BH@IGBCFAGM@Context?5was?5terminated?$AA@ 000000018007faa8     libzmq:err.obj
 0002:00000ac0       ??_C@_0BE@IAGHOOEH@No?5thread?5available?$AA@ 000000018007fac0     libzmq:err.obj
 0002:00000ad8       ??_C@_0BB@BJPAGEMG@Host?5unreachable?$AA@ 000000018007fad8     libzmq:err.obj
 0002:00000af0       ??_C@_08IKODGPEB@No?5Error?$AA@ 000000018007faf0     libzmq:err.obj
 0002:00000b00       ??_C@_0BI@EAGLFFDI@Interrupted?5system?5call?$AA@ 000000018007fb00     libzmq:err.obj
 0002:00000b18       ??_C@_0BA@IMABKEOI@Bad?5file?5number?$AA@ 000000018007fb18     libzmq:err.obj
 0002:00000b28       ??_C@_0BC@HFNFNKAI@Permission?5denied?$AA@ 000000018007fb28     libzmq:err.obj
 0002:00000b40       ??_C@_0M@LOEHLCJD@Bad?5address?$AA@ 000000018007fb40     libzmq:err.obj
 0002:00000b50       ??_C@_0BB@HMGGCEBG@Invalid?5argument?$AA@ 000000018007fb50     libzmq:err.obj
 0002:00000b68       ??_C@_0BE@INBJMKGG@Too?5many?5open?5files?$AA@ 000000018007fb68     libzmq:err.obj
 0002:00000b80       ??_C@_0BK@LBMNDGCG@Operation?5now?5in?5progress?$AA@ 000000018007fb80     libzmq:err.obj
 0002:00000ba0       ??_C@_0BO@BMABNIPB@Operation?5already?5in?5progress?$AA@ 000000018007fba0     libzmq:err.obj
 0002:00000bc0       ??_C@_0BP@MCCLAMPH@Socket?5operation?5on?5non?9socket?$AA@ 000000018007fbc0     libzmq:err.obj
 0002:00000be0       ??_C@_0BN@HFCIEIME@Destination?5address?5required?$AA@ 000000018007fbe0     libzmq:err.obj
 0002:00000c00       ??_C@_0BB@NDAKHOCP@Message?5too?5long?$AA@ 000000018007fc00     libzmq:err.obj
 0002:00000c18       ??_C@_0BP@PDKJLOAE@Protocol?5wrong?5type?5for?5socket?$AA@ 000000018007fc18     libzmq:err.obj
 0002:00000c38       ??_C@_0BE@NEGCDJON@Bad?5protocol?5option?$AA@ 000000018007fc38     libzmq:err.obj
 0002:00000c50       ??_C@_0BK@LMAIHBL@Socket?5type?5not?5supported?$AA@ 000000018007fc50     libzmq:err.obj
 0002:00000c70       ??_C@_0CC@GKIJMEBA@Operation?5not?5supported?5on?5socke@ 000000018007fc70     libzmq:err.obj
 0002:00000c98       ??_C@_0BO@EBCCBLCJ@Protocol?5family?5not?5supported?$AA@ 000000018007fc98     libzmq:err.obj
 0002:00000cb8       ??_C@_0DA@KDGLCJJO@Address?5family?5not?5supported?5by?5@ 000000018007fcb8     libzmq:err.obj
 0002:00000ce8       ??_C@_0BH@LOKACPE@Address?5already?5in?5use?$AA@ 000000018007fce8     libzmq:err.obj
 0002:00000d00       ??_C@_0BP@OKMOKAIP@Can?8t?5assign?5requested?5address?$AA@ 000000018007fd00     libzmq:err.obj
 0002:00000d20       ??_C@_0BH@CIEOBPFM@Network?5is?5unreachable?$AA@ 000000018007fd20     libzmq:err.obj
 0002:00000d38       ??_C@_0CA@JNBJELFJ@Net?5dropped?5connection?5or?5reset?$AA@ 000000018007fd38     libzmq:err.obj
 0002:00000d58       ??_C@_0CB@DJAOADN@Software?5caused?5connection?5abort@ 000000018007fd58     libzmq:err.obj
 0002:00000d80       ??_C@_0BJ@FJAMCHKE@Connection?5reset?5by?5peer?$AA@ 000000018007fd80     libzmq:err.obj
 0002:00000da0       ??_C@_0BM@CCONNCKE@Socket?5is?5already?5connected?$AA@ 000000018007fda0     libzmq:err.obj
 0002:00000dc0       ??_C@_0BI@ILAOGBJJ@Socket?5is?5not?5connected?$AA@ 000000018007fdc0     libzmq:err.obj
 0002:00000dd8       ??_C@_0CB@IOOOMFJJ@Can?8t?5send?5after?5socket?5shutdown@ 000000018007fdd8     libzmq:err.obj
 0002:00000e00       ??_C@_0CB@FJKGGIJB@Too?5many?5references?5can?8t?5splice@ 000000018007fe00     libzmq:err.obj
 0002:00000e28       ??_C@_0BF@IBBHAGLD@Connection?5timed?5out?$AA@ 000000018007fe28     libzmq:err.obj
 0002:00000e40       ??_C@_0CC@CPDHMANB@Too?5many?5levels?5of?5symbolic?5link@ 000000018007fe40     libzmq:err.obj
 0002:00000e68       ??_C@_0BD@CGPKCNP@File?5name?5too?5long?$AA@ 000000018007fe68     libzmq:err.obj
 0002:00000e80       ??_C@_0N@OHOPOBEF@Host?5is?5down?$AA@ 000000018007fe80     libzmq:err.obj
 0002:00000e90       ??_C@_0BB@PJLNOFCM@No?5Route?5to?5Host?$AA@ 000000018007fe90     libzmq:err.obj
 0002:00000ea8       ??_C@_0BE@ICMCHPHH@Directory?5not?5empty?$AA@ 000000018007fea8     libzmq:err.obj
 0002:00000ec0       ??_C@_0BD@LPHIGPM@Too?5many?5processes?$AA@ 000000018007fec0     libzmq:err.obj
 0002:00000ed8       ??_C@_0P@DAFGFIDC@Too?5many?5users?$AA@ 000000018007fed8     libzmq:err.obj
 0002:00000ee8       ??_C@_0BE@PEDAMG@Disc?5Quota?5Exceeded?$AA@ 000000018007fee8     libzmq:err.obj
 0002:00000f00       ??_C@_0BG@KNCBNNDC@Stale?5NFS?5file?5handle?$AA@ 000000018007ff00     libzmq:err.obj
 0002:00000f18       ??_C@_0CC@DBGGHIAG@Too?5many?5levels?5of?5remote?5in?5pat@ 000000018007ff18     libzmq:err.obj
 0002:00000f40       ??_C@_0CB@MDCMIEKK@Network?5SubSystem?5is?5unavailable@ 000000018007ff40     libzmq:err.obj
 0002:00000f68       ??_C@_0CB@FGLJFAAL@WINSOCK?5DLL?5Version?5out?5of?5range@ 000000018007ff68     libzmq:err.obj
 0002:00000f90       ??_C@_0CI@GMCLOAPG@Successful?5WSASTARTUP?5not?5yet?5pe@ 000000018007ff90     libzmq:err.obj
 0002:00000fb8       ??_C@_0P@CAFMJNJH@Host?5not?5found?$AA@ 000000018007ffb8     libzmq:err.obj
 0002:00000fc8       ??_C@_0CB@JBBGGNOF@Non?9Authoritative?5Host?5not?5found@ 000000018007ffc8     libzmq:err.obj
 0002:00000ff0       ??_C@_0CP@FNNFJCIA@Non?9Recoverable?5errors?3?5FORMERR?5@ 000000018007fff0     libzmq:err.obj
 0002:00001020       ??_C@_0CH@EKOFAFHE@Valid?5name?5no?5data?5record?5of?5req@ 0000000180080020     libzmq:err.obj
 0002:00001048       ??_C@_0BC@PBJKICCB@error?5not?5defined?$AA@ 0000000180080048     libzmq:err.obj
 0002:00001060       ??_C@_0BI@DGONOBBG@?4?4?2?4?4?2?4?4?2?4?4?2src?2err?4cpp?$AA@ 0000000180080060     libzmq:err.obj
 0002:00001078       ??_C@_02BJBLKCLH@rc?$AA@   0000000180080078     libzmq:err.obj
 0002:00001628       ??_7tcp_address_t@zmq@@6B@ 0000000180080628     libzmq:ctx.obj
 0002:00001640       ??_7tcp_address_mask_t@zmq@@6B@ 0000000180080640     libzmq:ctx.obj
 0002:00001650       ??_C@_0BI@DCMJPOMN@?4?4?2?4?4?2?4?4?2?4?4?2src?2ctx?4cpp?$AA@ 0000000180080650     libzmq:ctx.obj
 0002:00001668       ??_C@_0BB@CDNOHFEP@sockets?4empty?5?$CI?$CJ?$AA@ 0000000180080668     libzmq:ctx.obj
 0002:0000167c       ??_C@_01LKDEMHDF@s?$AA@    000000018008067c     libzmq:ctx.obj
 0002:00001680       ??_C@_0BM@OHHINMIA@cmd?4type?5?$DN?$DN?5command_t?3?3done?$AA@ 0000000180080680     libzmq:ctx.obj
 0002:0000169c       ??_C@_02MFDMBIJM@ok?$AA@   000000018008069c     libzmq:ctx.obj
 0002:000016a0       ??_C@_07DFCJBJKJ@written?$AA@ 00000001800806a0     libzmq:ctx.obj
 0002:000016a8       ??_C@_0BD@OLBABOEK@vector?$DMT?$DO?5too?5long?$AA@ 00000001800806a8     libzmq:ctx.obj
 0002:000016bc       ??_C@_05LAPONLG@false?$AA@ 00000001800806bc     libzmq:proxy.obj
 0002:00001830       ??_C@_0BI@BAGEGCDP@?4?4?2?4?4?2?4?4?2?4?4?2src?2msg?4cpp?$AA@ 0000000180080830     libzmq:msg.obj
 0002:00001848       ??_C@_0O@PFAGPPIE@NULL?5?$CB?$DN?5data_?$AA@ 0000000180080848     libzmq:msg.obj
 0002:00001858       ??_C@_0BB@CDJGGFLN@NULL?5?$CB?$DN?5content_?$AA@ 0000000180080858     libzmq:msg.obj
 0002:00001870       ??_C@_0BM@DPBDGNPO@data_?5?$CB?$DN?5NULL?5?$HM?$HM?5size_?5?$DN?$DN?50?$AA@ 0000000180080870     libzmq:msg.obj
 0002:00001890       ??_C@_0BG@IDHDLPGJ@u?4zclmsg?4content?9?$DOffn?$AA@ 0000000180080890     libzmq:msg.obj
 0002:000018a8       ??_C@_08BEDAJCFJ@check?5?$CI?$CJ?$AA@ 00000001800808a8     libzmq:msg.obj
 0002:000018b8       ??_C@_0L@CBDEMOKI@refs_?5?$DO?$DN?50?$AA@ 00000001800808b8     libzmq:msg.obj
 0002:000018c8       ??_C@_0BI@MDDBHDFM@u?4base?4metadata?5?$DN?$DN?5NULL?$AA@ 00000001800808c8     libzmq:msg.obj
 0002:00001e58       ??_C@_00CNPNBAHC@?$AA@     0000000180080e58     libzmq:socket_base.obj
 0002:00001e68       ??_7i_poll_events@zmq@@6B@ 0000000180080e68     libzmq:socket_base.obj
 0002:00001e90       ??_7i_pipe_events@zmq@@6B@ 0000000180080e90     libzmq:socket_base.obj
 0002:00001ec0       ??_7?$array_item_t@$0A@@zmq@@6B@ 0000000180080ec0     libzmq:socket_base.obj
 0002:00001ed0       ??_7socket_base_t@zmq@@6Bown_t@1@@ 0000000180080ed0     libzmq:socket_base.obj
 0002:00001fd8       ??_7socket_base_t@zmq@@6B?$array_item_t@$0A@@1@@ 0000000180080fd8     libzmq:socket_base.obj
 0002:00001fe8       ??_7socket_base_t@zmq@@6Bi_poll_events@1@@ 0000000180080fe8     libzmq:socket_base.obj
 0002:00002010       ??_7socket_base_t@zmq@@6Bi_pipe_events@1@@ 0000000180081010     libzmq:socket_base.obj
 0002:00002038       ??_C@_0CA@OLAOJOKH@?4?4?2?4?4?2?4?4?2?4?4?2src?2socket_base?4cpp?$AA@ 0000000180081038     libzmq:socket_base.obj
 0002:00002058       ??_C@_09OMEHJBAL@destroyed?$AA@ 0000000180081058     libzmq:socket_base.obj
 0002:00002068       ??_C@_0N@LLMOFACD@uri_?5?$CB?$DN?5NULL?$AA@ 0000000180081068     libzmq:socket_base.obj
 0002:00002078       ??_C@_03GACAABJG@?3?1?1?$AA@ 0000000180081078     libzmq:socket_base.obj
 0002:0000207c       ??_C@_06HLPMHLDM@inproc?$AA@ 000000018008107c     libzmq:socket_base.obj
 0002:00002084       ??_C@_03FPEIBLKH@tcp?$AA@  0000000180081084     libzmq:socket_base.obj
 0002:00002088       ??_C@_03OCLLGKEH@udp?$AA@  0000000180081088     libzmq:socket_base.obj
 0002:0000208c       ??_C@_03CIEPEIDA@pgm?$AA@  000000018008108c     libzmq:socket_base.obj
 0002:00002090       ??_C@_04JOPLJIAM@epgm?$AA@ 0000000180081090     libzmq:socket_base.obj
 0002:00002098       ??_C@_04PLLMIPEP@norm?$AA@ 0000000180081098     libzmq:socket_base.obj
 0002:000020a0       ??_C@_0BA@GMDAPCCH@errno?5?$DN?$DN?5EAGAIN?$AA@ 00000001800810a0     libzmq:socket_base.obj
 0002:000020b0       ??_C@_0BG@NECMEFPF@options?4recv_identity?$AA@ 00000001800810b0     libzmq:socket_base.obj
 0002:00002140       ??_C@_0CC@ECFDMMJB@?4?4?2?4?4?2?4?4?2?4?4?2src?2socket_poller?4cp@ 0000000180081140     libzmq:socket_poller.obj
 0002:00002168       ??_C@_0BM@FIOCJFC@items?4size?5?$CI?$CJ?5?$DM?$DN?5FD_SETSIZE?$AA@ 0000000180081168     libzmq:socket_poller.obj
 0002:00002188       ??_C@_0N@HAOHNMDE@Kernel32?4dll?$AA@ 0000000180081188     libzmq:clock.obj
 0002:00002198       ??_C@_0P@CDHHOHKP@GetTickCount64?$AA@ 0000000180081198     libzmq:clock.obj
 0002:000021a8       __real@43e0000000000000    00000001800811a8     libzmq:clock.obj
 0002:000021b0       ??_C@_0BL@HANADOEI@?4?4?2?4?4?2?4?4?2?4?4?2src?2thread?4cpp?$AA@ 00000001800811b0     libzmq:thread.obj
 0002:00003108       ??_7exception@std@@6B@     0000000180082108     libzmq:tcp_address.obj
 0002:00003118       ??_C@_0BC@EOODALEL@Unknown?5exception?$AA@ 0000000180082118     libzmq:tcp_address.obj
 0002:00003138       ??_7runtime_error@std@@6B@ 0000000180082138     libzmq:tcp_address.obj
 0002:00003150       ??_7bad_cast@std@@6B@      0000000180082150     libzmq:tcp_address.obj
 0002:00003160       ??_C@_08EPJLHIJG@bad?5cast?$AA@ 0000000180082160     libzmq:tcp_address.obj
 0002:00003170       ??_C@_0BA@ELKIONDK@bad?5locale?5name?$AA@ 0000000180082170     libzmq:tcp_address.obj
 0002:00003180       ??_C@_04LOAJBDKD@true?$AA@ 0000000180082180     libzmq:tcp_address.obj
 0002:00003190       ??_7_Facet_base@std@@6B@   0000000180082190     libzmq:tcp_address.obj
 0002:000031a8       ??_C@_01NBENCBCI@?$CK?$AA@ 00000001800821a8     libzmq:tcp_address.obj
 0002:000031b8       ??_7?$ctype@D@std@@6B@     00000001800821b8     libzmq:tcp_address.obj
 0002:00003218       ??_7error_category@std@@6B@ 0000000180082218     libzmq:tcp_address.obj
 0002:00003250       ??_7_System_error@std@@6B@ 0000000180082250     libzmq:tcp_address.obj
 0002:00003260       ??_C@_02LMMGGCAJ@?3?5?$AA@ 0000000180082260     libzmq:tcp_address.obj
 0002:00003270       ??_7system_error@std@@6B@  0000000180082270     libzmq:tcp_address.obj
 0002:00003288       ??_7_Iostream_error_category@std@@6B@ 0000000180082288     libzmq:tcp_address.obj
 0002:000032b8       ??_C@_08LLGCOLLL@iostream?$AA@ 00000001800822b8     libzmq:tcp_address.obj
 0002:000032c8       ??_C@_0BG@PADBLCHM@iostream?5stream?5error?$AA@ 00000001800822c8     libzmq:tcp_address.obj
 0002:000032e8       ??_7failure@ios_base@std@@6B@ 00000001800822e8     libzmq:tcp_address.obj
 0002:00003300       ??_7ios_base@std@@6B@      0000000180082300     libzmq:tcp_address.obj
 0002:00003308       ??_C@_0BF@PHHKMMFD@ios_base?3?3badbit?5set?$AA@ 0000000180082308     libzmq:tcp_address.obj
 0002:00003320       ??_C@_0BG@FMKFHCIL@ios_base?3?3failbit?5set?$AA@ 0000000180082320     libzmq:tcp_address.obj
 0002:00003338       ??_C@_0BF@OOHOMBOF@ios_base?3?3eofbit?5set?$AA@ 0000000180082338     libzmq:tcp_address.obj
 0002:00003350       ??_C@_0CA@EOPHHKEO@?4?4?2?4?4?2?4?4?2?4?4?2src?2tcp_address?4cpp?$AA@ 0000000180082350     libzmq:tcp_address.obj
 0002:00003370       ??_C@_0M@DHMPGOMA@res?5?$CB?$DN?5NULL?$AA@ 0000000180082370     libzmq:tcp_address.obj
 0002:00003380       ??_C@_0CN@GEJELLCH@?$CIsize_t?$CJ?5res?9?$DOai_addrlen?5?$DM?$DN?5size@ 0000000180082380     libzmq:tcp_address.obj
 0002:000033b0       ??_C@_0BB@IONKHIIB@sa?5?$CG?$CG?5sa_len?5?$DO?50?$AA@ 00000001800823b0     libzmq:tcp_address.obj
 0002:000033c4       ??_C@_01GBGANLPD@0?$AA@    00000001800823c4     libzmq:tcp_address.obj
 0002:000033d0       ??_7?$basic_istream@DU?$char_traits@D@std@@@std@@6B@ 00000001800823d0     libzmq:tcp_address.obj
 0002:000033e0       ??_7?$basic_ostream@DU?$char_traits@D@std@@@std@@6B@ 00000001800823e0     libzmq:tcp_address.obj
 0002:000033f0       ??_7?$basic_iostream@DU?$char_traits@D@std@@@std@@6B@ 00000001800823f0     libzmq:tcp_address.obj
 0002:00003400       ??_7?$basic_streambuf@DU?$char_traits@D@std@@@std@@6B@ 0000000180082400     libzmq:tcp_address.obj
 0002:00003480       ??_7?$basic_stringbuf@DU?$char_traits@D@std@@V?$allocator@D@2@@std@@6B@ 0000000180082480     libzmq:tcp_address.obj
 0002:00003500       ??_7?$basic_stringstream@DU?$char_traits@D@std@@V?$allocator@D@2@@std@@6B@ 0000000180082500     libzmq:tcp_address.obj
 0002:00003508       ??_8?$basic_stringstream@DU?$char_traits@D@std@@V?$allocator@D@2@@std@@7B?$basic_istream@DU?$char_traits@D@std@@@1@@ 0000000180082508     libzmq:tcp_address.obj
 0002:00003510       ??_8?$basic_stringstream@DU?$char_traits@D@std@@V?$allocator@D@2@@std@@7B?$basic_ostream@DU?$char_traits@D@std@@@1@@ 0000000180082510     libzmq:tcp_address.obj
 0002:00003518       ??_C@_02EBHDEFHH@?$FN?3?$AA@ 0000000180082518     libzmq:tcp_address.obj
 0002:00003520       ??_C@_07HKCFHOEI@tcp?3?1?1?$FL?$AA@ 0000000180082520     libzmq:tcp_address.obj
 0002:00003528       ??_C@_01JLIPDDHJ@?3?$AA@   0000000180082528     libzmq:tcp_address.obj
 0002:0000352c       ??_C@_06LDJNGIPH@tcp?3?1?1?$AA@ 000000018008252c     libzmq:tcp_address.obj
 0002:00003534       ??_C@_02HGMGKDGD@?$FN?1?$AA@ 0000000180082534     libzmq:tcp_address.obj
 0002:00003538       ??_C@_01OHGJGJJP@?$FL?$AA@ 0000000180082538     libzmq:tcp_address.obj
 0002:0000353c       ??_C@_01KMDKNFGN@?1?$AA@   000000018008253c     libzmq:tcp_address.obj
 0002:00003540       ??_C@_0FD@HMBLNLIA@address_mask?5?$CB?$DN?5?91?5?$CG?$CG?5ss?5?$CB?$DN?5NULL@ 0000000180082540     libzmq:tcp_address.obj
 0002:00003598       ??_C@_0CH@GHPHHOLG@ss_len?5?$DN?$DN?5sizeof?5?$CIstruct?5sockadd@ 0000000180082598     libzmq:tcp_address.obj
 0002:000035c0       ??_C@_0CG@KFNMOMGJ@ss_len?5?$DN?$DN?5sizeof?5?$CIstruct?5sockadd@ 00000001800825c0     libzmq:tcp_address.obj
 0002:000035f0       ??_7?$num_put@DV?$ostreambuf_iterator@DU?$char_traits@D@std@@@std@@@std@@6B@ 00000001800825f0     libzmq:tcp_address.obj
 0002:00003648       ??_C@_02BBAHNLBA@?$CFp?$AA@ 0000000180082648     libzmq:tcp_address.obj
 0002:00003658       ??_7?$numpunct@D@std@@6B@  0000000180082658     libzmq:tcp_address.obj
 0002:00003698       ??_C@_02MDKMJEGG@eE?$AA@   0000000180082698     libzmq:tcp_address.obj
 0002:0000369c       ??_C@_02OOPEBDOJ@pP?$AA@   000000018008269c     libzmq:tcp_address.obj
 0002:000036a0       __real@4202a05f20000000    00000001800826a0     libzmq:tcp_address.obj
 0002:000036b0       __xmm@7fffffffffffffff7fffffffffffffff 00000001800826b0     libzmq:tcp_address.obj
 0002:00003790       ??_7i_mailbox@zmq@@6B@     0000000180082790     libzmq:mailbox.obj
 0002:000037b0       ??_7?$ypipe_base_t@Ucommand_t@zmq@@@zmq@@6B@ 00000001800827b0     libzmq:mailbox.obj
 0002:000037f0       ??_7?$ypipe_t@Ucommand_t@zmq@@$0BA@@zmq@@6B@ 00000001800827f0     libzmq:mailbox.obj
 0002:00003830       ??_7mailbox_t@zmq@@6B@     0000000180082830     libzmq:mailbox.obj
 0002:00003848       ??_C@_0BM@HKMJJJLM@?4?4?2?4?4?2?4?4?2?4?4?2src?2mailbox?4cpp?$AA@ 0000000180082848     libzmq:mailbox.obj
 0002:00003864       ??_C@_03DLHNGMJ@?$CBok?$AA@ 0000000180082864     libzmq:mailbox.obj
 0002:00003870       ??_C@_0EF@KAIEDHAH@c?3?2users?2lukasgeiger?2desktop?2zer@ 0000000180082870     libzmq:mailbox.obj
 0002:000038c0       ??_C@_0EG@GAMJDJIO@c?3?2users?2lukasgeiger?2desktop?2zer@ 00000001800828c0     libzmq:mailbox.obj
 0002:00003910       ??_7object_t@zmq@@6B@      0000000180082910     libzmq:object.obj
 0002:000039a0       ??_C@_0BL@GJHEBONF@?4?4?2?4?4?2?4?4?2?4?4?2src?2object?4cpp?$AA@ 00000001800829a0     libzmq:object.obj
 0002:00003b08       ??_7own_t@zmq@@6B@         0000000180082b08     libzmq:own.obj
 0002:00003ba0       ??_C@_0BI@IBABBAJJ@?4?4?2?4?4?2?4?4?2?4?4?2src?2own?4cpp?$AA@ 0000000180082ba0     libzmq:own.obj
 0002:00003bb8       ??_C@_06DBOFABHG@?$CBowner?$AA@ 0000000180082bb8     libzmq:own.obj
 0002:00003bc0       ??_C@_0N@DCDACNLB@?$CBterminating?$AA@ 0000000180082bc0     libzmq:own.obj
 0002:00003bd0       ??_C@_0O@PCDAEPPA@term_acks?5?$DO?50?$AA@ 0000000180082bd0     libzmq:own.obj
 0002:00003be0       ??_C@_0P@EDGMDDIC@owned?4empty?5?$CI?$CJ?$AA@ 0000000180082be0     libzmq:own.obj
 0002:00003dd8       ??_7select_t@zmq@@6B@      0000000180082dd8     libzmq:select.obj
 0002:00003de0       ??_C@_0BL@FMFOCKCK@?4?4?2?4?4?2?4?4?2?4?4?2src?2select?4cpp?$AA@ 0000000180082de0     libzmq:select.obj
 0002:00003e00       ??_C@_0CO@IEBNLFNH@fd_entry_it?5?$CB?$DN?5family_entry?4fd_e@ 0000000180082e00     libzmq:select.obj
 0002:00003e30       ??_C@_0BN@CPDIBLDC@rc?5?$CB?$DN?5WSA_WAIT_IO_COMPLETION?$AA@ 0000000180082e30     libzmq:select.obj
 0002:00003fc0       ??_7?$array_item_t@$00@zmq@@6B@ 0000000180082fc0     libzmq:pipe.obj
 0002:00003fd0       ??_7?$array_item_t@$01@zmq@@6B@ 0000000180082fd0     libzmq:pipe.obj
 0002:00003fe0       ??_7?$array_item_t@$02@zmq@@6B@ 0000000180082fe0     libzmq:pipe.obj
 0002:00003ff0       ??_7pipe_t@zmq@@6Bobject_t@1@@ 0000000180082ff0     libzmq:pipe.obj
 0002:00004088       ??_7pipe_t@zmq@@6B?$array_item_t@$00@1@@ 0000000180083088     libzmq:pipe.obj
 0002:00004098       ??_7pipe_t@zmq@@6B?$array_item_t@$01@1@@ 0000000180083098     libzmq:pipe.obj
 0002:000040a8       ??_7pipe_t@zmq@@6B?$array_item_t@$02@1@@ 00000001800830a8     libzmq:pipe.obj
 0002:000040b0       ??_C@_0EH@HCBHEACI@c?3?2users?2lukasgeiger?2desktop?2zer@ 00000001800830b0     libzmq:pipe.obj
 0002:000040f8       ??_C@_0BA@NPDEBNKN@xvalue?4check?5?$CI?$CJ?$AA@ 00000001800830f8     libzmq:pipe.obj
 0002:00004108       ??_C@_0P@PELBBPA@back?9?$DOcheck?5?$CI?$CJ?$AA@ 0000000180083108     libzmq:pipe.obj
 0002:00004118       ??_C@_0BA@OIKKGFBN@front?9?$DOcheck?5?$CI?$CJ?$AA@ 0000000180083118     libzmq:pipe.obj
 0002:00004130       ??_7?$ypipe_base_t@Vmsg_t@zmq@@@zmq@@6B@ 0000000180083130     libzmq:pipe.obj
 0002:00004170       ??_7?$ypipe_conflate_t@Vmsg_t@zmq@@@zmq@@6B@ 0000000180083170     libzmq:pipe.obj
 0002:000041b0       ??_7?$ypipe_t@Vmsg_t@zmq@@$0BAA@@zmq@@6B@ 00000001800831b0     libzmq:pipe.obj
 0002:000041e8       ??_C@_0BJ@MJEIEAK@?4?4?2?4?4?2?4?4?2?4?4?2src?2pipe?4cpp?$AA@ 00000001800831e8     libzmq:pipe.obj
 0002:00004204       ??_C@_05CEPCHNIO@?$CBpeer?$AA@ 0000000180083204     libzmq:pipe.obj
 0002:0000420c       ??_C@_05LONBPOBP@?$CBsink?$AA@ 000000018008320c     libzmq:pipe.obj
 0002:00004218       ??_C@_0BL@KHDNPIG@msg?4flags?5?$CI?$CJ?5?$CG?5msg_t?3?3more?$AA@ 0000000180083218     libzmq:pipe.obj
 0002:00004238       ??_C@_07EOHCINCO@outpipe?$AA@ 0000000180083238     libzmq:pipe.obj
 0002:00004240       ??_C@_05MJDNKOGN@pipe_?$AA@ 0000000180083240     libzmq:pipe.obj
 0002:00004250       ??_C@_0EK@LJOFLGFO@state?5?$DN?$DN?5active?5?$HM?$HM?5state?5?$DN?$DN?5deli@ 0000000180083250     libzmq:pipe.obj
 0002:0000429c       ??_C@_04FMBHODC@sink?$AA@  000000018008329c     libzmq:pipe.obj
 0002:000042a8       ??_C@_0DC@FIIMNIHL@state?5?$DN?$DN?5term_ack_sent?5?$HM?$HM?5state?5@ 00000001800832a8     libzmq:pipe.obj
 0002:000042e0       ??_C@_0DC@BJMPIFNO@state?5?$DN?$DN?5active?5?$HM?$HM?5state?5?$DN?$DN?5wait@ 00000001800832e0     libzmq:pipe.obj
 0002:00004348       ??_7io_thread_t@zmq@@6Bobject_t@1@@ 0000000180083348     libzmq:io_thread.obj
 0002:000043e0       ??_7io_thread_t@zmq@@6Bi_poll_events@1@@ 00000001800833e0     libzmq:io_thread.obj
 0002:00004400       ??_C@_0BO@HBNMDJBM@?4?4?2?4?4?2?4?4?2?4?4?2src?2io_thread?4cpp?$AA@ 0000000180083400     libzmq:io_thread.obj
 0002:00004420       ??_C@_06JHOINGN@poller?$AA@ 0000000180083420     libzmq:io_thread.obj
 0002:00004458       ??_7reaper_t@zmq@@6Bobject_t@1@@ 0000000180083458     libzmq:reaper.obj
 0002:000044f0       ??_7reaper_t@zmq@@6Bi_poll_events@1@@ 00000001800834f0     libzmq:reaper.obj
 0002:00004510       ??_C@_0BL@ONENPLNF@?4?4?2?4?4?2?4?4?2?4?4?2src?2reaper?4cpp?$AA@ 0000000180083510     libzmq:reaper.obj
 0002:00004558       ??_C@_0BN@NLHEACEK@?4?4?2?4?4?2?4?4?2?4?4?2src?2signaler?4cpp?$AA@ 0000000180083558     libzmq:signaler.obj
 0002:00004578       ??_C@_0BJ@EEMDBOAL@nbytes?5?$DN?$DN?5sizeof?5?$CIdummy?$CJ?$AA@ 0000000180083578     libzmq:signaler.obj
 0002:00004598       ??_C@_07GMLKPICM@rc?5?$DN?$DN?51?$AA@ 0000000180083598     libzmq:signaler.obj
 0002:000045a0       ??_C@_0L@EAHAIKHK@dummy?5?$DN?$DN?50?$AA@ 00000001800835a0     libzmq:signaler.obj
 0002:00004658       ??_7tcp_listener_t@zmq@@6Bown_t@1@@ 0000000180083658     libzmq:tcp_listener.obj
 0002:000046f8       ??_7tcp_listener_t@zmq@@6Bio_object_t@1@@ 00000001800836f8     libzmq:tcp_listener.obj
 0002:00004718       ??_C@_0CB@JHHGADIP@?4?4?2?4?4?2?4?4?2?4?4?2src?2tcp_listener?4cpp@ 0000000180083718     libzmq:tcp_listener.obj
 0002:00004740       ??_C@_0BA@ELNFGKHF@s?5?$DN?$DN?5retired_fd?$AA@ 0000000180083740     libzmq:tcp_listener.obj
 0002:00004750       ??_C@_09FLFNFAJ@io_thread?$AA@ 0000000180083750     libzmq:tcp_listener.obj
 0002:00004760       ??_C@_0BA@HJCMHDE@s?5?$CB?$DN?5retired_fd?$AA@ 0000000180083760     libzmq:tcp_listener.obj
 0002:00004908       ??_7session_base_t@zmq@@6Bown_t@1@@ 0000000180083908     libzmq:session_base.obj
 0002:000049c0       ??_7session_base_t@zmq@@6Bio_object_t@1@@ 00000001800839c0     libzmq:session_base.obj
 0002:000049e8       ??_7session_base_t@zmq@@6Bi_pipe_events@1@@ 00000001800839e8     libzmq:session_base.obj
 0002:00004a10       ??_C@_0CB@JFMIBGAG@?4?4?2?4?4?2?4?4?2?4?4?2src?2session_base?4cpp@ 0000000180083a10     libzmq:session_base.obj
 0002:00004a34       ??_C@_05HBEKCHDL@?$CBpipe?$AA@ 0000000180083a34     libzmq:session_base.obj
 0002:00004a40       ??_C@_09CHBBNDPE@?$CBzap_pipe?$AA@ 0000000180083a40     libzmq:session_base.obj
 0002:00004a50       ??_C@_0BD@JCKNFF@?$CBis_terminating?5?$CI?$CJ?$AA@ 0000000180083a50     libzmq:session_base.obj
 0002:00004a68       ??_C@_0N@HBABECHN@pipe?5?$CB?$DN?5NULL?$AA@ 0000000180083a68     libzmq:session_base.obj
 0002:00004a80       ??_C@_0EL@CPFMGLHC@pipe_?5?$DN?$DN?5pipe?5?$HM?$HM?5pipe_?5?$DN?$DN?5zap_pi@ 0000000180083a80     libzmq:session_base.obj
 0002:00004ad0       ??_C@_0CF@KOHCPLLM@terminating_pipes?4count?5?$CIpipe_?$CJ?5@ 0000000180083ad0     libzmq:session_base.obj
 0002:00004af8       ??_C@_0BB@CKPMHJNN@zap_pipe?5?$DN?$DN?5NULL?$AA@ 0000000180083af8     libzmq:session_base.obj
 0002:00004b10       ??_C@_0BH@BFNKNAA@inproc?3?1?1zeromq?4zap?401?$AA@ 0000000180083b10     libzmq:session_base.obj
 0002:00004b28       ??_C@_0BA@HAPBFIIB@engine_?5?$CB?$DN?5NULL?$AA@ 0000000180083b28     libzmq:session_base.obj
 0002:00004b38       ??_C@_07HDIOCFCK@?$CBengine?$AA@ 0000000180083b38     libzmq:session_base.obj
 0002:00004b40       ??_C@_0IF@MHPGLGEK@reason?5?$DN?$DN?5stream_engine_t?3?3conne@ 0000000180083b40     libzmq:session_base.obj
 0002:00004bc8       ??_C@_08IJDFJDAH@?$CBpending?$AA@ 0000000180083bc8     libzmq:session_base.obj
 0002:00004bd8       ??_C@_0BC@ONGNMOIC@?$CBhas_linger_timer?$AA@ 0000000180083bd8     libzmq:session_base.obj
 0002:00004bf0       ??_C@_0BH@MDHEOJE@id_?5?$DN?$DN?5linger_timer_id?$AA@ 0000000180083bf0     libzmq:session_base.obj
 0002:00004c08       ??_C@_04MKFKKHBG@pipe?$AA@ 0000000180083c08     libzmq:session_base.obj
 0002:00004c10       ??_C@_06MDLIGPKC@active?$AA@ 0000000180083c10     libzmq:session_base.obj
 0002:00004c20       ??_C@_0FD@LOGMHBAG@options?4type?5?$DN?$DN?5ZMQ_DISH?5?$HM?$HM?5opti@ 0000000180083c20     libzmq:session_base.obj
 0002:00004d20       ??_7udp_address_t@zmq@@6B@ 0000000180083d20     libzmq:udp_address.obj
 0002:00004d80       ??_C@_0FC@GINHBGFP@c?3?2users?2lukasgeiger?2desktop?2zer@ 0000000180083d80     libzmq:mailbox_safe.obj
 0002:00004de0       ??_7mailbox_safe_t@zmq@@6B@ 0000000180083de0     libzmq:mailbox_safe.obj
 0002:00004df8       ??_C@_0CB@CLBAAFNJ@?4?4?2?4?4?2?4?4?2?4?4?2src?2mailbox_safe?4cpp@ 0000000180083df8     libzmq:mailbox_safe.obj
 0002:00004e78       ??_7pair_t@zmq@@6Bown_t@1@@ 0000000180083e78     libzmq:pair.obj
 0002:00004f80       ??_7pair_t@zmq@@6B?$array_item_t@$0A@@1@@ 0000000180083f80     libzmq:pair.obj
 0002:00004f90       ??_7pair_t@zmq@@6Bi_poll_events@1@@ 0000000180083f90     libzmq:pair.obj
 0002:00004fb8       ??_7pair_t@zmq@@6Bi_pipe_events@1@@ 0000000180083fb8     libzmq:pair.obj
 0002:00004fe0       ??_C@_0BJ@DDOEHEIB@?4?4?2?4?4?2?4?4?2?4?4?2src?2pair?4cpp?$AA@ 0000000180083fe0     libzmq:pair.obj
 0002:00005000       ??_C@_0O@EHPCMPFK@pipe_?5?$CB?$DN?5NULL?$AA@ 0000000180084000     libzmq:pair.obj
 0002:000050e0       ??_7xpub_t@zmq@@6Bown_t@1@@ 00000001800840e0     libzmq:xpub.obj
 0002:000051e8       ??_7xpub_t@zmq@@6B?$array_item_t@$0A@@1@@ 00000001800841e8     libzmq:xpub.obj
 0002:000051f8       ??_7xpub_t@zmq@@6Bi_poll_events@1@@ 00000001800841f8     libzmq:xpub.obj
 0002:00005220       ??_7xpub_t@zmq@@6Bi_pipe_events@1@@ 0000000180084220     libzmq:xpub.obj
 0002:00005248       ??_C@_0BJ@JLIFBDAN@?4?4?2?4?4?2?4?4?2?4?4?2src?2xpub?4cpp?$AA@ 0000000180084248     libzmq:xpub.obj
 0002:00005268       ??_C@_0BC@KBDMBKEH@deque?$DMT?$DO?5too?5long?$AA@ 0000000180084268     libzmq:xpub.obj
 0002:00005288       ??_7pub_t@zmq@@6Bown_t@1@@ 0000000180084288     libzmq:pub.obj
 0002:00005390       ??_7pub_t@zmq@@6B?$array_item_t@$0A@@1@@ 0000000180084390     libzmq:pub.obj
 0002:000053a0       ??_7pub_t@zmq@@6Bi_poll_events@1@@ 00000001800843a0     libzmq:pub.obj
 0002:000053c8       ??_7pub_t@zmq@@6Bi_pipe_events@1@@ 00000001800843c8     libzmq:pub.obj
 0002:000053f0       ??_C@_0BI@MEMHOCEM@?4?4?2?4?4?2?4?4?2?4?4?2src?2pub?4cpp?$AA@ 00000001800843f0     libzmq:pub.obj
 0002:00005460       ??_7xsub_t@zmq@@6Bown_t@1@@ 0000000180084460     libzmq:xsub.obj
 0002:00005568       ??_7xsub_t@zmq@@6B?$array_item_t@$0A@@1@@ 0000000180084568     libzmq:xsub.obj
 0002:00005578       ??_7xsub_t@zmq@@6Bi_poll_events@1@@ 0000000180084578     libzmq:xsub.obj
 0002:000055a0       ??_7xsub_t@zmq@@6Bi_pipe_events@1@@ 00000001800845a0     libzmq:xsub.obj
 0002:000055c8       ??_C@_0BJ@BFAKBEOO@?4?4?2?4?4?2?4?4?2?4?4?2src?2xsub?4cpp?$AA@ 00000001800845c8     libzmq:xsub.obj
 0002:000055f0       ??_7sub_t@zmq@@6Bown_t@1@@ 00000001800845f0     libzmq:sub.obj
 0002:000056f8       ??_7sub_t@zmq@@6B?$array_item_t@$0A@@1@@ 00000001800846f8     libzmq:sub.obj
 0002:00005708       ??_7sub_t@zmq@@6Bi_poll_events@1@@ 0000000180084708     libzmq:sub.obj
 0002:00005730       ??_7sub_t@zmq@@6Bi_pipe_events@1@@ 0000000180084730     libzmq:sub.obj
 0002:00005758       ??_C@_0BI@EKEIOFKP@?4?4?2?4?4?2?4?4?2?4?4?2src?2sub?4cpp?$AA@ 0000000180084758     libzmq:sub.obj
 0002:000057a0       ??_7dealer_t@zmq@@6Bown_t@1@@ 00000001800847a0     libzmq:dealer.obj
 0002:000058a8       ??_7dealer_t@zmq@@6B?$array_item_t@$0A@@1@@ 00000001800848a8     libzmq:dealer.obj
 0002:000058b8       ??_7dealer_t@zmq@@6Bi_poll_events@1@@ 00000001800848b8     libzmq:dealer.obj
 0002:000058e0       ??_7dealer_t@zmq@@6Bi_pipe_events@1@@ 00000001800848e0     libzmq:dealer.obj
 0002:00005908       ??_C@_0BL@IABKNBDJ@?4?4?2?4?4?2?4?4?2?4?4?2src?2dealer?4cpp?$AA@ 0000000180084908     libzmq:dealer.obj
 0002:00005958       ??_7req_t@zmq@@6Bown_t@1@@ 0000000180084958     libzmq:req.obj
 0002:00005a60       ??_7req_t@zmq@@6B?$array_item_t@$0A@@1@@ 0000000180084a60     libzmq:req.obj
 0002:00005a70       ??_7req_t@zmq@@6Bi_poll_events@1@@ 0000000180084a70     libzmq:req.obj
 0002:00005a98       ??_7req_t@zmq@@6Bi_pipe_events@1@@ 0000000180084a98     libzmq:req.obj
 0002:00005ac8       ??_7req_session_t@zmq@@6Bown_t@1@@ 0000000180084ac8     libzmq:req.obj
 0002:00005b80       ??_7req_session_t@zmq@@6Bio_object_t@1@@ 0000000180084b80     libzmq:req.obj
 0002:00005ba8       ??_7req_session_t@zmq@@6Bi_pipe_events@1@@ 0000000180084ba8     libzmq:req.obj
 0002:00005bd0       ??_C@_0BI@GEHOAJMK@?4?4?2?4?4?2?4?4?2?4?4?2src?2req?4cpp?$AA@ 0000000180084bd0     libzmq:req.obj
 0002:00005be8       ??_C@_0L@FLAJMBK@reply_pipe?$AA@ 0000000180084be8     libzmq:req.obj
 0002:00005e08       ??_7router_t@zmq@@6Bown_t@1@@ 0000000180084e08     libzmq:router.obj
 0002:00005f10       ??_7router_t@zmq@@6B?$array_item_t@$0A@@1@@ 0000000180084f10     libzmq:router.obj
 0002:00005f20       ??_7router_t@zmq@@6Bi_poll_events@1@@ 0000000180084f20     libzmq:router.obj
 0002:00005f48       ??_7router_t@zmq@@6Bi_pipe_events@1@@ 0000000180084f48     libzmq:router.obj
 0002:00005f70       ??_C@_0BL@IPAJHGJL@?4?4?2?4?4?2?4?4?2?4?4?2src?2router?4cpp?$AA@ 0000000180084f70     libzmq:router.obj
 0002:00005f90       ??_C@_0BJ@JKMNJJDB@anonymous_pipes?4empty?5?$CI?$CJ?$AA@ 0000000180084f90     libzmq:router.obj
 0002:00005fb0       ??_C@_0BC@NLCAAGN@outpipes?4empty?5?$CI?$CJ?$AA@ 0000000180084fb0     libzmq:router.obj
 0002:00005fc8       ??_C@_0BI@JGFBKJPO@iter?5?$CB?$DN?5outpipes?4end?5?$CI?$CJ?$AA@ 0000000180084fc8     libzmq:router.obj
 0002:00005fe0       ??_C@_0BG@DEFANNJ@it?5?$CB?$DN?5outpipes?4end?5?$CI?$CJ?$AA@ 0000000180084fe0     libzmq:router.obj
 0002:00005ff8       ??_C@_0BD@HJAAIBKE@?$CBit?9?$DOsecond?4active?$AA@ 0000000180084ff8     libzmq:router.obj
 0002:00006010       ??_C@_0N@HBGNKKAE@?$CBcurrent_out?$AA@ 0000000180085010     libzmq:router.obj
 0002:00006028       ??_7rep_t@zmq@@6Bown_t@1@@ 0000000180085028     libzmq:rep.obj
 0002:00006130       ??_7rep_t@zmq@@6B?$array_item_t@$0A@@1@@ 0000000180085130     libzmq:rep.obj
 0002:00006140       ??_7rep_t@zmq@@6Bi_poll_events@1@@ 0000000180085140     libzmq:rep.obj
 0002:00006168       ??_7rep_t@zmq@@6Bi_pipe_events@1@@ 0000000180085168     libzmq:rep.obj
 0002:00006190       ??_C@_0BI@KPCCNKGP@?4?4?2?4?4?2?4?4?2?4?4?2src?2rep?4cpp?$AA@ 0000000180085190     libzmq:rep.obj
 0002:000061d8       ??_7pull_t@zmq@@6Bown_t@1@@ 00000001800851d8     libzmq:pull.obj
 0002:000062e0       ??_7pull_t@zmq@@6B?$array_item_t@$0A@@1@@ 00000001800852e0     libzmq:pull.obj
 0002:000062f0       ??_7pull_t@zmq@@6Bi_poll_events@1@@ 00000001800852f0     libzmq:pull.obj
 0002:00006318       ??_7pull_t@zmq@@6Bi_pipe_events@1@@ 0000000180085318     libzmq:pull.obj
 0002:00006340       ??_C@_0BJ@KAPBAHBM@?4?4?2?4?4?2?4?4?2?4?4?2src?2pull?4cpp?$AA@ 0000000180085340     libzmq:pull.obj
 0002:00006390       ??_7push_t@zmq@@6Bown_t@1@@ 0000000180085390     libzmq:push.obj
 0002:00006498       ??_7push_t@zmq@@6B?$array_item_t@$0A@@1@@ 0000000180085498     libzmq:push.obj
 0002:000064a8       ??_7push_t@zmq@@6Bi_poll_events@1@@ 00000001800854a8     libzmq:push.obj
 0002:000064d0       ??_7push_t@zmq@@6Bi_pipe_events@1@@ 00000001800854d0     libzmq:push.obj
 0002:000064f8       ??_C@_0BJ@KKPGKJCN@?4?4?2?4?4?2?4?4?2?4?4?2src?2push?4cpp?$AA@ 00000001800854f8     libzmq:push.obj
 0002:00006728       ??_7stream_t@zmq@@6Bown_t@1@@ 0000000180085728     libzmq:stream.obj
 0002:00006830       ??_7stream_t@zmq@@6B?$array_item_t@$0A@@1@@ 0000000180085830     libzmq:stream.obj
 0002:00006840       ??_7stream_t@zmq@@6Bi_poll_events@1@@ 0000000180085840     libzmq:stream.obj
 0002:00006868       ??_7stream_t@zmq@@6Bi_pipe_events@1@@ 0000000180085868     libzmq:stream.obj
 0002:00006890       ??_C@_0BL@EDHGBLGF@?4?4?2?4?4?2?4?4?2?4?4?2src?2stream?4cpp?$AA@ 0000000180085890     libzmq:stream.obj
 0002:000068b0       ??_C@_0CN@EIGNPFEN@?$CIprefetched_msg?4flags?5?$CI?$CJ?5?$CG?5msg_t@ 00000001800858b0     libzmq:stream.obj
 0002:000068e0       ??_C@_0BG@PAMOCGLE@it?5?$DN?$DN?5outpipes?4end?5?$CI?$CJ?$AA@ 00000001800858e0     libzmq:stream.obj
 0002:00006a18       ??_7server_t@zmq@@6Bown_t@1@@ 0000000180085a18     libzmq:server.obj
 0002:00006b20       ??_7server_t@zmq@@6B?$array_item_t@$0A@@1@@ 0000000180085b20     libzmq:server.obj
 0002:00006b30       ??_7server_t@zmq@@6Bi_poll_events@1@@ 0000000180085b30     libzmq:server.obj
 0002:00006b58       ??_7server_t@zmq@@6Bi_pipe_events@1@@ 0000000180085b58     libzmq:server.obj
 0002:00006b80       ??_C@_0BL@HPOBFDCG@?4?4?2?4?4?2?4?4?2?4?4?2src?2server?4cpp?$AA@ 0000000180085b80     libzmq:server.obj
 0002:00006bd0       ??_7client_t@zmq@@6Bown_t@1@@ 0000000180085bd0     libzmq:client.obj
 0002:00006cd8       ??_7client_t@zmq@@6B?$array_item_t@$0A@@1@@ 0000000180085cd8     libzmq:client.obj
 0002:00006ce8       ??_7client_t@zmq@@6Bi_poll_events@1@@ 0000000180085ce8     libzmq:client.obj
 0002:00006d10       ??_7client_t@zmq@@6Bi_pipe_events@1@@ 0000000180085d10     libzmq:client.obj
 0002:00006d38       ??_C@_0BL@CFPNOBKE@?4?4?2?4?4?2?4?4?2?4?4?2src?2client?4cpp?$AA@ 0000000180085d38     libzmq:client.obj
 0002:00006dd8       ??_7radio_t@zmq@@6Bown_t@1@@ 0000000180085dd8     libzmq:radio.obj
 0002:00006ee0       ??_7radio_t@zmq@@6B?$array_item_t@$0A@@1@@ 0000000180085ee0     libzmq:radio.obj
 0002:00006ef0       ??_7radio_t@zmq@@6Bi_poll_events@1@@ 0000000180085ef0     libzmq:radio.obj
 0002:00006f18       ??_7radio_t@zmq@@6Bi_pipe_events@1@@ 0000000180085f18     libzmq:radio.obj
 0002:00006f48       ??_7radio_session_t@zmq@@6Bown_t@1@@ 0000000180085f48     libzmq:radio.obj
 0002:00007000       ??_7radio_session_t@zmq@@6Bio_object_t@1@@ 0000000180086000     libzmq:radio.obj
 0002:00007028       ??_7radio_session_t@zmq@@6Bi_pipe_events@1@@ 0000000180086028     libzmq:radio.obj
 0002:00007050       ??_C@_0BK@GJFBJOKM@?4?4?2?4?4?2?4?4?2?4?4?2src?2radio?4cpp?$AA@ 0000000180086050     libzmq:radio.obj
 0002:0000706c       ??_C@_05BFCJMAAN@?$AEJOIN?$AA@ 000000018008606c     libzmq:radio.obj
 0002:00007074       ??_C@_06BOLFMEBC@?$AFLEAVE?$AA@ 0000000180086074     libzmq:radio.obj
 0002:00007218       ??_7dish_t@zmq@@6Bown_t@1@@ 0000000180086218     libzmq:dish.obj
 0002:00007320       ??_7dish_t@zmq@@6B?$array_item_t@$0A@@1@@ 0000000180086320     libzmq:dish.obj
 0002:00007330       ??_7dish_t@zmq@@6Bi_poll_events@1@@ 0000000180086330     libzmq:dish.obj
 0002:00007358       ??_7dish_t@zmq@@6Bi_pipe_events@1@@ 0000000180086358     libzmq:dish.obj
 0002:00007388       ??_7dish_session_t@zmq@@6Bown_t@1@@ 0000000180086388     libzmq:dish.obj
 0002:00007440       ??_7dish_session_t@zmq@@6Bio_object_t@1@@ 0000000180086440     libzmq:dish.obj
 0002:00007468       ??_7dish_session_t@zmq@@6Bi_pipe_events@1@@ 0000000180086468     libzmq:dish.obj
 0002:00007490       ??_C@_0BJ@HAMOJODE@?4?4?2?4?4?2?4?4?2?4?4?2src?2dish?4cpp?$AA@ 0000000180086490     libzmq:dish.obj
 0002:000074e0       ??_7gather_t@zmq@@6Bown_t@1@@ 00000001800864e0     libzmq:gather.obj
 0002:000075e8       ??_7gather_t@zmq@@6B?$array_item_t@$0A@@1@@ 00000001800865e8     libzmq:gather.obj
 0002:000075f8       ??_7gather_t@zmq@@6Bi_poll_events@1@@ 00000001800865f8     libzmq:gather.obj
 0002:00007620       ??_7gather_t@zmq@@6Bi_pipe_events@1@@ 0000000180086620     libzmq:gather.obj
 0002:00007648       ??_C@_0BL@HCAOBOIG@?4?4?2?4?4?2?4?4?2?4?4?2src?2gather?4cpp?$AA@ 0000000180086648     libzmq:gather.obj
 0002:00007698       ??_7scatter_t@zmq@@6Bown_t@1@@ 0000000180086698     libzmq:scatter.obj
 0002:000077a0       ??_7scatter_t@zmq@@6B?$array_item_t@$0A@@1@@ 00000001800867a0     libzmq:scatter.obj
 0002:000077b0       ??_7scatter_t@zmq@@6Bi_poll_events@1@@ 00000001800867b0     libzmq:scatter.obj
 0002:000077d8       ??_7scatter_t@zmq@@6Bi_pipe_events@1@@ 00000001800867d8     libzmq:scatter.obj
 0002:00007800       ??_C@_0BM@HMHMPKIG@?4?4?2?4?4?2?4?4?2?4?4?2src?2scatter?4cpp?$AA@ 0000000180086800     libzmq:scatter.obj
 0002:00007878       ??_7dgram_t@zmq@@6Bown_t@1@@ 0000000180086878     libzmq:dgram.obj
 0002:00007980       ??_7dgram_t@zmq@@6B?$array_item_t@$0A@@1@@ 0000000180086980     libzmq:dgram.obj
 0002:00007990       ??_7dgram_t@zmq@@6Bi_poll_events@1@@ 0000000180086990     libzmq:dgram.obj
 0002:000079b8       ??_7dgram_t@zmq@@6Bi_pipe_events@1@@ 00000001800869b8     libzmq:dgram.obj
 0002:000079e0       ??_C@_0BK@PEAIMBEJ@?4?4?2?4?4?2?4?4?2?4?4?2src?2dgram?4cpp?$AA@ 00000001800869e0     libzmq:dgram.obj
 0002:00007b20       ??_7poller_base_t@zmq@@6B@ 0000000180086b20     libzmq:poller_base.obj
 0002:00007b28       ??_C@_0CA@BJEFCLI@?4?4?2?4?4?2?4?4?2?4?4?2src?2poller_base?4cpp?$AA@ 0000000180086b28     libzmq:poller_base.obj
 0002:00007b48       ??_C@_0BB@BFAJGGHN@get_load?5?$CI?$CJ?5?$DN?$DN?50?$AA@ 0000000180086b48     libzmq:poller_base.obj
 0002:00007b60       ??_C@_0BH@LODLOFOK@?4?4?2?4?4?2?4?4?2?4?4?2src?2ip?4cpp?$AA@ 0000000180086b60     libzmq:ip.obj
 0002:00007ba8       ??_7io_object_t@zmq@@6B@   0000000180086ba8     libzmq:io_object.obj
 0002:00007bc8       ??_C@_0BO@GIHIBJIB@?4?4?2?4?4?2?4?4?2?4?4?2src?2io_object?4cpp?$AA@ 0000000180086bc8     libzmq:io_object.obj
 0002:00007be8       ??_C@_0L@EEPKEMOK@io_thread_?$AA@ 0000000180086be8     libzmq:io_object.obj
 0002:00007bf8       ??_C@_07MEOMOPLC@?$CBpoller?$AA@ 0000000180086bf8     libzmq:io_object.obj
 0002:00007e60       ??_7i_engine@zmq@@6B@      0000000180086e60     libzmq:stream_engine.obj
 0002:00007e98       ??_7stream_engine_t@zmq@@6Bio_object_t@1@@ 0000000180086e98     libzmq:stream_engine.obj
 0002:00007ec0       ??_7stream_engine_t@zmq@@6Bi_engine@1@@ 0000000180086ec0     libzmq:stream_engine.obj
 0002:00007ef0       ??_C@_0CC@IJIICAHC@?4?4?2?4?4?2?4?4?2?4?4?2src?2stream_engine?4cp@ 0000000180086ef0     libzmq:stream_engine.obj
 0002:00007f18       ??_C@_08PFLLJFEN@?$CBplugged?$AA@ 0000000180086f18     libzmq:stream_engine.obj
 0002:00007f28       ??_C@_08LKDCBPEN@?$CBsession?$AA@ 0000000180086f28     libzmq:stream_engine.obj
 0002:00007f38       ??_C@_08JAOIFKJP@session_?$AA@ 0000000180086f38     libzmq:stream_engine.obj
 0002:00007f48       ??_C@_0BB@OILPMNHB@metadata?5?$DN?$DN?5NULL?$AA@ 0000000180086f48     libzmq:stream_engine.obj
 0002:00007f60       ??_C@_07ODBKMIGK@plugged?$AA@ 0000000180086f60     libzmq:stream_engine.obj
 0002:00007f68       ??_C@_09NEODDBOJ@?$CBio_error?$AA@ 0000000180086f68     libzmq:stream_engine.obj
 0002:00007f78       ??_C@_07GFKBACBG@decoder?$AA@ 0000000180086f78     libzmq:stream_engine.obj
 0002:00007f80       ??_C@_0BE@LPNNCPID@processed?5?$DM?$DN?5insize?$AA@ 0000000180086f80     libzmq:stream_engine.obj
 0002:00007f98       ??_C@_0M@GMJICDGE@handshaking?$AA@ 0000000180086f98     libzmq:stream_engine.obj
 0002:00007fa4       ??_C@_05EKPNOAPD@n?5?$DO?50?$AA@ 0000000180086fa4     libzmq:stream_engine.obj
 0002:00007fb0       ??_C@_0O@BPJGMMEA@input_stopped?$AA@ 0000000180086fb0     libzmq:stream_engine.obj
 0002:00007fc0       ??_C@_0BA@PLPDICID@session?5?$CB?$DN?5NULL?$AA@ 0000000180086fc0     libzmq:stream_engine.obj
 0002:00007fd0       ??_C@_0BA@OJLAFPCJ@decoder?5?$CB?$DN?5NULL?$AA@ 0000000180086fd0     libzmq:stream_engine.obj
 0002:00007fe0       ??_C@_0CE@FGIKMOCM@greeting_bytes_read?5?$DM?5greeting_s@ 0000000180086fe0     libzmq:stream_engine.obj
 0002:00008010       ??_C@_0IF@JBCDLNFE@options?4mechanism?5?$DN?$DN?5ZMQ_NULL?5?$HM?$HM@ 0000000180087010     libzmq:stream_engine.obj
 0002:00008098       ??_C@_05ONKJAIHP@PLAIN?$AA@ 0000000180087098     libzmq:stream_engine.obj
 0002:000080a0       ??_C@_06HIDJEBJA@GSSAPI?$AA@ 00000001800870a0     libzmq:stream_engine.obj
 0002:000080a8       ??_C@_05LDDJEIEO@CURVE?$AA@ 00000001800870a8     libzmq:stream_engine.obj
 0002:000080b0       ??_C@_0BL@DOKPLPFM@buffer_size?5?$DN?$DN?5header_size?$AA@ 00000001800870b0     libzmq:stream_engine.obj
 0002:000080d0       ??_C@_0BF@GMNEFFDM@NULL?$AA?$AA?$AA?$AA?$AA?$AA?$AA?$AA?$AA?$AA?$AA?$AA?$AA?$AA?$AA?$AA?$AA@ 00000001800870d0     libzmq:stream_engine.obj
 0002:000080e8       ??_C@_0BF@CDDGGBAL@PLAIN?$AA?$AA?$AA?$AA?$AA?$AA?$AA?$AA?$AA?$AA?$AA?$AA?$AA?$AA?$AA?$AA@ 00000001800870e8     libzmq:stream_engine.obj
 0002:00008100       ??_C@_0BF@NGPEOGBM@CURVE?$AA?$AA?$AA?$AA?$AA?$AA?$AA?$AA?$AA?$AA?$AA?$AA?$AA?$AA?$AA?$AA@ 0000000180087100     libzmq:stream_engine.obj
 0002:00008118       ??_C@_0BC@MCHNCFFK@mechanism?5?$CB?$DN?5NULL?$AA@ 0000000180087118     libzmq:stream_engine.obj
 0002:00008130       ??_C@_07KMJDECGK@session?$AA@ 0000000180087130     libzmq:stream_engine.obj
 0002:00008138       ??_C@_0BF@KFDGMEGI@?$CBhas_handshake_timer?$AA@ 0000000180087138     libzmq:stream_engine.obj
 0002:00008158       ??_7?$basic_ostringstream@DU?$char_traits@D@std@@V?$allocator@D@2@@std@@6B@ 0000000180087158     libzmq:stream_engine.obj
 0002:00008160       ??_8?$basic_ostringstream@DU?$char_traits@D@std@@V?$allocator@D@2@@std@@7B@ 0000000180087160     libzmq:stream_engine.obj
 0002:00008168       ??_C@_0N@DNJFDAFE@Peer?9Address?$AA@ 0000000180087168     libzmq:stream_engine.obj
 0002:00008178       ??_C@_05MOJPLNDO@?$AEPING?$AA@ 0000000180087178     libzmq:stream_engine.obj
 0002:00008180       ??_C@_05OLPEOCOC@?$AEPONG?$AA@ 0000000180087180     libzmq:stream_engine.obj
 0002:00008188       ??_C@_0BI@KJNOGNC@?4?4?2?4?4?2?4?4?2?4?4?2src?2tcp?4cpp?$AA@ 0000000180087188     libzmq:tcp.obj
 0002:00008248       ??_7tcp_connecter_t@zmq@@6Bown_t@1@@ 0000000180087248     libzmq:tcp_connecter.obj
 0002:000082e8       ??_7tcp_connecter_t@zmq@@6Bio_object_t@1@@ 00000001800872e8     libzmq:tcp_connecter.obj
 0002:00008308       ??_C@_0CC@JEFCJF@?4?4?2?4?4?2?4?4?2?4?4?2src?2tcp_connecter?4cp@ 0000000180087308     libzmq:tcp_connecter.obj
 0002:0000832c       ??_C@_04HLBMEOMD@addr?$AA@ 000000018008732c     libzmq:tcp_connecter.obj
 0002:00008338       ??_C@_0BI@CLKOJOBD@addr?9?$DOprotocol?5?$DN?$DN?5?$CCtcp?$CC?$AA@ 0000000180087338     libzmq:tcp_connecter.obj
 0002:00008350       ??_C@_0BH@BIEHHBKG@?$CBconnect_timer_started?$AA@ 0000000180087350     libzmq:tcp_connecter.obj
 0002:00008368       ??_C@_0BJ@ONEBIKOB@?$CBreconnect_timer_started?$AA@ 0000000180087368     libzmq:tcp_connecter.obj
 0002:00008388       ??_C@_0O@PKAJMMFB@?$CBhandle_valid?$AA@ 0000000180087388     libzmq:tcp_connecter.obj
 0002:00008398       ??_C@_0DF@OGIFKGFN@id_?5?$DN?$DN?5reconnect_timer_id?5?$HM?$HM?5id_@ 0000000180087398     libzmq:tcp_connecter.obj
 0002:000083d0       ??_C@_0CA@GKGEAKOM@addr?9?$DOresolved?4tcp_addr?5?$CB?$DN?5NULL?$AA@ 00000001800873d0     libzmq:tcp_connecter.obj
 0002:000083f0       ??_C@_0BG@GMFMDOIH@Operation?5would?5block?$AA@ 00000001800873f0     libzmq:tcp_connecter.obj
 0002:000084b0       ??_7socks_connecter_t@zmq@@6Bown_t@1@@ 00000001800874b0     libzmq:socks_connecter.obj
 0002:00008550       ??_7socks_connecter_t@zmq@@6Bio_object_t@1@@ 0000000180087550     libzmq:socks_connecter.obj
 0002:00008570       ??_C@_0CE@LBDFNIFG@?4?4?2?4?4?2?4?4?2?4?4?2src?2socks_connecter?4@ 0000000180087570     libzmq:socks_connecter.obj
 0002:00008598       ??_C@_0DM@ENNEPEAE@status?5?$CB?$DN?5unplugged?5?$CG?$CG?5status?5?$CB?$DN@ 0000000180087598     libzmq:socks_connecter.obj
 0002:000085e0       ??_C@_0GC@IKKDEKBO@status?5?$DN?$DN?5waiting_for_proxy_conn@ 00000001800875e0     libzmq:socks_connecter.obj
 0002:00008648       ??_C@_0CF@LKDBJAAE@greeting_encoder?4has_pending_dat@ 0000000180087648     libzmq:socks_connecter.obj
 0002:00008670       ??_C@_0CE@NMDLIDEE@request_encoder?4has_pending_data@ 0000000180087670     libzmq:socks_connecter.obj
 0002:00008698       ??_C@_0CF@DIFJINDF@status?5?$DN?$DN?5waiting_for_reconnect_@ 0000000180087698     libzmq:socks_connecter.obj
 0002:000086c0       ??_C@_0BK@OAEKMMPG@id_?5?$DN?$DN?5reconnect_timer_id?$AA@ 00000001800876c0     libzmq:socks_connecter.obj
 0002:000086e0       ??_C@_0CG@EFDFOGNB@proxy_addr?9?$DOresolved?4tcp_addr?5?$CB?$DN@ 00000001800876e0     libzmq:socks_connecter.obj
 0002:00008788       ??_7udp_engine_t@zmq@@6Bio_object_t@1@@ 0000000180087788     libzmq:udp_engine.obj
 0002:000087b0       ??_7udp_engine_t@zmq@@6Bi_engine@1@@ 00000001800877b0     libzmq:udp_engine.obj
 0002:000087e0       ??_C@_0BP@KAHIMLMK@?4?4?2?4?4?2?4?4?2?4?4?2src?2udp_engine?4cpp?$AA@ 00000001800877e0     libzmq:udp_engine.obj
 0002:00008800       ??_C@_08HMJAHEBG@address_?$AA@ 0000000180087800     libzmq:udp_engine.obj
 0002:00008810       ??_C@_0P@DNAINCMD@send_?5?$HM?$HM?5recv_?$AA@ 0000000180087810     libzmq:udp_engine.obj
 0002:00008820       ??_C@_02DPKJAMEF@?$CFd?$AA@ 0000000180087820     libzmq:udp_engine.obj
 0002:00008878       ??_C@_0BK@ECOMFIDN@?4?4?2?4?4?2?4?4?2?4?4?2src?2mtrie?4cpp?$AA@ 0000000180087878     libzmq:mtrie.obj
 0002:00008898       ??_C@_09INIIKPJN@next?4node?$AA@ 0000000180087898     libzmq:mtrie.obj
 0002:000088a8       ??_C@_0BA@CLOIJDMG@live_nodes?5?$DN?$DN?50?$AA@ 00000001800878a8     libzmq:mtrie.obj
 0002:000088b8       ??_C@_0P@DGJJOJIK@live_nodes?5?$DO?50?$AA@ 00000001800878b8     libzmq:mtrie.obj
 0002:000088c8       ??_C@_09CFNAGANA@count?5?$DO?51?$AA@ 00000001800878c8     libzmq:mtrie.obj
 0002:000088d8       ??_C@_0BD@IAALAANE@new_min?5?$DN?$DN?5new_max?$AA@ 00000001800878d8     libzmq:mtrie.obj
 0002:000088f0       ??_C@_0CI@FJMOOFEM@new_min?5?$DO?$DN?5min?5?$CG?$CG?5new_min?5?$DM?5min?5@ 00000001800878f0     libzmq:mtrie.obj
 0002:00008918       ??_C@_04CLMONKIF@node?$AA@ 0000000180087918     libzmq:mtrie.obj
 0002:00008920       ??_C@_0BK@OKBPCONB@new_max?5?9?5new_min?5?$CL?51?5?$DO?51?$AA@ 0000000180087920     libzmq:mtrie.obj
 0002:00008940       ??_C@_0CL@OFEFFNKO@new_min?5?$DO?5min?5?$HM?$HM?5new_max?5?$DM?5min?5?$CL@ 0000000180087940     libzmq:mtrie.obj
 0002:00008970       ??_C@_0P@CJFPEPKO@new_min?5?$DO?$DN?5min?$AA@ 0000000180087970     libzmq:mtrie.obj
 0002:00008980       ??_C@_0BL@OFFMOADF@new_max?5?$DM?$DN?5min?5?$CL?5count?5?9?51?$AA@ 0000000180087980     libzmq:mtrie.obj
 0002:000089a0       ??_C@_0BO@GMEEPEIF@new_max?5?9?5new_min?5?$CL?51?5?$DM?5count?$AA@ 00000001800879a0     libzmq:mtrie.obj
 0002:000089c0       ??_C@_0M@CACAIHOC@erased?5?$DN?$DN?51?$AA@ 00000001800879c0     libzmq:mtrie.obj
 0002:000089d0       ??_C@_09DMMLFBJB@count?5?$DO?50?$AA@ 00000001800879d0     libzmq:mtrie.obj
 0002:000089e0       ??_C@_0P@CPICNIML@live_nodes?5?$DO?51?$AA@ 00000001800879e0     libzmq:mtrie.obj
 0002:000089f0       ??_C@_09GOFANCCA@i?5?$DM?5count?$AA@ 00000001800879f0     libzmq:mtrie.obj
 0002:00008a28       ??_C@_0BJ@ENKFMNE@?4?4?2?4?4?2?4?4?2?4?4?2src?2dist?4cpp?$AA@ 0000000180087a28     libzmq:dist.obj
 0002:00008a48       ??_C@_0P@DHIDHNJO@pipes?4empty?5?$CI?$CJ?$AA@ 0000000180087a48     libzmq:dist.obj
 0002:00008aa8       ??_C@_0BH@IDCPEGKG@?4?4?2?4?4?2?4?4?2?4?4?2src?2fq?4cpp?$AA@ 0000000180087aa8     libzmq:fq.obj
 0002:00008ac0       ??_C@_05MPNFPPLK@?$CBmore?$AA@ 0000000180087ac0     libzmq:fq.obj
 0002:00008af0       ??_C@_0BJ@ICOPCBGG@?4?4?2?4?4?2?4?4?2?4?4?2src?2trie?4cpp?$AA@ 0000000180087af0     libzmq:trie.obj
 0002:00008b10       ??_C@_0L@KBHOADHL@next?4table?$AA@ 0000000180087b10     libzmq:trie.obj
 0002:00008b20       ??_C@_0BA@DCPDKCIH@live_nodes?5?$DN?$DN?51?$AA@ 0000000180087b20     libzmq:trie.obj
 0002:00008b30       ??_C@_0P@LIMJKDIJ@new_min?5?$CB?$DN?5min?$AA@ 0000000180087b30     libzmq:trie.obj
 0002:00008b40       ??_C@_0O@JFMKJHOO@new_min?5?$DO?5min?$AA@ 0000000180087b40     libzmq:trie.obj
 0002:00008b50       ??_C@_0BG@JDAKCPFA@count?5?$DO?5new_min?5?9?5min?$AA@ 0000000180087b50     libzmq:trie.obj
 0002:00008b68       ??_C@_0BD@LBLADGEA@new_count?5?$CB?$DN?5count?$AA@ 0000000180087b68     libzmq:trie.obj
 0002:00008b7c       ??_C@_06BCGENJGL@?$CKbuff_?$AA@ 0000000180087b7c     libzmq:trie.obj
 0002:00008bb0       ??_C@_0BH@KCBNGJNN@?4?4?2?4?4?2?4?4?2?4?4?2src?2lb?4cpp?$AA@ 0000000180087bb0     libzmq:lb.obj
 0002:00008bf8       ??_7i_encoder@zmq@@6B@     0000000180087bf8     libzmq:v1_encoder.obj
 0002:00008c18       ??_7?$encoder_base_t@Vv1_encoder_t@zmq@@@zmq@@6B@ 0000000180087c18     libzmq:v1_encoder.obj
 0002:00008c38       ??_7v1_encoder_t@zmq@@6B@  0000000180087c38     libzmq:v1_encoder.obj
 0002:00008c50       ??_C@_0EH@CHJONOAJ@c?3?2users?2lukasgeiger?2desktop?2zer@ 0000000180087c50     libzmq:v1_encoder.obj
 0002:00008c98       ??_C@_0BE@FHMDGLP@in_progress?5?$DN?$DN?5NULL?$AA@ 0000000180087c98     libzmq:v1_encoder.obj
 0002:00008d00       ??_C@_0FC@LBACDIAN@c?3?2users?2lukasgeiger?2desktop?2zer@ 0000000180087d00     libzmq:v1_decoder.obj
 0002:00008d60       ??_7i_decoder@zmq@@6B@     0000000180087d60     libzmq:v1_decoder.obj
 0002:00008d90       ??_7?$decoder_base_t@Vv1_decoder_t@zmq@@Vc_single_allocator@2@@zmq@@6B@ 0000000180087d90     libzmq:v1_decoder.obj
 0002:00008dc0       ??_7v1_decoder_t@zmq@@6B@  0000000180087dc0     libzmq:v1_decoder.obj
 0002:00008de8       ??_C@_0BP@CKOPFCCJ@?4?4?2?4?4?2?4?4?2?4?4?2src?2v1_decoder?4cpp?$AA@ 0000000180087de8     libzmq:v1_decoder.obj
 0002:00008e10       ??_C@_0EH@JPBKBFCC@c?3?2users?2lukasgeiger?2desktop?2zer@ 0000000180087e10     libzmq:v1_decoder.obj
 0002:00008e58       ??_C@_0BB@OIDMJHDA@size_?5?$DM?$DN?5to_read?$AA@ 0000000180087e58     libzmq:v1_decoder.obj
 0002:00008ea0       ??_7?$encoder_base_t@Vv2_encoder_t@zmq@@@zmq@@6B@ 0000000180087ea0     libzmq:v2_encoder.obj
 0002:00008ec0       ??_7v2_encoder_t@zmq@@6B@  0000000180087ec0     libzmq:v2_encoder.obj
 0002:00008f80       ??_7?$decoder_base_t@Vv2_decoder_t@zmq@@Vshared_message_memory_allocator@2@@zmq@@6B@ 0000000180087f80     libzmq:v2_decoder.obj
 0002:00008fb0       ??_7v2_decoder_t@zmq@@6B@  0000000180087fb0     libzmq:v2_decoder.obj
 0002:00008fd8       ??_C@_0BP@FGIOHHPC@?4?4?2?4?4?2?4?4?2?4?4?2src?2v2_decoder?4cpp?$AA@ 0000000180087fd8     libzmq:v2_decoder.obj
 0002:00009118       ??_7mechanism_t@zmq@@6B@   0000000180088118     libzmq:mechanism.obj
 0002:00009158       ??_C@_0BO@NBOAKOGH@?4?4?2?4?4?2?4?4?2?4?4?2src?2mechanism?4cpp?$AA@ 0000000180088158     libzmq:mechanism.obj
 0002:00009178       ??_C@_07KNDCFFML@User?9Id?$AA@ 0000000180088178     libzmq:mechanism.obj
 0002:00009180       ??_C@_04NFKAHBOI@PAIR?$AA@ 0000000180088180     libzmq:mechanism.obj
 0002:00009188       ??_C@_03LNIOOOJN@PUB?$AA@  0000000180088188     libzmq:mechanism.obj
 0002:0000918c       ??_C@_03KPDLEBHD@SUB?$AA@  000000018008818c     libzmq:mechanism.obj
 0002:00009190       ??_C@_03GKEOMEPE@REQ?$AA@  0000000180088190     libzmq:mechanism.obj
 0002:00009194       ??_C@_03HDFFPFLF@REP?$AA@  0000000180088194     libzmq:mechanism.obj
 0002:00009198       ??_C@_06MHMPAMLF@DEALER?$AA@ 0000000180088198     libzmq:mechanism.obj
 0002:000091a0       ??_C@_06GCJHMIBF@ROUTER?$AA@ 00000001800881a0     libzmq:mechanism.obj
 0002:000091a8       ??_C@_04NIFBEMBE@PULL?$AA@ 00000001800881a8     libzmq:mechanism.obj
 0002:000091b0       ??_C@_04KLEHGNFN@PUSH?$AA@ 00000001800881b0     libzmq:mechanism.obj
 0002:000091b8       ??_C@_04FCILECJG@XPUB?$AA@ 00000001800881b8     libzmq:mechanism.obj
 0002:000091c0       ??_C@_04EADOONHI@XSUB?$AA@ 00000001800881c0     libzmq:mechanism.obj
 0002:000091c8       ??_C@_06DNCHHLFB@STREAM?$AA@ 00000001800881c8     libzmq:mechanism.obj
 0002:000091d0       ??_C@_06HNFCPEFM@SERVER?$AA@ 00000001800881d0     libzmq:mechanism.obj
 0002:000091d8       ??_C@_06DCBACPNP@CLIENT?$AA@ 00000001800881d8     libzmq:mechanism.obj
 0002:000091e0       ??_C@_05HGDEKMLG@RADIO?$AA@ 00000001800881e0     libzmq:mechanism.obj
 0002:000091e8       ??_C@_04CEOILEDI@DISH?$AA@ 00000001800881e8     libzmq:mechanism.obj
 0002:000091f0       ??_C@_06EKNENLJL@GATHER?$AA@ 00000001800881f0     libzmq:mechanism.obj
 0002:000091f8       ??_C@_07IHLDODJN@SCATTER?$AA@ 00000001800881f8     libzmq:mechanism.obj
 0002:00009200       ??_C@_05GFKMIDOJ@DGRAM?$AA@ 0000000180088200     libzmq:mechanism.obj
 0002:00009208       ??_C@_0CG@OODBFLGN@socket_type?5?$DO?$DN?50?5?$CG?$CG?5socket_type?5@ 0000000180088208     libzmq:mechanism.obj
 0002:00009230       ??_C@_0BA@FLNENANC@name_len?5?$DM?$DN?5255?$AA@ 0000000180088230     libzmq:mechanism.obj
 0002:00009240       ??_C@_0BI@NFPEEFJL@value_len?5?$DM?$DN?50x7FFFFFFF?$AA@ 0000000180088240     libzmq:mechanism.obj
 0002:00009258       ??_C@_08DDGPABJB@Identity?$AA@ 0000000180088258     libzmq:mechanism.obj
 0002:00009268       ??_C@_0M@EEMEEODI@Socket?9Type?$AA@ 0000000180088268     libzmq:mechanism.obj
 0002:000092a8       ??_7null_mechanism_t@zmq@@6B@ 00000001800882a8     libzmq:null_mechanism.obj
 0002:000092e8       ??_C@_03HPLEMDKK@200?$AA@  00000001800882e8     libzmq:null_mechanism.obj
 0002:000092f0       ??_C@_0CD@MGEFGPAB@?4?4?2?4?4?2?4?4?2?4?4?2src?2null_mechanism?4c@ 00000001800882f0     libzmq:null_mechanism.obj
 0002:00009314       ??_C@_06LPKCDKFA@?$AFERROR?$AA@ 0000000180088314     libzmq:null_mechanism.obj
 0002:0000931c       ??_C@_06NOLMINLK@?$AFREADY?$AA@ 000000018008831c     libzmq:null_mechanism.obj
 0002:00009328       ??_C@_0DN@LFNICIN@NULL?5I?3?5client?5sent?5invalid?5NULL@ 0000000180088328     libzmq:null_mechanism.obj
 0002:00009368       ??_C@_0DH@PFIMMDNP@NULL?5I?3?5client?5sent?5invalid?5NULL@ 0000000180088368     libzmq:null_mechanism.obj
 0002:000093a0       ??_C@_03HLLJOCDO@1?40?$AA@ 00000001800883a0     libzmq:null_mechanism.obj
 0002:000093a4       ??_C@_01HIHLOKLC@1?$AA@    00000001800883a4     libzmq:null_mechanism.obj
 0002:000093a8       ??_C@_0DC@MHECNOL@NULL?5I?3?5ZAP?5handler?5sent?5incompl@ 00000001800883a8     libzmq:null_mechanism.obj
 0002:000093e0       ??_C@_0DB@HAEKILLN@NULL?5I?3?5ZAP?5handler?5sent?5malform@ 00000001800883e0     libzmq:null_mechanism.obj
 0002:00009418       ??_C@_0CM@MMDFMHMD@NULL?5I?3?5ZAP?5handler?5sent?5bad?5ver@ 0000000180088418     libzmq:null_mechanism.obj
 0002:00009448       ??_C@_0CI@MBLJHBDA@NULL?5I?3?5ZAP?5handler?5sent?5bad?5req@ 0000000180088448     libzmq:null_mechanism.obj
 0002:00009470       ??_C@_0DD@CIPHAKNO@NULL?5I?3?5ZAP?5handler?5rejected?5cli@ 0000000180088470     libzmq:null_mechanism.obj
 0002:000094d8       ??_7plain_client_t@zmq@@6B@ 00000001800884d8     libzmq:plain_client.obj
 0002:00009518       ??_C@_08GFLFCDKP@?$AHWELCOME?$AA@ 0000000180088518     libzmq:plain_client.obj
 0002:00009528       ??_C@_0CD@OOHEKLMA@PLAIN?5I?3?5invalid?5handshake?5comma@ 0000000180088528     libzmq:plain_client.obj
 0002:00009550       ??_C@_0CB@KKNOHDAC@?4?4?2?4?4?2?4?4?2?4?4?2src?2plain_client?4cpp@ 0000000180088550     libzmq:plain_client.obj
 0002:00009578       ??_C@_0BJ@HNNPMCCG@username?4length?5?$CI?$CJ?5?$DM?5256?$AA@ 0000000180088578     libzmq:plain_client.obj
 0002:00009598       ??_C@_0BJ@CJJCPDFB@password?4length?5?$CI?$CJ?5?$DM?5256?$AA@ 0000000180088598     libzmq:plain_client.obj
 0002:000095b4       ??_C@_06JMBAJAPF@?$AFHELLO?$AA@ 00000001800885b4     libzmq:plain_client.obj
 0002:000095c0       ??_C@_09JHPIPAPJ@?$AIINITIATE?$AA@ 00000001800885c0     libzmq:plain_client.obj
 0002:00009628       ??_7plain_server_t@zmq@@6B@ 0000000180088628     libzmq:plain_server.obj
 0002:00009668       ??_C@_0CB@PAMCMBIA@?4?4?2?4?4?2?4?4?2?4?4?2src?2plain_server?4cpp@ 0000000180088668     libzmq:plain_server.obj
 0002:00009690       ??_C@_0DC@FGDANHJA@PLAIN?5I?3?5invalid?5PLAIN?5client?0?5d@ 0000000180088690     libzmq:plain_server.obj
 0002:000096c8       ??_C@_0DF@MKIEONHM@PLAIN?5I?3?5invalid?5PLAIN?5client?0?5d@ 00000001800886c8     libzmq:plain_server.obj
 0002:00009700       ??_C@_0DH@KBKLDCBJ@PLAIN?5I?3?5invalid?5PLAIN?5client?0?5s@ 0000000180088700     libzmq:plain_server.obj
 0002:00009738       ??_C@_0DF@PCJBLDPI@PLAIN?5I?3?5invalid?5PLAIN?5client?0?5d@ 0000000180088738     libzmq:plain_server.obj
 0002:00009770       ??_C@_0DH@JJLOGMJN@PLAIN?5I?3?5invalid?5PLAIN?5client?0?5s@ 0000000180088770     libzmq:plain_server.obj
 0002:000097a8       ??_C@_0DE@ONKFGCHB@PLAIN?5I?3?5invalid?5PLAIN?5client?0?5s@ 00000001800887a8     libzmq:plain_server.obj
 0002:000097e0       ??_C@_0DF@KIEMILEC@PLAIN?5I?3?5invalid?5PLAIN?5client?0?5d@ 00000001800887e0     libzmq:plain_server.obj
 0002:00009818       ??_C@_0BL@LMICGMBI@status_code?4length?5?$CI?$CJ?5?$DN?$DN?53?$AA@ 0000000180088818     libzmq:plain_server.obj
 0002:00009838       ??_C@_0DD@HLBOBEEH@PLAIN?5I?3?5ZAP?5handler?5sent?5incomp@ 0000000180088838     libzmq:plain_server.obj
 0002:00009870       ??_C@_0DC@BNEDLBLM@PLAIN?5I?3?5ZAP?5handler?5sent?5malfor@ 0000000180088870     libzmq:plain_server.obj
 0002:000098a8       ??_C@_0CN@CNAKHFME@PLAIN?5I?3?5ZAP?5handler?5sent?5bad?5ve@ 00000001800888a8     libzmq:plain_server.obj
 0002:000098d8       ??_C@_0CJ@PHCOJPPI@PLAIN?5I?3?5ZAP?5handler?5sent?5bad?5re@ 00000001800888d8     libzmq:plain_server.obj
 0002:00009908       ??_C@_0DE@PHOAIPCE@PLAIN?5I?3?5ZAP?5handler?5rejected?5cl@ 0000000180088908     libzmq:plain_server.obj
 0002:00009970       ??_7curve_client_t@zmq@@6B@ 0000000180088970     libzmq:curve_client.obj
 0002:000099b0       ??_C@_0CB@FHLJEDLE@?4?4?2?4?4?2?4?4?2?4?4?2src?2curve_client?4cpp@ 00000001800889b0     libzmq:curve_client.obj
 0002:000099d8       ??_C@_0BD@LJLAPAKO@state?5?$DN?$DN?5connected?$AA@ 00000001800889d8     libzmq:curve_client.obj
 0002:000099f0       ??_C@_0BB@LHMMEMHH@CurveZMQMESSAGEC?$AA@ 00000001800889f0     libzmq:curve_client.obj
 0002:00009a08       ??_C@_08PHOGNLGF@?$AHMESSAGE?$AA@ 0000000180088a08     libzmq:curve_client.obj
 0002:00009a18       ??_C@_0BB@PNAOFOCG@CurveZMQMESSAGES?$AA@ 0000000180088a18     libzmq:curve_client.obj
 0002:00009a30       ??_C@_0BB@MIFMCAOG@CurveZMQHELLO?9?9?9?$AA@ 0000000180088a30     libzmq:curve_client.obj
 0002:00009a48       ??_C@_0BB@DHEEIIMJ@CurveZMQINITIATE?$AA@ 0000000180088a48     libzmq:curve_client.obj
 0002:00009a60       ??_C@_0BB@JDJGGJIG@CurveZMQREADY?9?9?9?$AA@ 0000000180088a60     libzmq:curve_client.obj
 0002:00009aa8       ??_7curve_server_t@zmq@@6B@ 0000000180088aa8     libzmq:curve_server.obj
 0002:00009ae8       ??_C@_0CB@NKFPBDG@?4?4?2?4?4?2?4?4?2?4?4?2src?2curve_server?4cpp@ 0000000180088ae8     libzmq:curve_server.obj
 0002:00009b10       ??_C@_0CD@HEBJJDIC@CURVE?5I?3?5invalid?5handshake?5comma@ 0000000180088b10     libzmq:curve_server.obj
 0002:00009b38       ??_C@_0DG@EJLKGAKP@CURVE?5I?3?5invalid?5CURVE?5client?0?5s@ 0000000180088b38     libzmq:curve_server.obj
 0002:00009b70       ??_C@_0DE@DBPIFLDF@CURVE?5I?3?5invalid?5CURVE?5client?0?5d@ 0000000180088b70     libzmq:curve_server.obj
 0002:00009ba8       ??_C@_0DC@DFKLFGDM@CURVE?5I?3?5connection?5key?5used?5for@ 0000000180088ba8     libzmq:curve_server.obj
 0002:00009be0       ??_C@_0CK@DAPMKALN@CURVE?5I?3?5client?5HELLO?5is?5not?5cor@ 0000000180088be0     libzmq:curve_server.obj
 0002:00009c10       ??_C@_0CP@DLEIDHOF@CURVE?5I?3?5client?5HELLO?5has?5invali@ 0000000180088c10     libzmq:curve_server.obj
 0002:00009c40       ??_C@_0DB@OGFLNKNE@CURVE?5I?3?5client?5HELLO?5has?5unknow@ 0000000180088c40     libzmq:curve_server.obj
 0002:00009c78       ??_C@_0DH@DJGCFAFG@CURVE?5I?3?5cannot?5open?5client?5HELL@ 0000000180088c78     libzmq:curve_server.obj
 0002:00009cb0       ??_C@_0CN@JCNMKJJF@CURVE?5I?3?5client?5INITIATE?5is?5not?5@ 0000000180088cb0     libzmq:curve_server.obj
 0002:00009ce0       ??_C@_0DC@BDINIECB@CURVE?5I?3?5client?5INITIATE?5has?5inv@ 0000000180088ce0     libzmq:curve_server.obj
 0002:00009d18       ??_C@_0CM@CFNKADEG@CURVE?5I?3?5cannot?5open?5client?5INIT@ 0000000180088d18     libzmq:curve_server.obj
 0002:00009d48       ??_C@_0CN@MKIDHIID@CURVE?5I?3?5client?5INITIATE?5cookie?5@ 0000000180088d48     libzmq:curve_server.obj
 0002:00009d78       ??_C@_0CF@LHKHMLDB@CURVE?5I?3?5cannot?5open?5client?5INIT@ 0000000180088d78     libzmq:curve_server.obj
 0002:00009da0       ??_C@_0CL@PDLODHEP@CURVE?5I?3?5cannot?5open?5client?5INIT@ 0000000180088da0     libzmq:curve_server.obj
 0002:00009dd0       ??_C@_0DE@HMHGBPMK@CURVE?5I?3?5invalid?5handshake?5from?5@ 0000000180088dd0     libzmq:curve_server.obj
 0002:00009e08       ??_C@_0DD@MEPLLABB@CURVE?5I?3?5ZAP?5handler?5sent?5incomp@ 0000000180088e08     libzmq:curve_server.obj
 0002:00009e40       ??_C@_0DC@CIIGPBIP@CURVE?5I?3?5ZAP?5handler?5sent?5malfor@ 0000000180088e40     libzmq:curve_server.obj
 0002:00009e78       ??_C@_0CN@CCPKFMIL@CURVE?5I?3?5ZAP?5handler?5sent?5bad?5ve@ 0000000180088e78     libzmq:curve_server.obj
 0002:00009ea8       ??_C@_0CJ@BNCHNFCA@CURVE?5I?3?5ZAP?5handler?5sent?5bad?5re@ 0000000180088ea8     libzmq:curve_server.obj
 0002:00009ed8       ??_C@_0DE@HFFHJOEB@CURVE?5I?3?5ZAP?5handler?5rejected?5cl@ 0000000180088ed8     libzmq:curve_server.obj
 0002:00009f68       ??_7raw_decoder_t@zmq@@6B@ 0000000180088f68     libzmq:raw_decoder.obj
 0002:00009f90       ??_C@_0CA@DFKLGELL@?4?4?2?4?4?2?4?4?2?4?4?2src?2raw_decoder?4cpp?$AA@ 0000000180088f90     libzmq:raw_decoder.obj
 0002:00009fe0       ??_7?$encoder_base_t@Vraw_encoder_t@zmq@@@zmq@@6B@ 0000000180088fe0     libzmq:raw_encoder.obj
 0002:0000a000       ??_7raw_encoder_t@zmq@@6B@ 0000000180089000     libzmq:raw_encoder.obj
 0002:0000a068       ??_C@_0BK@KHBPPENA@?4?4?2?4?4?2?4?4?2?4?4?2src?2socks?4cpp?$AA@ 0000000180089068     libzmq:socks.obj
 0002:0000a088       ??_C@_0P@DFDFJFEP@bytes_read?5?$DM?52?$AA@ 0000000180089088     libzmq:socks.obj
 0002:0000a098       ??_C@_0BB@KNFNAHMF@message_ready?5?$CI?$CJ?$AA@ 0000000180089098     libzmq:socks.obj
 0002:0000a0b0       ??_C@_0BP@HIGDNGLJ@hostname_?4size?5?$CI?$CJ?5?$DM?$DN?5UINT8_MAX?$AA@ 00000001800890b0     libzmq:socks.obj
 0002:0000a0d0       ??_C@_0CB@OOPLJKDH@req?4hostname?4size?$CI?$CJ?5?$DM?$DN?5UINT8_MAX@ 00000001800890d0     libzmq:socks.obj
 0002:0000a0f8       ??_C@_0CN@EBFLLKAM@atyp?5?$DN?$DN?50x01?5?$HM?$HM?5atyp?5?$DN?$DN?50x03?5?$HM?$HM?5@ 00000001800890f8     libzmq:socks.obj
 0002:0000a128       ??_C@_0CH@DNJEBCCA@?4?4?2?4?4?2?4?4?2?4?4?2src?2decoder_allocato@ 0000000180089128     libzmq:decoder_allocators.obj
 0002:0000a150       ??_C@_04NPKLNGDP@hint?$AA@ 0000000180089150     libzmq:decoder_allocators.obj
 0002:0000a158       __real@4040800000000000    0000000180089158     libzmq:decoder_allocators.obj
 0002:0000a160       in6addr_any                0000000180089160     ws2_32:indef.obj
 0002:0000a178       ??_7bad_alloc@std@@6B@     0000000180089178     libcpmt:xthrow.obj
 0002:0000a188       ??_C@_0P@GHFPNOJB@bad?5allocation?$AA@ 0000000180089188     libcpmt:xthrow.obj
 0002:0000a1a0       ??_7logic_error@std@@6B@   00000001800891a0     libcpmt:xthrow.obj
 0002:0000a1b8       ??_7length_error@std@@6B@  00000001800891b8     libcpmt:xthrow.obj
 0002:0000a1d0       ??_7out_of_range@std@@6B@  00000001800891d0     libcpmt:xthrow.obj
 0002:0000a2b0       ??_7_Locimp@locale@std@@6B@ 00000001800892b0     libcpmt:locale0.obj
 0002:0000a2c8       ??_C@_01GFHCPBMG@C?$AA@    00000001800892c8     libcpmt:locale0.obj
 0002:0000aa00       ??_C@_0BN@LKKBCCDB@address?5family?5not?5supported?$AA@ 0000000180089a00     libcpmt:syserror.obj
 0002:0000aa20       ??_C@_0P@LDMLAFHI@address?5in?5use?$AA@ 0000000180089a20     libcpmt:syserror.obj
 0002:0000aa30       ??_C@_0BG@DHPCNBJB@address?5not?5available?$AA@ 0000000180089a30     libcpmt:syserror.obj
 0002:0000aa48       ??_C@_0BC@DFIBIBIL@already?5connected?$AA@ 0000000180089a48     libcpmt:syserror.obj
 0002:0000aa60       ??_C@_0BH@CAKOHOMI@argument?5list?5too?5long?$AA@ 0000000180089a60     libcpmt:syserror.obj
 0002:0000aa78       ??_C@_0BH@CGIMPKIM@argument?5out?5of?5domain?$AA@ 0000000180089a78     libcpmt:syserror.obj
 0002:0000aa90       ??_C@_0M@KGHGGJGL@bad?5address?$AA@ 0000000180089a90     libcpmt:syserror.obj
 0002:0000aaa0       ??_C@_0BE@MPJPGCEO@bad?5file?5descriptor?$AA@ 0000000180089aa0     libcpmt:syserror.obj
 0002:0000aab8       ??_C@_0M@PMMIEFCP@bad?5message?$AA@ 0000000180089ab8     libcpmt:syserror.obj
 0002:0000aac8       ??_C@_0M@KPHOFDBE@broken?5pipe?$AA@ 0000000180089ac8     libcpmt:syserror.obj
 0002:0000aad8       ??_C@_0BD@MGNDDEGM@connection?5aborted?$AA@ 0000000180089ad8     libcpmt:syserror.obj
 0002:0000aaf0       ??_C@_0BP@KAIHPOGN@connection?5already?5in?5progress?$AA@ 0000000180089af0     libcpmt:syserror.obj
 0002:0000ab10       ??_C@_0BD@PJLIIJEL@connection?5refused?$AA@ 0000000180089b10     libcpmt:syserror.obj
 0002:0000ab28       ??_C@_0BB@IECNJNOI@connection?5reset?$AA@ 0000000180089b28     libcpmt:syserror.obj
 0002:0000ab40       ??_C@_0BC@PPHBOELF@cross?5device?5link?$AA@ 0000000180089b40     libcpmt:syserror.obj
 0002:0000ab58       ??_C@_0BN@KDMIFEIP@destination?5address?5required?$AA@ 0000000180089b58     libcpmt:syserror.obj
 0002:0000ab78       ??_C@_0BI@NGCEHDD@device?5or?5resource?5busy?$AA@ 0000000180089b78     libcpmt:syserror.obj
 0002:0000ab90       ??_C@_0BE@JIDOCPHM@directory?5not?5empty?$AA@ 0000000180089b90     libcpmt:syserror.obj
 0002:0000aba8       ??_C@_0BI@BNCLIGPB@executable?5format?5error?$AA@ 0000000180089ba8     libcpmt:syserror.obj
 0002:0000abc0       ??_C@_0M@MIDIAGJP@file?5exists?$AA@ 0000000180089bc0     libcpmt:syserror.obj
 0002:0000abd0       ??_C@_0P@DNAJLBJK@file?5too?5large?$AA@ 0000000180089bd0     libcpmt:syserror.obj
 0002:0000abe0       ??_C@_0BC@EJHOMAAK@filename?5too?5long?$AA@ 0000000180089be0     libcpmt:syserror.obj
 0002:0000abf8       ??_C@_0BH@KEFGLDAF@function?5not?5supported?$AA@ 0000000180089bf8     libcpmt:syserror.obj
 0002:0000ac10       ??_C@_0BB@DHFDFGDM@host?5unreachable?$AA@ 0000000180089c10     libcpmt:syserror.obj
 0002:0000ac28       ??_C@_0BD@JPHBMONG@identifier?5removed?$AA@ 0000000180089c28     libcpmt:syserror.obj
 0002:0000ac40       ??_C@_0BG@CDNPAGJK@illegal?5byte?5sequence?$AA@ 0000000180089c40     libcpmt:syserror.obj
 0002:0000ac58       ??_C@_0CD@BNPLBMNA@inappropriate?5io?5control?5operati@ 0000000180089c58     libcpmt:syserror.obj
 0002:0000ac80       ??_C@_0M@EGEKIIMP@interrupted?$AA@ 0000000180089c80     libcpmt:syserror.obj
 0002:0000ac90       ??_C@_0BB@FCMFBGOM@invalid?5argument?$AA@ 0000000180089c90     libcpmt:syserror.obj
 0002:0000aca8       ??_C@_0N@OHAFKDEK@invalid?5seek?$AA@ 0000000180089ca8     libcpmt:syserror.obj
 0002:0000acb8       ??_C@_08GLNPIFBN@io?5error?$AA@ 0000000180089cb8     libcpmt:syserror.obj
 0002:0000acc8       ??_C@_0P@FLLDBIDK@is?5a?5directory?$AA@ 0000000180089cc8     libcpmt:syserror.obj
 0002:0000acd8       ??_C@_0N@IFLPBIOP@message?5size?$AA@ 0000000180089cd8     libcpmt:syserror.obj
 0002:0000ace8       ??_C@_0N@KIIEAAIO@network?5down?$AA@ 0000000180089ce8     libcpmt:syserror.obj
 0002:0000acf8       ??_C@_0O@FNPDBHEE@network?5reset?$AA@ 0000000180089cf8     libcpmt:syserror.obj
 0002:0000ad08       ??_C@_0BE@IFNCKGE@network?5unreachable?$AA@ 0000000180089d08     libcpmt:syserror.obj
 0002:0000ad20       ??_C@_0BA@PFFCAOFK@no?5buffer?5space?$AA@ 0000000180089d20     libcpmt:syserror.obj
 0002:0000ad30       ??_C@_0BB@IEPBLJHK@no?5child?5process?$AA@ 0000000180089d30     libcpmt:syserror.obj
 0002:0000ad48       ??_C@_07PLECNNKG@no?5link?$AA@ 0000000180089d48     libcpmt:syserror.obj
 0002:0000ad50       ??_C@_0BC@NJECKMKE@no?5lock?5available?$AA@ 0000000180089d50     libcpmt:syserror.obj
 0002:0000ad68       ??_C@_0BF@PBGGPKKE@no?5message?5available?$AA@ 0000000180089d68     libcpmt:syserror.obj
 0002:0000ad80       ??_C@_0L@EDOLMPAK@no?5message?$AA@ 0000000180089d80     libcpmt:syserror.obj
 0002:0000ad90       ??_C@_0BD@EAMBFIDF@no?5protocol?5option?$AA@ 0000000180089d90     libcpmt:syserror.obj
 0002:0000ada8       ??_C@_0BD@IJDJKDEA@no?5space?5on?5device?$AA@ 0000000180089da8     libcpmt:syserror.obj
 0002:0000adc0       ??_C@_0BE@MKFDAFMP@no?5stream?5resources?$AA@ 0000000180089dc0     libcpmt:syserror.obj
 0002:0000add8       ??_C@_0BK@IMCPHCBI@no?5such?5device?5or?5address?$AA@ 0000000180089dd8     libcpmt:syserror.obj
 0002:0000adf8       ??_C@_0P@FDINDDOK@no?5such?5device?$AA@ 0000000180089df8     libcpmt:syserror.obj
 0002:0000ae08       ??_C@_0BK@NDOCBPGE@no?5such?5file?5or?5directory?$AA@ 0000000180089e08     libcpmt:syserror.obj
 0002:0000ae28       ??_C@_0BA@ENLPPKBN@no?5such?5process?$AA@ 0000000180089e28     libcpmt:syserror.obj
 0002:0000ae38       ??_C@_0BA@DOCPFFJG@not?5a?5directory?$AA@ 0000000180089e38     libcpmt:syserror.obj
 0002:0000ae48       ??_C@_0N@POEIPGGF@not?5a?5socket?$AA@ 0000000180089e48     libcpmt:syserror.obj
 0002:0000ae58       ??_C@_0N@LGAPMMPI@not?5a?5stream?$AA@ 0000000180089e58     libcpmt:syserror.obj
 0002:0000ae68       ??_C@_0O@GLMIBBEG@not?5connected?$AA@ 0000000180089e68     libcpmt:syserror.obj
 0002:0000ae78       ??_C@_0BC@ENOOLCNF@not?5enough?5memory?$AA@ 0000000180089e78     libcpmt:syserror.obj
 0002:0000ae90       ??_C@_0O@NHEDABJP@not?5supported?$AA@ 0000000180089e90     libcpmt:syserror.obj
 0002:0000aea0       ??_C@_0BD@MOLBPMEA@operation?5canceled?$AA@ 0000000180089ea0     libcpmt:syserror.obj
 0002:0000aeb8       ??_C@_0BG@KDKHOPCO@operation?5in?5progress?$AA@ 0000000180089eb8     libcpmt:syserror.obj
 0002:0000aed0       ??_C@_0BI@OHIEJAAB@operation?5not?5permitted?$AA@ 0000000180089ed0     libcpmt:syserror.obj
 0002:0000aee8       ??_C@_0BI@LNEGIFLN@operation?5not?5supported?$AA@ 0000000180089ee8     libcpmt:syserror.obj
 0002:0000af00       ??_C@_0BG@OEMDKMEE@operation?5would?5block?$AA@ 0000000180089f00     libcpmt:syserror.obj
 0002:0000af18       ??_C@_0L@BLPOFLNJ@owner?5dead?$AA@ 0000000180089f18     libcpmt:syserror.obj
 0002:0000af28       ??_C@_0BC@CIJDGCDI@permission?5denied?$AA@ 0000000180089f28     libcpmt:syserror.obj
 0002:0000af40       ??_C@_0P@FNPOCJBE@protocol?5error?$AA@ 0000000180089f40     libcpmt:syserror.obj
 0002:0000af50       ??_C@_0BH@JPPPLHJB@protocol?5not?5supported?$AA@ 0000000180089f50     libcpmt:syserror.obj
 0002:0000af68       ??_C@_0BG@EICBIHDP@read?5only?5file?5system?$AA@ 0000000180089f68     libcpmt:syserror.obj
 0002:0000af80       ??_C@_0BO@BJBOMOEJ@resource?5deadlock?5would?5occur?$AA@ 0000000180089f80     libcpmt:syserror.obj
 0002:0000afa0       ??_C@_0BP@LKNGHENJ@resource?5unavailable?5try?5again?$AA@ 0000000180089fa0     libcpmt:syserror.obj
 0002:0000afc0       ??_C@_0BE@GOIPJJHG@result?5out?5of?5range?$AA@ 0000000180089fc0     libcpmt:syserror.obj
 0002:0000afd8       ??_C@_0BG@MPLKFPAE@state?5not?5recoverable?$AA@ 0000000180089fd8     libcpmt:syserror.obj
 0002:0000aff0       ??_C@_0P@DIIFGFCG@stream?5timeout?$AA@ 0000000180089ff0     libcpmt:syserror.obj
 0002:0000b000       ??_C@_0P@IPFDMIFL@text?5file?5busy?$AA@ 000000018008a000     libcpmt:syserror.obj
 0002:0000b010       ??_C@_09KJPPMAOI@timed?5out?$AA@ 000000018008a010     libcpmt:syserror.obj
 0002:0000b020       ??_C@_0BO@HACHBEKI@too?5many?5files?5open?5in?5system?$AA@ 000000018008a020     libcpmt:syserror.obj
 0002:0000b040       ??_C@_0BE@GHAFMPAH@too?5many?5files?5open?$AA@ 000000018008a040     libcpmt:syserror.obj
 0002:0000b058       ??_C@_0P@HCOMKFCC@too?5many?5links?$AA@ 000000018008a058     libcpmt:syserror.obj
 0002:0000b068       ??_C@_0BO@EFGOJEF@too?5many?5symbolic?5link?5levels?$AA@ 000000018008a068     libcpmt:syserror.obj
 0002:0000b088       ??_C@_0BA@KGKGOOJA@value?5too?5large?$AA@ 000000018008a088     libcpmt:syserror.obj
 0002:0000b098       ??_C@_0BE@MIEJDDNH@wrong?5protocol?5type?$AA@ 000000018008a098     libcpmt:syserror.obj
 0002:0000b0b0       ??_C@_0O@BFJCFAAK@unknown?5error?$AA@ 000000018008a0b0     libcpmt:syserror.obj
 0002:0000b0c0       ?_BADOFF@std@@3_JB         000000018008a0c0     libcpmt:ios.obj
 0002:0000b118       ??_C@_1BK@MGMFAEKH@?$AAk?$AAe?$AAr?$AAn?$AAe?$AAl?$AA3?$AA2?$AA?4?$AAd?$AAl?$AAl?$AA?$AA@ 000000018008a118     libcpmt:winapisupp.obj
 0002:0000b138       ??_C@_08KNHFBNJ@FlsAlloc?$AA@ 000000018008a138     libcpmt:winapisupp.obj
 0002:0000b148       ??_C@_07PEJMOBNF@FlsFree?$AA@ 000000018008a148     libcpmt:winapisupp.obj
 0002:0000b150       ??_C@_0M@GDNOONDI@FlsGetValue?$AA@ 000000018008a150     libcpmt:winapisupp.obj
 0002:0000b160       ??_C@_0M@JCPCPOEF@FlsSetValue?$AA@ 000000018008a160     libcpmt:winapisupp.obj
 0002:0000b170       ??_C@_0BM@HCFOFFN@InitializeCriticalSectionEx?$AA@ 000000018008a170     libcpmt:winapisupp.obj
 0002:0000b190       ??_C@_0BE@GPLMMCMH@InitOnceExecuteOnce?$AA@ 000000018008a190     libcpmt:winapisupp.obj
 0002:0000b1a8       ??_C@_0P@DLHPPCNH@CreateEventExW?$AA@ 000000018008a1a8     libcpmt:winapisupp.obj
 0002:0000b1b8       ??_C@_0BB@MEFPJLHN@CreateSemaphoreW?$AA@ 000000018008a1b8     libcpmt:winapisupp.obj
 0002:0000b1d0       ??_C@_0BD@KIEEOEEH@CreateSemaphoreExW?$AA@ 000000018008a1d0     libcpmt:winapisupp.obj
 0002:0000b1e8       ??_C@_0BG@OGFAJCKC@CreateThreadpoolTimer?$AA@ 000000018008a1e8     libcpmt:winapisupp.obj
 0002:0000b200       ??_C@_0BD@LPLEMMDI@SetThreadpoolTimer?$AA@ 000000018008a200     libcpmt:winapisupp.obj
 0002:0000b218       ??_C@_0CA@FMNJENH@WaitForThreadpoolTimerCallbacks?$AA@ 000000018008a218     libcpmt:winapisupp.obj
 0002:0000b238       ??_C@_0BF@DCFCCNOC@CloseThreadpoolTimer?$AA@ 000000018008a238     libcpmt:winapisupp.obj
 0002:0000b250       ??_C@_0BF@FLABGKKM@CreateThreadpoolWait?$AA@ 000000018008a250     libcpmt:winapisupp.obj
 0002:0000b268       ??_C@_0BC@MGCOHNA@SetThreadpoolWait?$AA@ 000000018008a268     libcpmt:winapisupp.obj
 0002:0000b280       ??_C@_0BE@OCIOMIMP@CloseThreadpoolWait?$AA@ 000000018008a280     libcpmt:winapisupp.obj
 0002:0000b298       ??_C@_0BJ@LKGHFHBO@FlushProcessWriteBuffers?$AA@ 000000018008a298     libcpmt:winapisupp.obj
 0002:0000b2b8       ??_C@_0BP@KALKKPMO@FreeLibraryWhenCallbackReturns?$AA@ 000000018008a2b8     libcpmt:winapisupp.obj
 0002:0000b2d8       ??_C@_0BK@DFNBACLA@GetCurrentProcessorNumber?$AA@ 000000018008a2d8     libcpmt:winapisupp.obj
 0002:0000b2f8       ??_C@_0BE@FKKLLFLM@CreateSymbolicLinkW?$AA@ 000000018008a2f8     libcpmt:winapisupp.obj
 0002:0000b310       ??_C@_0BE@JOGNEJCI@GetCurrentPackageId?$AA@ 000000018008a310     libcpmt:winapisupp.obj
 0002:0000b328       ??_C@_0BN@NEEHBBPO@GetFileInformationByHandleEx?$AA@ 000000018008a328     libcpmt:winapisupp.obj
 0002:0000b348       ??_C@_0BL@KBBHGKCM@SetFileInformationByHandle?$AA@ 000000018008a348     libcpmt:winapisupp.obj
 0002:0000b368       ??_C@_0BP@FPNJPEJC@GetSystemTimePreciseAsFileTime?$AA@ 000000018008a368     libcpmt:winapisupp.obj
 0002:0000b388       ??_C@_0BM@HLJJNPAH@InitializeConditionVariable?$AA@ 000000018008a388     libcpmt:winapisupp.obj
 0002:0000b3a8       ??_C@_0BG@BFNILBLN@WakeConditionVariable?$AA@ 000000018008a3a8     libcpmt:winapisupp.obj
 0002:0000b3c0       ??_C@_0BJ@PGPPEPCC@WakeAllConditionVariable?$AA@ 000000018008a3c0     libcpmt:winapisupp.obj
 0002:0000b3e0       ??_C@_0BJ@JEBJOJFJ@SleepConditionVariableCS?$AA@ 000000018008a3e0     libcpmt:winapisupp.obj
 0002:0000b400       ??_C@_0BC@MMLHEBPB@InitializeSRWLock?$AA@ 000000018008a400     libcpmt:winapisupp.obj
 0002:0000b418       ??_C@_0BI@OMNLIJDB@AcquireSRWLockExclusive?$AA@ 000000018008a418     libcpmt:winapisupp.obj
 0002:0000b430       ??_C@_0BL@OGHFEMNA@TryAcquireSRWLockExclusive?$AA@ 000000018008a430     libcpmt:winapisupp.obj
 0002:0000b450       ??_C@_0BI@HMIEPCNJ@ReleaseSRWLockExclusive?$AA@ 000000018008a450     libcpmt:winapisupp.obj
 0002:0000b468       ??_C@_0BK@LGACAGIC@SleepConditionVariableSRW?$AA@ 000000018008a468     libcpmt:winapisupp.obj
 0002:0000b488       ??_C@_0BF@GGPHFPJA@CreateThreadpoolWork?$AA@ 000000018008a488     libcpmt:winapisupp.obj
 0002:0000b4a0       ??_C@_0BF@NHDAIMMO@SubmitThreadpoolWork?$AA@ 000000018008a4a0     libcpmt:winapisupp.obj
 0002:0000b4b8       ??_C@_0BE@NPHIPNPD@CloseThreadpoolWork?$AA@ 000000018008a4b8     libcpmt:winapisupp.obj
 0002:0000b4d0       ??_C@_0BA@IHGNDAEB@CompareStringEx?$AA@ 000000018008a4d0     libcpmt:winapisupp.obj
 0002:0000b4e0       ??_C@_0BA@ONOKGCMP@GetLocaleInfoEx?$AA@ 000000018008a4e0     libcpmt:winapisupp.obj
 0002:0000b4f0       ??_C@_0O@KKBNKAPF@LCMapStringEx?$AA@ 000000018008a4f0     libcpmt:winapisupp.obj
 0002:0000b500       ??_C@_1M@JKFFICHJ@?$AAe?$AAs?$AA?9?$AAv?$AAe?$AA?$AA@ 000000018008a500     libcpmt:winapinls.obj
 0002:0000b510       ??_C@_1M@PNMLOJDF@?$AAe?$AAt?$AA?9?$AAe?$AAe?$AA?$AA@ 000000018008a510     libcpmt:winapinls.obj
 0002:0000b520       ??_C@_1M@GHHLIKEI@?$AAe?$AAu?$AA?9?$AAe?$AAs?$AA?$AA@ 000000018008a520     libcpmt:winapinls.obj
 0002:0000b530       ??_C@_1M@PBNONODE@?$AAf?$AAa?$AA?9?$AAi?$AAr?$AA?$AA@ 000000018008a530     libcpmt:winapinls.obj
 0002:0000b540       ??_C@_1M@JEEHPMIL@?$AAf?$AAi?$AA?9?$AAf?$AAi?$AA?$AA@ 000000018008a540     libcpmt:winapinls.obj
 0002:0000b550       ??_C@_1M@LMDCNDBA@?$AAf?$AAo?$AA?9?$AAf?$AAo?$AA?$AA@ 000000018008a550     libcpmt:winapinls.obj
 0002:0000b560       ??_C@_1M@JKEOHLDK@?$AAf?$AAr?$AA?9?$AAb?$AAe?$AA?$AA@ 000000018008a560     libcpmt:winapinls.obj
 0002:0000b570       ??_C@_1M@NOHADPMI@?$AAf?$AAr?$AA?9?$AAc?$AAa?$AA?$AA@ 000000018008a570     libcpmt:winapinls.obj
 0002:0000b580       ??_C@_1M@KDHIHAEC@?$AAf?$AAr?$AA?9?$AAc?$AAh?$AA?$AA@ 000000018008a580     libcpmt:winapinls.obj
 0002:0000b590       ??_C@_1M@MMBBFGAK@?$AAf?$AAr?$AA?9?$AAf?$AAr?$AA?$AA@ 000000018008a590     libcpmt:winapinls.obj
 0002:0000b5a0       ??_C@_1M@PAFNENNF@?$AAf?$AAr?$AA?9?$AAl?$AAu?$AA?$AA@ 000000018008a5a0     libcpmt:winapinls.obj
 0002:0000b5b0       ??_C@_1M@EOHDJGDD@?$AAf?$AAr?$AA?9?$AAm?$AAc?$AA?$AA@ 000000018008a5b0     libcpmt:winapinls.obj
 0002:0000b5c0       ??_C@_1M@FAPLLOPF@?$AAg?$AAl?$AA?9?$AAe?$AAs?$AA?$AA@ 000000018008a5c0     libcpmt:winapinls.obj
 0002:0000b5d0       ??_C@_1M@FOPBFLOO@?$AAg?$AAu?$AA?9?$AAi?$AAn?$AA?$AA@ 000000018008a5d0     libcpmt:winapinls.obj
 0002:0000b5e0       ??_C@_1M@KBMCINPM@?$AAh?$AAe?$AA?9?$AAi?$AAl?$AA?$AA@ 000000018008a5e0     libcpmt:winapinls.obj
 0002:0000b5f0       ??_C@_1M@BBPHKFPJ@?$AAh?$AAi?$AA?9?$AAi?$AAn?$AA?$AA@ 000000018008a5f0     libcpmt:winapinls.obj
 0002:0000b600       ??_C@_1M@PMBNDPHD@?$AAh?$AAr?$AA?9?$AAb?$AAa?$AA?$AA@ 000000018008a600     libcpmt:winapinls.obj
 0002:0000b610       ??_C@_1M@BPCKOEGE@?$AAh?$AAr?$AA?9?$AAh?$AAr?$AA?$AA@ 000000018008a610     libcpmt:winapinls.obj
 0002:0000b620       ??_C@_1M@GACBMHKE@?$AAh?$AAu?$AA?9?$AAh?$AAu?$AA?$AA@ 000000018008a620     libcpmt:winapinls.obj
 0002:0000b630       ??_C@_1M@MILPAJJC@?$AAh?$AAy?$AA?9?$AAa?$AAm?$AA?$AA@ 000000018008a630     libcpmt:winapinls.obj
 0002:0000b640       ??_C@_1M@BABBICEC@?$AAi?$AAd?$AA?9?$AAi?$AAd?$AA?$AA@ 000000018008a640     libcpmt:winapinls.obj
 0002:0000b650       ??_C@_1M@BIKNHHPF@?$AAi?$AAs?$AA?9?$AAi?$AAs?$AA?$AA@ 000000018008a650     libcpmt:winapinls.obj
 0002:0000b660       ??_C@_1M@NMPCJPHE@?$AAi?$AAt?$AA?9?$AAc?$AAh?$AA?$AA@ 000000018008a660     libcpmt:winapinls.obj
 0002:0000b670       ??_C@_1M@GHKGFEDF@?$AAi?$AAt?$AA?9?$AAi?$AAt?$AA?$AA@ 000000018008a670     libcpmt:winapinls.obj
 0002:0000b680       ??_C@_1M@NIEJCJJA@?$AAj?$AAa?$AA?9?$AAj?$AAp?$AA?$AA@ 000000018008a680     libcpmt:winapinls.obj
 0002:0000b690       ??_C@_1M@JILFNBIM@?$AAk?$AAa?$AA?9?$AAg?$AAe?$AA?$AA@ 000000018008a690     libcpmt:winapinls.obj
 0002:0000b6a0       ??_C@_1M@PACPMGPH@?$AAk?$AAk?$AA?9?$AAk?$AAz?$AA?$AA@ 000000018008a6a0     libcpmt:winapinls.obj
 0002:0000b6b0       ??_C@_1M@IELFGMHA@?$AAk?$AAn?$AA?9?$AAi?$AAn?$AA?$AA@ 000000018008a6b0     libcpmt:winapinls.obj
 0002:0000b6c0       ??_C@_1M@DMHAEOGC@?$AAk?$AAo?$AA?9?$AAk?$AAr?$AA?$AA@ 000000018008a6c0     libcpmt:winapinls.obj
 0002:0000b6d0       ??_C@_1O@IBBJHCH@?$AAk?$AAo?$AAk?$AA?9?$AAi?$AAn?$AA?$AA@ 000000018008a6d0     libcpmt:winapinls.obj
 0002:0000b6e0       ??_C@_1M@HBAHBIGA@?$AAk?$AAy?$AA?9?$AAk?$AAg?$AA?$AA@ 000000018008a6e0     libcpmt:winapinls.obj
 0002:0000b6f0       ??_C@_1M@KPMILCJG@?$AAl?$AAt?$AA?9?$AAl?$AAt?$AA?$AA@ 000000018008a6f0     libcpmt:winapinls.obj
 0002:0000b700       ??_C@_1M@BDEKKCA@?$AAl?$AAv?$AA?9?$AAl?$AAv?$AA?$AA@ 000000018008a700     libcpmt:winapinls.obj
 0002:0000b710       ??_C@_1M@ELCKCCJJ@?$AAm?$AAi?$AA?9?$AAn?$AAz?$AA?$AA@ 000000018008a710     libcpmt:winapinls.obj
 0002:0000b720       ??_C@_1M@CBOOLAPA@?$AAm?$AAk?$AA?9?$AAm?$AAk?$AA?$AA@ 000000018008a720     libcpmt:winapinls.obj
 0002:0000b730       ??_C@_1M@GPHNBJKN@?$AAm?$AAl?$AA?9?$AAi?$AAn?$AA?$AA@ 000000018008a730     libcpmt:winapinls.obj
 0002:0000b740       ??_C@_1M@PABJILIG@?$AAm?$AAn?$AA?9?$AAm?$AAn?$AA?$AA@ 000000018008a740     libcpmt:winapinls.obj
 0002:0000b750       ??_C@_1M@FGBKKIPG@?$AAm?$AAr?$AA?9?$AAi?$AAn?$AA?$AA@ 000000018008a750     libcpmt:winapinls.obj
 0002:0000b760       ??_C@_1M@NDBPDDAL@?$AAm?$AAs?$AA?9?$AAb?$AAn?$AA?$AA@ 000000018008a760     libcpmt:winapinls.obj
 0002:0000b770       ??_C@_1M@OPIHOOPI@?$AAm?$AAs?$AA?9?$AAm?$AAy?$AA?$AA@ 000000018008a770     libcpmt:winapinls.obj
 0002:0000b780       ??_C@_1M@PPDBCNFM@?$AAm?$AAt?$AA?9?$AAm?$AAt?$AA?$AA@ 000000018008a780     libcpmt:winapinls.obj
 0002:0000b790       ??_C@_1M@KDJDKMDD@?$AAn?$AAb?$AA?9?$AAn?$AAo?$AA?$AA@ 000000018008a790     libcpmt:winapinls.obj
 0002:0000b7a0       ??_C@_1M@KFCFLMJP@?$AAn?$AAl?$AA?9?$AAb?$AAe?$AA?$AA@ 000000018008a7a0     libcpmt:winapinls.obj
 0002:0000b7b0       ??_C@_1M@KPOPDDGO@?$AAn?$AAl?$AA?9?$AAn?$AAl?$AA?$AA@ 000000018008a7b0     libcpmt:winapinls.obj
 0002:0000b7c0       ??_C@_1M@LJKPEMLN@?$AAn?$AAn?$AA?9?$AAn?$AAo?$AA?$AA@ 000000018008a7c0     libcpmt:winapinls.obj
 0002:0000b7d0       ??_C@_1M@BDGHHBFL@?$AAn?$AAs?$AA?9?$AAz?$AAa?$AA?$AA@ 000000018008a7d0     libcpmt:winapinls.obj
 0002:0000b7e0       ??_C@_1M@IDEHOAP@?$AAp?$AAa?$AA?9?$AAi?$AAn?$AA?$AA@ 000000018008a7e0     libcpmt:winapinls.obj
 0002:0000b7f0       ??_C@_1M@HDBKGOGH@?$AAp?$AAl?$AA?9?$AAp?$AAl?$AA?$AA@ 000000018008a7f0     libcpmt:winapinls.obj
 0002:0000b800       ??_C@_1M@LJLLCMEH@?$AAp?$AAt?$AA?9?$AAb?$AAr?$AA?$AA@ 000000018008a800     libcpmt:winapinls.obj
 0002:0000b810       ??_C@_1M@NCMONAAL@?$AAp?$AAt?$AA?9?$AAp?$AAt?$AA?$AA@ 000000018008a810     libcpmt:winapinls.obj
 0002:0000b820       ??_C@_1O@EAKMAJDN@?$AAq?$AAu?$AAz?$AA?9?$AAb?$AAo?$AA?$AA@ 000000018008a820     libcpmt:winapinls.obj
 0002:0000b830       ??_C@_1O@BHHPIGDN@?$AAq?$AAu?$AAz?$AA?9?$AAe?$AAc?$AA?$AA@ 000000018008a830     libcpmt:winapinls.obj
 0002:0000b840       ??_C@_1O@GBAPEKMJ@?$AAq?$AAu?$AAz?$AA?9?$AAp?$AAe?$AA?$AA@ 000000018008a840     libcpmt:winapinls.obj
 0002:0000b850       ??_C@_1M@CLGLEFBO@?$AAr?$AAo?$AA?9?$AAr?$AAo?$AA?$AA@ 000000018008a850     libcpmt:winapinls.obj
 0002:0000b860       ??_C@_1M@CEEDODME@?$AAr?$AAu?$AA?9?$AAr?$AAu?$AA?$AA@ 000000018008a860     libcpmt:winapinls.obj
 0002:0000b870       ??_C@_1M@HPKKKMPP@?$AAs?$AAa?$AA?9?$AAi?$AAn?$AA?$AA@ 000000018008a870     libcpmt:winapinls.obj
 0002:0000b880       ??_C@_1M@BKMAIGOJ@?$AAs?$AAe?$AA?9?$AAf?$AAi?$AA?$AA@ 000000018008a880     libcpmt:winapinls.obj
 0002:0000b890       ??_C@_1M@NDPIFLFI@?$AAs?$AAe?$AA?9?$AAn?$AAo?$AA?$AA@ 000000018008a890     libcpmt:winapinls.obj
 0002:0000b8a0       ??_C@_1M@DANKKHJ@?$AAs?$AAe?$AA?9?$AAs?$AAe?$AA?$AA@ 000000018008a8a0     libcpmt:winapinls.obj
 0002:0000b8b0       ??_C@_1M@PNBLONPJ@?$AAs?$AAk?$AA?9?$AAs?$AAk?$AA?$AA@ 000000018008a8b0     libcpmt:winapinls.obj
 0002:0000b8c0       ??_C@_1M@LFMODOAL@?$AAs?$AAl?$AA?9?$AAs?$AAi?$AA?$AA@ 000000018008a8c0     libcpmt:winapinls.obj
 0002:0000b8d0       ??_C@_1O@DFKOMPG@?$AAs?$AAm?$AAa?$AA?9?$AAn?$AAo?$AA?$AA@ 000000018008a8d0     libcpmt:winapinls.obj
 0002:0000b8e0       ??_C@_1O@NDKPBNNH@?$AAs?$AAm?$AAa?$AA?9?$AAs?$AAe?$AA?$AA@ 000000018008a8e0     libcpmt:winapinls.obj
 0002:0000b8f0       ??_C@_1O@PLLKBHAB@?$AAs?$AAm?$AAj?$AA?9?$AAn?$AAo?$AA?$AA@ 000000018008a8f0     libcpmt:winapinls.obj
 0002:0000b900       ??_C@_1O@CLEPOGCA@?$AAs?$AAm?$AAj?$AA?9?$AAs?$AAe?$AA?$AA@ 000000018008a900     libcpmt:winapinls.obj
 0002:0000b910       ??_C@_1O@DLGJGKMK@?$AAs?$AAm?$AAn?$AA?9?$AAf?$AAi?$AA?$AA@ 000000018008a910     libcpmt:winapinls.obj
 0002:0000b920       ??_C@_1O@OJDJGAJC@?$AAs?$AAm?$AAs?$AA?9?$AAf?$AAi?$AA?$AA@ 000000018008a920     libcpmt:winapinls.obj
 0002:0000b930       ??_C@_1M@BOFOGHPB@?$AAs?$AAq?$AA?9?$AAa?$AAl?$AA?$AA@ 000000018008a930     libcpmt:winapinls.obj
 0002:0000b940       ??_C@_1BG@LJBBIPGB@?$AAs?$AAr?$AA?9?$AAb?$AAa?$AA?9?$AAc?$AAy?$AAr?$AAl?$AA?$AA@ 000000018008a940     libcpmt:winapinls.obj
 0002:0000b958       ??_C@_1BG@JLBENFOE@?$AAs?$AAr?$AA?9?$AAb?$AAa?$AA?9?$AAl?$AAa?$AAt?$AAn?$AA?$AA@ 000000018008a958     libcpmt:winapinls.obj
 0002:0000b970       ??_C@_1BG@KODPNHE@?$AAs?$AAr?$AA?9?$AAs?$AAp?$AA?9?$AAc?$AAy?$AAr?$AAl?$AA?$AA@ 000000018008a970     libcpmt:winapinls.obj
 0002:0000b988       ??_C@_1BG@CIOGKHPB@?$AAs?$AAr?$AA?9?$AAs?$AAp?$AA?9?$AAl?$AAa?$AAt?$AAn?$AA?$AA@ 000000018008a988     libcpmt:winapinls.obj
 0002:0000b9a0       ??_C@_1M@NGFJLMAC@?$AAs?$AAv?$AA?9?$AAf?$AAi?$AA?$AA@ 000000018008a9a0     libcpmt:winapinls.obj
 0002:0000b9b0       ??_C@_1M@MPJEJAJC@?$AAs?$AAv?$AA?9?$AAs?$AAe?$AA?$AA@ 000000018008a9b0     libcpmt:winapinls.obj
 0002:0000b9c0       ??_C@_1M@MPNDHLFK@?$AAs?$AAw?$AA?9?$AAk?$AAe?$AA?$AA@ 000000018008a9c0     libcpmt:winapinls.obj
 0002:0000b9d0       ??_C@_1O@KOHBJJI@?$AAs?$AAy?$AAr?$AA?9?$AAs?$AAy?$AA?$AA@ 000000018008a9d0     libcpmt:winapinls.obj
 0002:0000b9e0       ??_C@_1M@LDCEFHA@?$AAt?$AAa?$AA?9?$AAi?$AAn?$AA?$AA@ 000000018008a9e0     libcpmt:winapinls.obj
 0002:0000b9f0       ??_C@_1M@CNJOFAK@?$AAt?$AAe?$AA?9?$AAi?$AAn?$AA?$AA@ 000000018008a9f0     libcpmt:winapinls.obj
 0002:0000ba00       ??_C@_1M@GNAECACD@?$AAt?$AAh?$AA?9?$AAt?$AAh?$AA?$AA@ 000000018008aa00     libcpmt:winapinls.obj
 0002:0000ba10       ??_C@_1M@CHBIHOJO@?$AAt?$AAn?$AA?9?$AAz?$AAa?$AA?$AA@ 000000018008aa10     libcpmt:winapinls.obj
 0002:0000ba20       ??_C@_1M@GCCMIGPJ@?$AAt?$AAr?$AA?9?$AAt?$AAr?$AA?$AA@ 000000018008aa20     libcpmt:winapinls.obj
 0002:0000ba30       ??_C@_1M@CELMCNBK@?$AAt?$AAt?$AA?9?$AAr?$AAu?$AA?$AA@ 000000018008aa30     libcpmt:winapinls.obj
 0002:0000ba40       ??_C@_1M@KLMCELGA@?$AAu?$AAk?$AA?9?$AAu?$AAa?$AA?$AA@ 000000018008aa40     libcpmt:winapinls.obj
 0002:0000ba50       ??_C@_1M@EPAJJAJF@?$AAu?$AAr?$AA?9?$AAp?$AAk?$AA?$AA@ 000000018008aa50     libcpmt:winapinls.obj
 0002:0000ba60       ??_C@_1BG@GEGPMCDJ@?$AAu?$AAz?$AA?9?$AAu?$AAz?$AA?9?$AAc?$AAy?$AAr?$AAl?$AA?$AA@ 000000018008aa60     libcpmt:winapinls.obj
 0002:0000ba78       ??_C@_1BG@EGGKJILM@?$AAu?$AAz?$AA?9?$AAu?$AAz?$AA?9?$AAl?$AAa?$AAt?$AAn?$AA?$AA@ 000000018008aa78     libcpmt:winapinls.obj
 0002:0000ba90       ??_C@_1M@GFOCLFF@?$AAv?$AAi?$AA?9?$AAv?$AAn?$AA?$AA@ 000000018008aa90     libcpmt:winapinls.obj
 0002:0000baa0       ??_C@_1M@CPAMEDFI@?$AAx?$AAh?$AA?9?$AAz?$AAa?$AA?$AA@ 000000018008aaa0     libcpmt:winapinls.obj
 0002:0000bab0       ??_C@_1O@EBKIFIGN@?$AAz?$AAh?$AA?9?$AAc?$AAh?$AAs?$AA?$AA@ 000000018008aab0     libcpmt:winapinls.obj
 0002:0000bac0       ??_C@_1O@NMHPGANE@?$AAz?$AAh?$AA?9?$AAc?$AAh?$AAt?$AA?$AA@ 000000018008aac0     libcpmt:winapinls.obj
 0002:0000bad0       ??_C@_1M@LPINJOMC@?$AAz?$AAh?$AA?9?$AAc?$AAn?$AA?$AA@ 000000018008aad0     libcpmt:winapinls.obj
 0002:0000bae0       ??_C@_1M@OCJEJODD@?$AAz?$AAh?$AA?9?$AAh?$AAk?$AA?$AA@ 000000018008aae0     libcpmt:winapinls.obj
 0002:0000baf0       ??_C@_1M@DNDLJINH@?$AAz?$AAh?$AA?9?$AAm?$AAo?$AA?$AA@ 000000018008aaf0     libcpmt:winapinls.obj
 0002:0000bb00       ??_C@_1M@MBFDNDND@?$AAz?$AAh?$AA?9?$AAs?$AAg?$AA?$AA@ 000000018008ab00     libcpmt:winapinls.obj
 0002:0000bb10       ??_C@_1M@IMEPLEPE@?$AAz?$AAh?$AA?9?$AAt?$AAw?$AA?$AA@ 000000018008ab10     libcpmt:winapinls.obj
 0002:0000bb20       ??_C@_1M@BBGHNHJP@?$AAz?$AAu?$AA?9?$AAz?$AAa?$AA?$AA@ 000000018008ab20     libcpmt:winapinls.obj
 0002:0000d7b0       ??_C@_15EMKDOKLE@?$AAa?$AAr?$AA?$AA@ 000000018008c7b0     libcpmt:winapinls.obj
 0002:0000d7b8       ??_C@_15KNPADPLH@?$AAb?$AAg?$AA?$AA@ 000000018008c7b8     libcpmt:winapinls.obj
 0002:0000d7c0       ??_C@_15EDMHLDMO@?$AAc?$AAa?$AA?$AA@ 000000018008c7c0     libcpmt:winapinls.obj
 0002:0000d7c8       ??_C@_1O@BPEAJADD@?$AAz?$AAh?$AA?9?$AAC?$AAH?$AAS?$AA?$AA@ 000000018008c7c8     libcpmt:winapinls.obj
 0002:0000d7d8       ??_C@_15LJNHCMNK@?$AAc?$AAs?$AA?$AA@ 000000018008c7d8     libcpmt:winapinls.obj
 0002:0000d7e0       ??_C@_15FOMCIDHG@?$AAd?$AAa?$AA?$AA@ 000000018008c7e0     libcpmt:winapinls.obj
 0002:0000d7e8       ??_C@_15NBKABECB@?$AAd?$AAe?$AA?$AA@ 000000018008c7e8     libcpmt:winapinls.obj
 0002:0000d7f0       ??_C@_15GHPEIIAO@?$AAe?$AAl?$AA?$AA@ 000000018008c7f0     libcpmt:winapinls.obj
 0002:0000d7f8       ??_C@_15MNPNEAIF@?$AAe?$AAn?$AA?$AA@ 000000018008c7f8     libcpmt:winapinls.obj
 0002:0000d800       ??_C@_15GPIOMPMH@?$AAe?$AAs?$AA?$AA@ 000000018008c800     libcpmt:winapinls.obj
 0002:0000d808       ??_C@_15NGLOAKJC@?$AAf?$AAi?$AA?$AA@ 000000018008c808     libcpmt:winapinls.obj
 0002:0000d810       ??_C@_15FBKGNKAM@?$AAf?$AAr?$AA?$AA@ 000000018008c810     libcpmt:winapinls.obj
 0002:0000d818       ??_C@_15KGGCNEFK@?$AAh?$AAe?$AA?$AA@ 000000018008c818     libcpmt:winapinls.obj
 0002:0000d820       ??_C@_15PGHLIDMF@?$AAh?$AAu?$AA?$AA@ 000000018008c820     libcpmt:winapinls.obj
 0002:0000d828       ??_C@_15BIEMAPLM@?$AAi?$AAs?$AA?$AA@ 000000018008c828     libcpmt:winapinls.obj
 0002:0000d830       ??_C@_15IFJLDHAF@?$AAi?$AAt?$AA?$AA@ 000000018008c830     libcpmt:winapinls.obj
 0002:0000d838       ??_C@_15GEMIOCAG@?$AAj?$AAa?$AA?$AA@ 000000018008c838     libcpmt:winapinls.obj
 0002:0000d840       ??_C@_15EPELEGJA@?$AAk?$AAo?$AA?$AA@ 000000018008c840     libcpmt:winapinls.obj
 0002:0000d848       ??_C@_15NDDHIMN@?$AAn?$AAl?$AA?$AA@ 000000018008c848     libcpmt:winapinls.obj
 0002:0000d850       ??_C@_15BPIGNHCD@?$AAn?$AAo?$AA?$AA@ 000000018008c850     libcpmt:winapinls.obj
 0002:0000d858       ??_C@_15DEOPBLCG@?$AAp?$AAl?$AA?$AA@ 000000018008c858     libcpmt:winapinls.obj
 0002:0000d860       ??_C@_15KBECGEFG@?$AAp?$AAt?$AA?$AA@ 000000018008c860     libcpmt:winapinls.obj
 0002:0000d868       ??_C@_15GLJCBFMD@?$AAr?$AAo?$AA?$AA@ 000000018008c868     libcpmt:winapinls.obj
 0002:0000d870       ??_C@_15FEDGKCDI@?$AAr?$AAu?$AA?$AA@ 000000018008c870     libcpmt:winapinls.obj
 0002:0000d878       ??_C@_15GLKMLLHM@?$AAh?$AAr?$AA?$AA@ 000000018008c878     libcpmt:winapinls.obj
 0002:0000d880       ??_C@_15CPKMFBDB@?$AAs?$AAk?$AA?$AA@ 000000018008c880     libcpmt:winapinls.obj
 0002:0000d888       ??_C@_15BAAIOGMK@?$AAs?$AAq?$AA?$AA@ 000000018008c888     libcpmt:winapinls.obj
 0002:0000d890       ??_C@_15INNPNOHD@?$AAs?$AAv?$AA?$AA@ 000000018008c890     libcpmt:winapinls.obj
 0002:0000d898       ??_C@_15CABMMOGH@?$AAt?$AAh?$AA?$AA@ 000000018008c898     libcpmt:winapinls.obj
 0002:0000d8a0       ??_C@_15BPLIHJJM@?$AAt?$AAr?$AA?$AA@ 000000018008c8a0     libcpmt:winapinls.obj
 0002:0000d8a8       ??_C@_15NEOEKKDJ@?$AAu?$AAr?$AA?$AA@ 000000018008c8a8     libcpmt:winapinls.obj
 0002:0000d8b0       ??_C@_15NFICGAJK@?$AAi?$AAd?$AA?$AA@ 000000018008c8b0     libcpmt:winapinls.obj
 0002:0000d8b8       ??_C@_15PJPFLCCM@?$AAu?$AAk?$AA?$AA@ 000000018008c8b8     libcpmt:winapinls.obj
 0002:0000d8c0       ??_C@_15HPJPHDM@?$AAb?$AAe?$AA?$AA@ 000000018008c8c0     libcpmt:winapinls.obj
 0002:0000d8c8       ??_C@_15LCHLGJII@?$AAs?$AAl?$AA?$AA@ 000000018008c8c8     libcpmt:winapinls.obj
 0002:0000d8d0       ??_C@_15PCFJPHHO@?$AAe?$AAt?$AA?$AA@ 000000018008c8d0     libcpmt:winapinls.obj
 0002:0000d8d8       ??_C@_15HPFPGODN@?$AAl?$AAv?$AA?$AA@ 000000018008c8d8     libcpmt:winapinls.obj
 0002:0000d8e0       ??_C@_15NFFGKGLG@?$AAl?$AAt?$AA?$AA@ 000000018008c8e0     libcpmt:winapinls.obj
 0002:0000d8e8       ??_C@_15BDAKCCHN@?$AAf?$AAa?$AA?$AA@ 000000018008c8e8     libcpmt:winapinls.obj
 0002:0000d8f0       ??_C@_15NFGIAIAJ@?$AAv?$AAi?$AA?$AA@ 000000018008c8f0     libcpmt:winapinls.obj
 0002:0000d8f8       ??_C@_15LMKNDMHN@?$AAh?$AAy?$AA?$AA@ 000000018008c8f8     libcpmt:winapinls.obj
 0002:0000d900       ??_C@_15IJBHMCFL@?$AAa?$AAz?$AA?$AA@ 000000018008c900     libcpmt:winapinls.obj
 0002:0000d908       ??_C@_15EKOFJABL@?$AAe?$AAu?$AA?$AA@ 000000018008c908     libcpmt:winapinls.obj
 0002:0000d910       ??_C@_15BGHADCNK@?$AAm?$AAk?$AA?$AA@ 000000018008c910     libcpmt:winapinls.obj
 0002:0000d918       ??_C@_15JDNICKHM@?$AAa?$AAf?$AA?$AA@ 000000018008c918     libcpmt:winapinls.obj
 0002:0000d920       ??_C@_15KPJEDBKD@?$AAk?$AAa?$AA?$AA@ 000000018008c920     libcpmt:winapinls.obj
 0002:0000d928       ??_C@_15PDNFFFEO@?$AAf?$AAo?$AA?$AA@ 000000018008c928     libcpmt:winapinls.obj
 0002:0000d930       ??_C@_15OMLEGLOC@?$AAh?$AAi?$AA?$AA@ 000000018008c930     libcpmt:winapinls.obj
 0002:0000d938       ??_C@_15IDNNENKK@?$AAm?$AAs?$AA?$AA@ 000000018008c938     libcpmt:winapinls.obj
 0002:0000d940       ??_C@_15MACJNBMH@?$AAk?$AAk?$AA?$AA@ 000000018008c940     libcpmt:winapinls.obj
 0002:0000d948       ??_C@_15DKDJEOND@?$AAk?$AAy?$AA?$AA@ 000000018008c948     libcpmt:winapinls.obj
 0002:0000d950       ??_C@_15DFGDLJBG@?$AAs?$AAw?$AA?$AA@ 000000018008c950     libcpmt:winapinls.obj
 0002:0000d958       ??_C@_15BBFAICNG@?$AAu?$AAz?$AA?$AA@ 000000018008c958     libcpmt:winapinls.obj
 0002:0000d960       ??_C@_15DKNDCGEA@?$AAt?$AAt?$AA?$AA@ 000000018008c960     libcpmt:winapinls.obj
 0002:0000d968       ??_C@_15MGIFMDPL@?$AAp?$AAa?$AA?$AA@ 000000018008c968     libcpmt:winapinls.obj
 0002:0000d970       ??_C@_15HCNDBBA@?$AAg?$AAu?$AA?$AA@ 000000018008c970     libcpmt:winapinls.obj
 0002:0000d978       ??_C@_15FNBEIBON@?$AAt?$AAa?$AA?$AA@ 000000018008c978     libcpmt:winapinls.obj
 0002:0000d980       ??_C@_15NCHGBGLK@?$AAt?$AAe?$AA?$AA@ 000000018008c980     libcpmt:winapinls.obj
 0002:0000d988       ??_C@_15PHPHCBPF@?$AAk?$AAn?$AA?$AA@ 000000018008c988     libcpmt:winapinls.obj
 0002:0000d990       ??_C@_15DLGBCKMP@?$AAm?$AAr?$AA?$AA@ 000000018008c990     libcpmt:winapinls.obj
 0002:0000d998       ??_C@_15EABBLBFF@?$AAs?$AAa?$AA?$AA@ 000000018008c998     libcpmt:winapinls.obj
 0002:0000d9a0       ??_C@_15CBKOMCOI@?$AAm?$AAn?$AA?$AA@ 000000018008c9a0     libcpmt:winapinls.obj
 0002:0000d9a8       ??_C@_15CKDMCJAF@?$AAg?$AAl?$AA?$AA@ 000000018008c9a8     libcpmt:winapinls.obj
 0002:0000d9b0       ??_C@_17CNJFBPG@?$AAk?$AAo?$AAk?$AA?$AA@ 000000018008c9b0     libcpmt:winapinls.obj
 0002:0000d9b8       ??_C@_17FFBJICPL@?$AAs?$AAy?$AAr?$AA?$AA@ 000000018008c9b8     libcpmt:winapinls.obj
 0002:0000d9c0       ??_C@_17KPNDCPAF@?$AAd?$AAi?$AAv?$AA?$AA@ 000000018008c9c0     libcpmt:winapinls.obj
 0002:0000d9c8       ??_C@_11LOCGONAA@?$AA?$AA@ 000000018008c9c8     libcpmt:winapinls.obj
 0002:0000d9d0       ??_C@_1M@OKAHONE@?$AAa?$AAr?$AA?9?$AAS?$AAA?$AA?$AA@ 000000018008c9d0     libcpmt:winapinls.obj
 0002:0000d9e0       ??_C@_1M@FFFIGIGK@?$AAb?$AAg?$AA?9?$AAB?$AAG?$AA?$AA@ 000000018008c9e0     libcpmt:winapinls.obj
 0002:0000d9f0       ??_C@_1M@BJNKEDC@?$AAc?$AAa?$AA?9?$AAE?$AAS?$AA?$AA@ 000000018008c9f0     libcpmt:winapinls.obj
 0002:0000da00       ??_C@_1M@CLNBBOPM@?$AAz?$AAh?$AA?9?$AAT?$AAW?$AA?$AA@ 000000018008ca00     libcpmt:winapinls.obj
 0002:0000da10       ??_C@_1M@IJJHFJHA@?$AAc?$AAs?$AA?9?$AAC?$AAZ?$AA?$AA@ 000000018008ca10     libcpmt:winapinls.obj
 0002:0000da20       ??_C@_1M@CLPEOBGI@?$AAd?$AAa?$AA?9?$AAD?$AAK?$AA?$AA@ 000000018008ca20     libcpmt:winapinls.obj
 0002:0000da30       ??_C@_1M@MCMADGCB@?$AAd?$AAe?$AA?9?$AAD?$AAE?$AA?$AA@ 000000018008ca30     libcpmt:winapinls.obj
 0002:0000da40       ??_C@_1M@OOCKEMAM@?$AAe?$AAl?$AA?9?$AAG?$AAR?$AA?$AA@ 000000018008ca40     libcpmt:winapinls.obj
 0002:0000da50       ??_C@_1M@BMHNFIME@?$AAe?$AAn?$AA?9?$AAU?$AAS?$AA?$AA@ 000000018008ca50     libcpmt:winapinls.obj
 0002:0000da60       ??_C@_1M@DDNJFGID@?$AAf?$AAi?$AA?9?$AAF?$AAI?$AA?$AA@ 000000018008ca60     libcpmt:winapinls.obj
 0002:0000da70       ??_C@_1M@GLIPPMAC@?$AAf?$AAr?$AA?9?$AAF?$AAR?$AA?$AA@ 000000018008ca70     libcpmt:winapinls.obj
 0002:0000da80       ??_C@_1M@GFMCHPE@?$AAh?$AAe?$AA?9?$AAI?$AAL?$AA?$AA@ 000000018008ca80     libcpmt:winapinls.obj
 0002:0000da90       ??_C@_1M@MHLPGNKM@?$AAh?$AAu?$AA?9?$AAH?$AAU?$AA?$AA@ 000000018008ca90     libcpmt:winapinls.obj
 0002:0000daa0       ??_C@_1M@LPDDNNPN@?$AAi?$AAs?$AA?9?$AAI?$AAS?$AA?$AA@ 000000018008caa0     libcpmt:winapinls.obj
 0002:0000dab0       ??_C@_1M@MADIPODN@?$AAi?$AAt?$AA?9?$AAI?$AAT?$AA?$AA@ 000000018008cab0     libcpmt:winapinls.obj
 0002:0000dac0       ??_C@_1M@HPNHIDJI@?$AAj?$AAa?$AA?9?$AAJ?$AAP?$AA?$AA@ 000000018008cac0     libcpmt:winapinls.obj
 0002:0000dad0       ??_C@_1M@JLOOOEGK@?$AAk?$AAo?$AA?9?$AAK?$AAR?$AA?$AA@ 000000018008cad0     libcpmt:winapinls.obj
 0002:0000dae0       ??_C@_1M@IHBJJGG@?$AAn?$AAl?$AA?9?$AAN?$AAL?$AA?$AA@ 000000018008cae0     libcpmt:winapinls.obj
 0002:0000daf0       ??_C@_1M@EANAGDL@?$AAn?$AAb?$AA?9?$AAN?$AAO?$AA?$AA@ 000000018008caf0     libcpmt:winapinls.obj
 0002:0000db00       ??_C@_1M@NEIEMEGP@?$AAp?$AAl?$AA?9?$AAP?$AAL?$AA?$AA@ 000000018008cb00     libcpmt:winapinls.obj
 0002:0000db10       ??_C@_1M@BOCFIGEP@?$AAp?$AAt?$AA?9?$AAB?$AAR?$AA?$AA@ 000000018008cb10     libcpmt:winapinls.obj
 0002:0000db20       ??_C@_1M@IMPFOPBG@?$AAr?$AAo?$AA?9?$AAR?$AAO?$AA?$AA@ 000000018008cb20     libcpmt:winapinls.obj
 0002:0000db30       ??_C@_1M@IDNNEJMM@?$AAr?$AAu?$AA?9?$AAR?$AAU?$AA?$AA@ 000000018008cb30     libcpmt:winapinls.obj
 0002:0000db40       ??_C@_1M@LILEEOGM@?$AAh?$AAr?$AA?9?$AAH?$AAR?$AA?$AA@ 000000018008cb40     libcpmt:winapinls.obj
 0002:0000db50       ??_C@_1M@FKIFEHPB@?$AAs?$AAk?$AA?9?$AAS?$AAK?$AA?$AA@ 000000018008cb50     libcpmt:winapinls.obj
 0002:0000db60       ??_C@_1M@LJMAMNPJ@?$AAs?$AAq?$AA?9?$AAA?$AAL?$AA?$AA@ 000000018008cb60     libcpmt:winapinls.obj
 0002:0000db70       ??_C@_1M@GIAKDKJK@?$AAs?$AAv?$AA?9?$AAS?$AAE?$AA?$AA@ 000000018008cb70     libcpmt:winapinls.obj
 0002:0000db80       ??_C@_1M@MKJKIKCL@?$AAt?$AAh?$AA?9?$AAT?$AAH?$AA?$AA@ 000000018008cb80     libcpmt:winapinls.obj
 0002:0000db90       ??_C@_1M@MFLCCMPB@?$AAt?$AAr?$AA?9?$AAT?$AAR?$AA?$AA@ 000000018008cb90     libcpmt:winapinls.obj
 0002:0000dba0       ??_C@_1M@OIJHDKJN@?$AAu?$AAr?$AA?9?$AAP?$AAK?$AA?$AA@ 000000018008cba0     libcpmt:winapinls.obj
 0002:0000dbb0       ??_C@_1M@LHIPCIEK@?$AAi?$AAd?$AA?9?$AAI?$AAD?$AA?$AA@ 000000018008cbb0     libcpmt:winapinls.obj
 0002:0000dbc0       ??_C@_1M@MFMOBGI@?$AAu?$AAk?$AA?9?$AAU?$AAA?$AA?$AA@ 000000018008cbc0     libcpmt:winapinls.obj
 0002:0000dbd0       ??_C@_1M@OBGLJIPL@?$AAb?$AAe?$AA?9?$AAB?$AAY?$AA?$AA@ 000000018008cbd0     libcpmt:winapinls.obj
 0002:0000dbe0       ??_C@_1M@BCFAJEAD@?$AAs?$AAl?$AA?9?$AAS?$AAI?$AA?$AA@ 000000018008cbe0     libcpmt:winapinls.obj
 0002:0000dbf0       ??_C@_1M@FKFFEDDN@?$AAe?$AAt?$AA?9?$AAE?$AAE?$AA?$AA@ 000000018008cbf0     libcpmt:winapinls.obj
 0002:0000dc00       ??_C@_1M@KGKKAACI@?$AAl?$AAv?$AA?9?$AAL?$AAV?$AA?$AA@ 000000018008cc00     libcpmt:winapinls.obj
 0002:0000dc10       ??_C@_1M@IFGBIJO@?$AAl?$AAt?$AA?9?$AAL?$AAT?$AA?$AA@ 000000018008cc10     libcpmt:winapinls.obj
 0002:0000dc20       ??_C@_1M@FGEAHEDM@?$AAf?$AAa?$AA?9?$AAI?$AAR?$AA?$AA@ 000000018008cc20     libcpmt:winapinls.obj
 0002:0000dc30       ??_C@_1M@KBMAIBFN@?$AAv?$AAi?$AA?9?$AAV?$AAN?$AA?$AA@ 000000018008cc30     libcpmt:winapinls.obj
 0002:0000dc40       ??_C@_1M@GPCBKDJK@?$AAh?$AAy?$AA?9?$AAA?$AAM?$AA?$AA@ 000000018008cc40     libcpmt:winapinls.obj
 0002:0000dc50       ??_C@_1BG@BECMDDJB@?$AAa?$AAz?$AA?9?$AAA?$AAZ?$AA?9?$AAL?$AAa?$AAt?$AAn?$AA?$AA@ 000000018008cc50     libcpmt:winapinls.obj
 0002:0000dc68       ??_C@_1M@MAOFCAEA@?$AAe?$AAu?$AA?9?$AAE?$AAS?$AA?$AA@ 000000018008cc68     libcpmt:winapinls.obj
 0002:0000dc78       ??_C@_1M@IGHABKPI@?$AAm?$AAk?$AA?9?$AAM?$AAK?$AA?$AA@ 000000018008cc78     libcpmt:winapinls.obj
 0002:0000dc88       ??_C@_1M@IAIGNEJG@?$AAt?$AAn?$AA?9?$AAZ?$AAA?$AA?$AA@ 000000018008cc88     libcpmt:winapinls.obj
 0002:0000dc98       ??_C@_1M@IIJCOJFA@?$AAx?$AAh?$AA?9?$AAZ?$AAA?$AA?$AA@ 000000018008cc98     libcpmt:winapinls.obj
 0002:0000dca8       ??_C@_1M@LGPJHNJH@?$AAz?$AAu?$AA?9?$AAZ?$AAA?$AA?$AA@ 000000018008cca8     libcpmt:winapinls.obj
 0002:0000dcb8       ??_C@_1M@HOKAOIO@?$AAa?$AAf?$AA?9?$AAZ?$AAA?$AA?$AA@ 000000018008ccb8     libcpmt:winapinls.obj
 0002:0000dcc8       ??_C@_1M@DPCLHLIE@?$AAk?$AAa?$AA?9?$AAG?$AAE?$AA?$AA@ 000000018008ccc8     libcpmt:winapinls.obj
 0002:0000dcd8       ??_C@_1M@BLKMHJBI@?$AAf?$AAo?$AA?9?$AAF?$AAO?$AA?$AA@ 000000018008ccd8     libcpmt:winapinls.obj
 0002:0000dce8       ??_C@_1M@LGGJAPPB@?$AAh?$AAi?$AA?9?$AAI?$AAN?$AA?$AA@ 000000018008cce8     libcpmt:winapinls.obj
 0002:0000dcf8       ??_C@_1M@FIKPIHFE@?$AAm?$AAt?$AA?9?$AAM?$AAT?$AA?$AA@ 000000018008ccf8     libcpmt:winapinls.obj
 0002:0000dd08       ??_C@_1M@HEGGPBFA@?$AAs?$AAe?$AA?9?$AAN?$AAO?$AA?$AA@ 000000018008cd08     libcpmt:winapinls.obj
 0002:0000dd18       ??_C@_1M@EIBJEEPA@?$AAm?$AAs?$AA?9?$AAM?$AAY?$AA?$AA@ 000000018008cd18     libcpmt:winapinls.obj
 0002:0000dd28       ??_C@_1M@FHLBGMPP@?$AAk?$AAk?$AA?9?$AAK?$AAZ?$AA?$AA@ 000000018008cd28     libcpmt:winapinls.obj
 0002:0000dd38       ??_C@_1M@NGJJLCGI@?$AAk?$AAy?$AA?9?$AAK?$AAG?$AA?$AA@ 000000018008cd38     libcpmt:winapinls.obj
 0002:0000dd48       ??_C@_1M@GIENNBFC@?$AAs?$AAw?$AA?9?$AAK?$AAE?$AA?$AA@ 000000018008cd48     libcpmt:winapinls.obj
 0002:0000dd58       ??_C@_1BG@NDGMJIMJ@?$AAu?$AAz?$AA?9?$AAU?$AAZ?$AA?9?$AAL?$AAa?$AAt?$AAn?$AA?$AA@ 000000018008cd58     libcpmt:winapinls.obj
 0002:0000dd70       ??_C@_1M@IDCCIHBC@?$AAt?$AAt?$AA?9?$AAR?$AAU?$AA?$AA@ 000000018008cd70     libcpmt:winapinls.obj
 0002:0000dd80       ??_C@_1M@LOICPMOJ@?$AAb?$AAn?$AA?9?$AAI?$AAN?$AA?$AA@ 000000018008cd80     libcpmt:winapinls.obj
 0002:0000dd90       ??_C@_1M@KPKKNEAH@?$AAp?$AAa?$AA?9?$AAI?$AAN?$AA?$AA@ 000000018008cd90     libcpmt:winapinls.obj
 0002:0000dda0       ??_C@_1M@PJGPPBOG@?$AAg?$AAu?$AA?9?$AAI?$AAN?$AA?$AA@ 000000018008cda0     libcpmt:winapinls.obj
 0002:0000ddb0       ??_C@_1M@KMKMOPHI@?$AAt?$AAa?$AA?9?$AAI?$AAN?$AA?$AA@ 000000018008cdb0     libcpmt:winapinls.obj
 0002:0000ddc0       ??_C@_1M@KFEHEPAC@?$AAt?$AAe?$AA?9?$AAI?$AAN?$AA?$AA@ 000000018008cdc0     libcpmt:winapinls.obj
 0002:0000ddd0       ??_C@_1M@CDCLMGHI@?$AAk?$AAn?$AA?9?$AAI?$AAN?$AA?$AA@ 000000018008cdd0     libcpmt:winapinls.obj
 0002:0000dde0       ??_C@_1M@MIODLDKF@?$AAm?$AAl?$AA?9?$AAI?$AAN?$AA?$AA@ 000000018008cde0     libcpmt:winapinls.obj
 0002:0000ddf0       ??_C@_1M@PBIEACPO@?$AAm?$AAr?$AA?9?$AAI?$AAN?$AA?$AA@ 000000018008cdf0     libcpmt:winapinls.obj
 0002:0000de00       ??_C@_1M@NIDEAGPH@?$AAs?$AAa?$AA?9?$AAI?$AAN?$AA?$AA@ 000000018008ce00     libcpmt:winapinls.obj
 0002:0000de10       ??_C@_1M@FHIHCBIO@?$AAm?$AAn?$AA?9?$AAM?$AAN?$AA?$AA@ 000000018008ce10     libcpmt:winapinls.obj
 0002:0000de20       ??_C@_1M@JAIJPENP@?$AAc?$AAy?$AA?9?$AAG?$AAB?$AA?$AA@ 000000018008ce20     libcpmt:winapinls.obj
 0002:0000de30       ??_C@_1M@PHGFBEPN@?$AAg?$AAl?$AA?9?$AAE?$AAS?$AA?$AA@ 000000018008ce30     libcpmt:winapinls.obj
 0002:0000de40       ??_C@_1O@KPIPDNCP@?$AAk?$AAo?$AAk?$AA?9?$AAI?$AAN?$AA?$AA@ 000000018008ce40     libcpmt:winapinls.obj
 0002:0000de50       ??_C@_1O@KNHJLDJA@?$AAs?$AAy?$AAr?$AA?9?$AAS?$AAY?$AA?$AA@ 000000018008ce50     libcpmt:winapinls.obj
 0002:0000de60       ??_C@_1O@MKEKBLAH@?$AAd?$AAi?$AAv?$AA?9?$AAM?$AAV?$AA?$AA@ 000000018008ce60     libcpmt:winapinls.obj
 0002:0000de70       ??_C@_1O@OHDCKDDF@?$AAq?$AAu?$AAz?$AA?9?$AAB?$AAO?$AA?$AA@ 000000018008ce70     libcpmt:winapinls.obj
 0002:0000de80       ??_C@_1M@LEPJNLFD@?$AAn?$AAs?$AA?9?$AAZ?$AAA?$AA?$AA@ 000000018008ce80     libcpmt:winapinls.obj
 0002:0000de90       ??_C@_1M@OMLEIIJB@?$AAm?$AAi?$AA?9?$AAN?$AAZ?$AA?$AA@ 000000018008ce90     libcpmt:winapinls.obj
 0002:0000dea0       ??_C@_1M@PMPEAILG@?$AAa?$AAr?$AA?9?$AAI?$AAQ?$AA?$AA@ 000000018008cea0     libcpmt:winapinls.obj
 0002:0000deb0       ??_C@_1M@BIBDDEMK@?$AAz?$AAh?$AA?9?$AAC?$AAN?$AA?$AA@ 000000018008ceb0     libcpmt:winapinls.obj
 0002:0000dec0       ??_C@_1M@CNKPNOEE@?$AAd?$AAe?$AA?9?$AAC?$AAH?$AA?$AA@ 000000018008cec0     libcpmt:winapinls.obj
 0002:0000ded0       ??_C@_1M@LKMGMLKO@?$AAe?$AAn?$AA?9?$AAG?$AAB?$AA?$AA@ 000000018008ced0     libcpmt:winapinls.obj
 0002:0000dee0       ??_C@_1M@PGKJFFGL@?$AAe?$AAs?$AA?9?$AAM?$AAX?$AA?$AA@ 000000018008cee0     libcpmt:winapinls.obj
 0002:0000def0       ??_C@_1M@DNNANBDC@?$AAf?$AAr?$AA?9?$AAB?$AAE?$AA?$AA@ 000000018008cef0     libcpmt:winapinls.obj
 0002:0000df00       ??_C@_1M@HLGMDFHM@?$AAi?$AAt?$AA?9?$AAC?$AAH?$AA?$AA@ 000000018008cf00     libcpmt:winapinls.obj
 0002:0000df10       ??_C@_1M@CLLBGJH@?$AAn?$AAl?$AA?9?$AAB?$AAE?$AA?$AA@ 000000018008cf10     libcpmt:winapinls.obj
 0002:0000df20       ??_C@_1M@BODBOGLF@?$AAn?$AAn?$AA?9?$AAN?$AAO?$AA?$AA@ 000000018008cf20     libcpmt:winapinls.obj
 0002:0000df30       ??_C@_1M@HFFAHKAD@?$AAp?$AAt?$AA?9?$AAP?$AAT?$AA?$AA@ 000000018008cf30     libcpmt:winapinls.obj
 0002:0000df40       ??_C@_1BG@LNOAKHIE@?$AAs?$AAr?$AA?9?$AAS?$AAP?$AA?9?$AAL?$AAa?$AAt?$AAn?$AA?$AA@ 000000018008cf40     libcpmt:winapinls.obj
 0002:0000df58       ??_C@_1M@HBMHBGAK@?$AAs?$AAv?$AA?9?$AAF?$AAI?$AA?$AA@ 000000018008cf58     libcpmt:winapinls.obj
 0002:0000df68       ??_C@_1BG@DGCJGJBE@?$AAa?$AAz?$AA?9?$AAA?$AAZ?$AA?9?$AAC?$AAy?$AAr?$AAl?$AA?$AA@ 000000018008cf68     libcpmt:winapinls.obj
 0002:0000df80       ??_C@_1M@KEJDAAHB@?$AAs?$AAe?$AA?9?$AAS?$AAE?$AA?$AA@ 000000018008cf80     libcpmt:winapinls.obj
 0002:0000df90       ??_C@_1M@HEIBJJAD@?$AAm?$AAs?$AA?9?$AAB?$AAN?$AA?$AA@ 000000018008cf90     libcpmt:winapinls.obj
 0002:0000dfa0       ??_C@_1BG@PBGJMCEM@?$AAu?$AAz?$AA?9?$AAU?$AAZ?$AA?9?$AAC?$AAy?$AAr?$AAl?$AA?$AA@ 000000018008cfa0     libcpmt:winapinls.obj
 0002:0000dfb8       ??_C@_1O@LAOBCMDF@?$AAq?$AAu?$AAz?$AA?9?$AAE?$AAC?$AA?$AA@ 000000018008cfb8     libcpmt:winapinls.obj
 0002:0000dfc8       ??_C@_1M@POEEMAIO@?$AAa?$AAr?$AA?9?$AAE?$AAG?$AA?$AA@ 000000018008cfc8     libcpmt:winapinls.obj
 0002:0000dfd8       ??_C@_1M@EFAKDEDL@?$AAz?$AAh?$AA?9?$AAH?$AAK?$AA?$AA@ 000000018008cfd8     libcpmt:winapinls.obj
 0002:0000dfe8       ??_C@_1M@HKKIJHGI@?$AAd?$AAe?$AA?9?$AAA?$AAT?$AA?$AA@ 000000018008cfe8     libcpmt:winapinls.obj
 0002:0000dff8       ??_C@_1M@KBFBEHJF@?$AAe?$AAn?$AA?9?$AAA?$AAU?$AA?$AA@ 000000018008cff8     libcpmt:winapinls.obj
 0002:0000e008       ??_C@_1M@MNPLFAAH@?$AAe?$AAs?$AA?9?$AAE?$AAS?$AA?$AA@ 000000018008d008     libcpmt:winapinls.obj
 0002:0000e018       ??_C@_1M@HJOOJFMA@?$AAf?$AAr?$AA?9?$AAC?$AAA?$AA?$AA@ 000000018008d018     libcpmt:winapinls.obj
 0002:0000e028       ??_C@_1BG@JPOFPNAB@?$AAs?$AAr?$AA?9?$AAS?$AAP?$AA?9?$AAC?$AAy?$AAr?$AAl?$AA?$AA@ 000000018008d028     libcpmt:winapinls.obj
 0002:0000e040       ??_C@_1M@LNFOCMOB@?$AAs?$AAe?$AA?9?$AAF?$AAI?$AA?$AA@ 000000018008d040     libcpmt:winapinls.obj
 0002:0000e050       ??_C@_1O@MGJBOAMB@?$AAq?$AAu?$AAz?$AA?9?$AAP?$AAE?$AA?$AA@ 000000018008d050     libcpmt:winapinls.obj
 0002:0000e060       ??_C@_1M@GJINLBOK@?$AAa?$AAr?$AA?9?$AAL?$AAY?$AA?$AA@ 000000018008d060     libcpmt:winapinls.obj
 0002:0000e070       ??_C@_1M@GGMNHJNL@?$AAz?$AAh?$AA?9?$AAS?$AAG?$AA?$AA@ 000000018008d070     libcpmt:winapinls.obj
 0002:0000e080       ??_C@_1M@HOIKODND@?$AAd?$AAe?$AA?9?$AAL?$AAU?$AA?$AA@ 000000018008d080     libcpmt:winapinls.obj
 0002:0000e090       ??_C@_1M@DDOCCGFG@?$AAe?$AAn?$AA?9?$AAC?$AAA?$AA?$AA@ 000000018008d090     libcpmt:winapinls.obj
 0002:0000e0a0       ??_C@_1M@BNOEMJLF@?$AAe?$AAs?$AA?9?$AAG?$AAT?$AA?$AA@ 000000018008d0a0     libcpmt:winapinls.obj
 0002:0000e0b0       ??_C@_1M@EOGNKEK@?$AAf?$AAr?$AA?9?$AAC?$AAH?$AA?$AA@ 000000018008d0b0     libcpmt:winapinls.obj
 0002:0000e0c0       ??_C@_1M@FLIDJFHL@?$AAh?$AAr?$AA?9?$AAB?$AAA?$AA?$AA@ 000000018008d0c0     libcpmt:winapinls.obj
 0002:0000e0d0       ??_C@_1O@FMCELNAJ@?$AAs?$AAm?$AAj?$AA?9?$AAN?$AAO?$AA?$AA@ 000000018008d0d0     libcpmt:winapinls.obj
 0002:0000e0e0       ??_C@_1M@JHGLJMGJ@?$AAa?$AAr?$AA?9?$AAD?$AAZ?$AA?$AA@ 000000018008d0e0     libcpmt:winapinls.obj
 0002:0000e0f0       ??_C@_1M@JKKFDCNP@?$AAz?$AAh?$AA?9?$AAM?$AAO?$AA?$AA@ 000000018008d0f0     libcpmt:winapinls.obj
 0002:0000e100       ??_C@_1M@GEEFALPE@?$AAd?$AAe?$AA?9?$AAL?$AAI?$AA?$AA@ 000000018008d100     libcpmt:winapinls.obj
 0002:0000e110       ??_C@_1M@IGEOFBG@?$AAe?$AAn?$AA?9?$AAN?$AAZ?$AA?$AA@ 000000018008d110     libcpmt:winapinls.obj
 0002:0000e120       ??_C@_1M@KDBONEHP@?$AAe?$AAs?$AA?9?$AAC?$AAR?$AA?$AA@ 000000018008d120     libcpmt:winapinls.obj
 0002:0000e130       ??_C@_1M@FHMDOHNN@?$AAf?$AAr?$AA?9?$AAL?$AAU?$AA?$AA@ 000000018008d130     libcpmt:winapinls.obj
 0002:0000e140       ??_C@_1BG@NFKKMAFG@?$AAb?$AAs?$AA?9?$AAB?$AAA?$AA?9?$AAL?$AAa?$AAt?$AAn?$AA?$AA@ 000000018008d140     libcpmt:winapinls.obj
 0002:0000e158       ??_C@_1O@IMNBEMCI@?$AAs?$AAm?$AAj?$AA?9?$AAS?$AAE?$AA?$AA@ 000000018008d158     libcpmt:winapinls.obj
 0002:0000e168       ??_C@_1M@DHHMBNDP@?$AAa?$AAr?$AA?9?$AAM?$AAA?$AA?$AA@ 000000018008d168     libcpmt:winapinls.obj
 0002:0000e178       ??_C@_1M@BNBLJCGH@?$AAe?$AAn?$AA?9?$AAI?$AAE?$AA?$AA@ 000000018008d178     libcpmt:winapinls.obj
 0002:0000e188       ??_C@_1M@GEPAFMDL@?$AAe?$AAs?$AA?9?$AAP?$AAA?$AA?$AA@ 000000018008d188     libcpmt:winapinls.obj
 0002:0000e198       ??_C@_1M@OJONDMDL@?$AAf?$AAr?$AA?9?$AAM?$AAC?$AA?$AA@ 000000018008d198     libcpmt:winapinls.obj
 0002:0000e1a8       ??_C@_1BG@OBCNFJB@?$AAs?$AAr?$AA?9?$AAB?$AAA?$AA?9?$AAL?$AAa?$AAt?$AAn?$AA?$AA@ 000000018008d1a8     libcpmt:winapinls.obj
 0002:0000e1c0       ??_C@_1O@KEMEEGPO@?$AAs?$AAm?$AAa?$AA?9?$AAN?$AAO?$AA?$AA@ 000000018008d1c0     libcpmt:winapinls.obj
 0002:0000e1d0       ??_C@_1M@ELMGFODK@?$AAa?$AAr?$AA?9?$AAT?$AAN?$AA?$AA@ 000000018008d1d0     libcpmt:winapinls.obj
 0002:0000e1e0       ??_C@_1M@BHDLHFAF@?$AAe?$AAn?$AA?9?$AAZ?$AAA?$AA?$AA@ 000000018008d1e0     libcpmt:winapinls.obj
 0002:0000e1f0       ??_C@_1M@BMGIGLIF@?$AAe?$AAs?$AA?9?$AAD?$AAO?$AA?$AA@ 000000018008d1f0     libcpmt:winapinls.obj
 0002:0000e200       ??_C@_1BG@CMBHIPBE@?$AAs?$AAr?$AA?9?$AAB?$AAA?$AA?9?$AAC?$AAy?$AAr?$AAl?$AA?$AA@ 000000018008d200     libcpmt:winapinls.obj
 0002:0000e218       ??_C@_1O@HEDBLHNP@?$AAs?$AAm?$AAa?$AA?9?$AAS?$AAE?$AA?$AA@ 000000018008d218     libcpmt:winapinls.obj
 0002:0000e228       ??_C@_1M@DAGCADIM@?$AAa?$AAr?$AA?9?$AAO?$AAM?$AA?$AA@ 000000018008d228     libcpmt:winapinls.obj
 0002:0000e238       ??_C@_1M@FODLMICG@?$AAe?$AAn?$AA?9?$AAJ?$AAM?$AA?$AA@ 000000018008d238     libcpmt:winapinls.obj
 0002:0000e248       ??_C@_1M@DNMLCIHB@?$AAe?$AAs?$AA?9?$AAV?$AAE?$AA?$AA@ 000000018008d248     libcpmt:winapinls.obj
 0002:0000e258       ??_C@_1O@EOKHMKJK@?$AAs?$AAm?$AAs?$AA?9?$AAF?$AAI?$AA?$AA@ 000000018008d258     libcpmt:winapinls.obj
 0002:0000e268       ??_C@_1M@CAFJMKOF@?$AAa?$AAr?$AA?9?$AAY?$AAE?$AA?$AA@ 000000018008d268     libcpmt:winapinls.obj
 0002:0000e278       ??_C@_1M@CBFHIJLI@?$AAe?$AAn?$AA?9?$AAC?$AAB?$AA?$AA@ 000000018008d278     libcpmt:winapinls.obj
 0002:0000e288       ??_C@_1M@BGNFLDN@?$AAe?$AAs?$AA?9?$AAC?$AAO?$AA?$AA@ 000000018008d288     libcpmt:winapinls.obj
